 iltorb

 Timestamp is 5ec39927 (Tue May 19 14:00:31 2020)

 Preferred load address is 0000000180000000

 Start         Length     Name                   Class
 0001:00000000 00000040H .text$di                CODE
 0001:00000040 00057b00H .text$mn                CODE
 0001:00057b40 00000020H .text$mn$00             CODE
 0001:00057b60 00000250H .text$x                 CODE
 0001:00057db0 00000013H .text$yd                CODE
 0002:00000000 00000258H .idata$5                DATA
 0002:00000258 00000010H .00cfg                  DATA
 0002:00000268 00000008H .CRT$XCA                DATA
 0002:00000270 00000018H .CRT$XCU                DATA
 0002:00000288 00000008H .CRT$XCZ                DATA
 0002:00000290 00000008H .CRT$XIA                DATA
 0002:00000298 00000018H .CRT$XIC                DATA
 0002:000002b0 00000008H .CRT$XIZ                DATA
 0002:000002b8 00000008H .CRT$XPA                DATA
 0002:000002c0 00000010H .CRT$XPX                DATA
 0002:000002d0 00000008H .CRT$XPXA               DATA
 0002:000002d8 00000008H .CRT$XPZ                DATA
 0002:000002e0 00000008H .CRT$XTA                DATA
 0002:000002e8 00000008H .CRT$XTZ                DATA
 0002:000002f0 00000000H .gfids$y                DATA
 0002:000002f0 00071aa0H .rdata                  DATA
 0002:00071d90 000002fcH .rdata$r                DATA
 0002:0007208c 000003dcH .rdata$zzzdbg           DATA
 0002:00072468 00000008H .rtc$IAA                DATA
 0002:00072470 00000008H .rtc$IZZ                DATA
 0002:00072478 00000008H .rtc$TAA                DATA
 0002:00072480 00000008H .rtc$TZZ                DATA
 0002:00072488 00003440H .xdata                  DATA
 0002:000758c8 0000017cH .xdata$x                DATA
 0002:00075a44 00000020H .didat$2                DATA
 0002:00075a64 00000024H .didat$3                DATA
 0002:00075a88 000001b8H .didat$4                DATA
 0002:00075c40 00000f30H .didat$6                DATA
 0002:00076b70 000001c0H .didat$7                DATA
 0002:00076d30 00000050H .edata                  DATA
 0002:00076d80 00000014H .idata$2                DATA
 0002:00076d94 00000014H .idata$3                DATA
 0002:00076da8 00000258H .idata$4                DATA
 0002:00077000 00000574H .idata$6                DATA
 0003:00000000 00000c80H .data                   DATA
 0003:00000c80 000000f0H .data$r                 DATA
 0003:00000d70 000001c0H .didat$5                DATA
 0003:00000f30 0000124cH .bss                    DATA
 0004:00000000 00002ac0H .pdata                  DATA
 0005:00000000 00000060H .rsrc$01                DATA
 0005:00000060 00000180H .rsrc$02                DATA

  Address         Publics by Value              Rva+Base               Lib:Object

 0000:00000000       __guard_fids_count         0000000000000000     <absolute>
 0000:00000000       __guard_iat_count          0000000000000000     <absolute>
 0000:00000000       __hybrid_code_map_count    0000000000000000     <absolute>
 0000:00000000       __guard_longjmp_count      0000000000000000     <absolute>
 0000:00000000       __guard_longjmp_table      0000000000000000     <absolute>
 0000:00000000       __volatile_metadata        0000000000000000     <absolute>
 0000:00000000       __guard_iat_table          0000000000000000     <absolute>
 0000:00000000       __hybrid_code_map          0000000000000000     <absolute>
 0000:00000000       ___safe_se_handler_count   0000000000000000     <absolute>
 0000:00000000       __enclave_config           0000000000000000     <absolute>
 0000:00000000       ___safe_se_handler_table   0000000000000000     <absolute>
 0000:00000000       __guard_fids_table         0000000000000000     <absolute>
 0000:00000000       __hybrid_auxiliary_iat     0000000000000000     <absolute>
 0000:00000000       __dynamic_value_reloc_table 0000000000000000     <absolute>
 0000:00000100       __guard_flags              0000000000000100     <absolute>
 0000:00000000       __ImageBase                0000000180000000     <linker-defined>
 0001:00000040       BrotliWarmupBitReader      0000000180001040 f   bit_reader.obj
 0001:000045b0       BrotliDecoderDecompressStream 00000001800055b0 f   decode.obj
 0001:000057a0       BrotliBuildCodeLengthsHuffmanTable 00000001800067a0 f   huffman.obj
 0001:000059c0       BrotliBuildHuffmanTable    00000001800069c0 f   huffman.obj
 0001:00005cc0       BrotliBuildSimpleHuffmanTable 0000000180006cc0 f   huffman.obj
 0001:00005ec0       BrotliDecoderStateInitWithCustomAllocators 0000000180006ec0 f   state.obj
 0001:00005ff0       BrotliDecoderStateCleanupAfterMetablock 0000000180006ff0 f   state.obj
 0001:00011690       BrotliCreateBackwardReferences 0000000180012690 f   backward_references.obj
 0001:00012d30       BrotliZopfliCreateCommands 0000000180013d30 f   backward_references_hq.obj
 0001:00013370       BrotliZopfliComputeShortestPath 0000000180014370 f   backward_references_hq.obj
 0001:000142b0       BrotliCreateZopfliBackwardReferences 00000001800152b0 f   backward_references_hq.obj
 0001:00014440       BrotliCreateHqZopfliBackwardReferences 0000000180015440 f   backward_references_hq.obj
 0001:00015690       BrotliPopulationCostLiteral 0000000180016690 f   bit_cost.obj
 0001:00015c00       BrotliPopulationCostCommand 0000000180016c00 f   bit_cost.obj
 0001:00016170       BrotliPopulationCostDistance 0000000180017170 f   bit_cost.obj
 0001:0001b4a0       BrotliSplitBlock           000000018001c4a0 f   block_splitter.obj
 0001:0001c3e0       BrotliStoreHuffmanTree     000000018001d3e0 f   brotli_bit_stream.obj
 0001:0001c8d0       BrotliBuildAndStoreHuffmanTreeFast 000000018001d8d0 f   brotli_bit_stream.obj
 0001:0001e930       BrotliStoreMetaBlock       000000018001f930 f   brotli_bit_stream.obj
 0001:0001faf0       BrotliStoreMetaBlockTrivial 0000000180020af0 f   brotli_bit_stream.obj
 0001:0001fe30       BrotliStoreMetaBlockFast   0000000180020e30 f   brotli_bit_stream.obj
 0001:00020350       BrotliStoreUncompressedMetaBlock 0000000180021350 f   brotli_bit_stream.obj
 0001:00020480       BrotliCompareAndPushToQueueLiteral 0000000180021480 f   cluster.obj
 0001:000208b0       BrotliHistogramCombineLiteral 00000001800218b0 f   cluster.obj
 0001:00020c70       BrotliHistogramBitCostDistanceLiteral 0000000180021c70 f   cluster.obj
 0001:00020dd0       BrotliHistogramRemapLiteral 0000000180021dd0 f   cluster.obj
 0001:00021030       BrotliHistogramReindexLiteral 0000000180022030 f   cluster.obj
 0001:00021270       BrotliClusterHistogramsLiteral 0000000180022270 f   cluster.obj
 0001:00021620       BrotliCompareAndPushToQueueCommand 0000000180022620 f   cluster.obj
 0001:00021a00       BrotliHistogramCombineCommand 0000000180022a00 f   cluster.obj
 0001:00021dc0       BrotliHistogramBitCostDistanceCommand 0000000180022dc0 f   cluster.obj
 0001:00021ec0       BrotliCompareAndPushToQueueDistance 0000000180022ec0 f   cluster.obj
 0001:000222b0       BrotliHistogramCombineDistance 00000001800232b0 f   cluster.obj
 0001:00022680       BrotliHistogramBitCostDistanceDistance 0000000180023680 f   cluster.obj
 0001:000227b0       BrotliHistogramRemapDistance 00000001800237b0 f   cluster.obj
 0001:000229f0       BrotliHistogramReindexDistance 00000001800239f0 f   cluster.obj
 0001:00022b70       BrotliClusterHistogramsDistance 0000000180023b70 f   cluster.obj
 0001:0002c9b0       BrotliCompressFragmentFast 000000018002d9b0 f   compress_fragment.obj
 0001:00034450       BrotliCompressFragmentTwoPass 0000000180035450 f   compress_fragment_two_pass.obj
 0001:00036510       BrotliEncoderCreateInstance 0000000180037510 f   encode.obj
 0001:00036640       BrotliEncoderDestroyInstance 0000000180037640 f   encode.obj
 0001:00036a00       BrotliEncoderSetCustomDictionary 0000000180037a00 f   encode.obj
 0001:00039a40       BrotliEncoderCompressStream 000000018003aa40 f   encode.obj
 0001:00039e30       BrotliSetDepth             000000018003ae30 f   entropy_encode.obj
 0001:00039f00       BrotliCreateHuffmanTree    000000018003af00 f   entropy_encode.obj
 0001:0003a1f0       BrotliOptimizeHuffmanCountsForRle 000000018003b1f0 f   entropy_encode.obj
 0001:0003a4c0       BrotliWriteHuffmanTree     000000018003b4c0 f   entropy_encode.obj
 0001:0003a8e0       BrotliConvertBitDepthsToSymbols 000000018003b8e0 f   entropy_encode.obj
 0001:0003aab0       BrotliBuildHistogramsWithContext 000000018003bab0 f   histogram.obj
 0001:0003b320       BrotliEstimateBitCostsForLiterals 000000018003c320 f   literal_cost.obj
 0001:0003b5d0       BrotliBuildMetaBlock       000000018003c5d0 f   metablock.obj
 0001:0003f0c0       BrotliBuildMetaBlockGreedy 00000001800400c0 f   metablock.obj
 0001:0003f7a0       BrotliOptimizeHistograms   00000001800407a0 f   metablock.obj
 0001:0003f8e0       BrotliFindAllStaticDictionaryMatches 00000001800408e0 f   static_dict.obj
 0001:000410e0       BrotliIsMostlyUTF8         00000001800420e0 f   utf8_util.obj
 0001:00041190       ?AdjustExternalMemory@Nan@@YAHH@Z 0000000180042190 f i allocator.obj
 0001:00041210       ?Alloc@Allocator@@SAPEAXPEAX_K@Z 0000000180042210 f   allocator.obj
 0001:00041260       ?Free@Allocator@@SAXPEAX0@Z 0000000180042260 f   allocator.obj
 0001:000412c0       ?NodeFree@Allocator@@SAXPEADPEAX@Z 00000001800422c0 f i stream_coder.obj
 0001:00041320       ??1ObjectWrap@Nan@@UEAA@XZ 0000000180042320 f i stream_coder.obj
 0001:00041390       ?Ref@ObjectWrap@Nan@@MEAAXXZ 0000000180042390 f i stream_coder.obj
 0001:000413d0       ?Unref@ObjectWrap@Nan@@MEAAXXZ 00000001800423d0 f i stream_coder.obj
 0001:00041480       ?WeakCallback@ObjectWrap@Nan@@CAXAEBV?$WeakCallbackInfo@VObjectWrap@Nan@@@v8@@@Z 0000000180042480 f i stream_coder.obj
 0001:00041510       ??_EObjectWrap@Nan@@UEAAPEAXI@Z 0000000180042510 f i * CIL library *:* CIL module *
 0001:00041510       ??_GObjectWrap@Nan@@UEAAPEAXI@Z 0000000180042510 f i stream_coder.obj
 0001:00041550       ??_EStreamCoder@@MEAAPEAXI@Z 0000000180042550 f i * CIL library *:* CIL module *
 0001:00041550       ??_GStreamCoder@@MEAAPEAXI@Z 0000000180042550 f i stream_coder.obj
 0001:00041590       ??1StreamCoder@@MEAA@XZ    0000000180042590 f   stream_coder.obj
 0001:000416f0       ?PendingChunksAsArray@StreamCoder@@QEAA?AV?$Local@VArray@v8@@@v8@@XZ 00000001800426f0 f   stream_coder.obj
 0001:00041930       ?New@?$Factory@VFunctionTemplate@v8@@@imp@Nan@@SA?AV?$Local@VFunctionTemplate@v8@@@v8@@P6AXAEBV?$FunctionCallbackInfo@VValue@v8@@@3@@ZV?$Local@VValue@v8@@@5@V?$Local@VSignature@v8@@@5@@Z 0000000180042930 f i stream_decode.obj
 0001:00041ae0       ?AsyncExecute@Nan@@YAXPEAUuv_work_s@@@Z 0000000180042ae0 f i stream_decode.obj
 0001:00041af0       ?AsyncExecuteComplete@Nan@@YAXPEAUuv_work_s@@@Z 0000000180042af0 f i stream_decode.obj
 0001:00041b20       ?SetPrototypeMethod@Nan@@YAXV?$Local@VFunctionTemplate@v8@@@v8@@PEBDP6AXAEBV?$FunctionCallbackInfo@VValue@v8@@@1@@Z@Z 0000000180042b20 f i stream_decode.obj
 0001:00041c00       ?Wrap@ObjectWrap@Nan@@IEAAXV?$Local@VObject@v8@@@v8@@@Z 0000000180042c00 f i stream_decode.obj
 0001:00041ce0       ??0StreamDecode@@AEAA@V?$Local@VObject@v8@@@v8@@@Z 0000000180042ce0 f   stream_decode.obj
 0001:00041ec0       ??_EStreamDecode@@EEAAPEAXI@Z 0000000180042ec0 f i * CIL library *:* CIL module *
 0001:00041ec0       ??_GStreamDecode@@EEAAPEAXI@Z 0000000180042ec0 f i stream_decode.obj
 0001:00041f80       ?Init@StreamDecode@@SAXV?$Local@VObject@v8@@@v8@@@Z 0000000180042f80 f   stream_decode.obj
 0001:00042260       ?New@StreamDecode@@CAXAEBV?$FunctionCallbackInfo@VValue@v8@@@Nan@@@Z 0000000180043260 f   stream_decode.obj
 0001:00042300       ?Transform@StreamDecode@@CAXAEBV?$FunctionCallbackInfo@VValue@v8@@@Nan@@@Z 0000000180043300 f   stream_decode.obj
 0001:00042460       ?Flush@StreamDecode@@CAXAEBV?$FunctionCallbackInfo@VValue@v8@@@Nan@@@Z 0000000180043460 f   stream_decode.obj
 0001:00042590       ??$Unwrap@VStreamEncode@@@ObjectWrap@Nan@@SAPEAVStreamEncode@@V?$Local@VObject@v8@@@v8@@@Z 0000000180043590 f i stream_encode.obj
 0001:00042590       ??$Unwrap@VStreamDecode@@@ObjectWrap@Nan@@SAPEAVStreamDecode@@V?$Local@VObject@v8@@@v8@@@Z 0000000180043590 f i stream_decode.obj
 0001:00042610       ??0AsyncResource@Nan@@QEAA@PEBDV?$Local@VObject@v8@@@v8@@@Z 0000000180043610 f i stream_decode_worker.obj
 0001:000426d0       ?Call@Callback@Nan@@QEBA?AV?$Local@VValue@v8@@@v8@@HQEAV34@@Z 00000001800436d0 f i stream_decode_worker.obj
 0001:000428e0       ?Call_@Callback@Nan@@AEBA?AV?$MaybeLocal@VValue@v8@@@v8@@PEAVIsolate@4@V?$Local@VObject@v8@@@4@HQEAV?$Local@VValue@v8@@@4@PEAVAsyncResource@2@@Z 00000001800438e0 f i stream_decode_worker.obj
 0001:000429d0       ??0AsyncWorker@Nan@@QEAA@PEAVCallback@1@PEBD@Z 00000001800439d0 f i stream_decode_worker.obj
 0001:00042ac0       ??1AsyncWorker@Nan@@UEAA@XZ 0000000180043ac0 f i stream_decode_worker.obj
 0001:00042b90       ?WorkComplete@AsyncWorker@Nan@@UEAAXXZ 0000000180043b90 f i stream_decode_worker.obj
 0001:00042c20       ?Destroy@AsyncWorker@Nan@@UEAAXXZ 0000000180043c20 f i stream_decode_worker.obj
 0001:00042c40       ?HandleOKCallback@AsyncWorker@Nan@@MEAAXXZ 0000000180043c40 f i stream_decode_worker.obj
 0001:00042ce0       ?HandleErrorCallback@AsyncWorker@Nan@@MEAAXXZ 0000000180043ce0 f i stream_decode_worker.obj
 0001:00042de0       ??_GAsyncWorker@Nan@@UEAAPEAXI@Z 0000000180043de0 f i stream_decode_worker.obj
 0001:00042de0       ??_EAsyncWorker@Nan@@UEAAPEAXI@Z 0000000180043de0 f i * CIL library *:* CIL module *
 0001:00042e20       ??_EStreamDecodeWorker@@EEAAPEAXI@Z 0000000180043e20 f i * CIL library *:* CIL module *
 0001:00042e20       ??_GStreamDecodeWorker@@EEAAPEAXI@Z 0000000180043e20 f i stream_decode_worker.obj
 0001:00042e60       ?Execute@StreamDecodeWorker@@UEAAXXZ 0000000180043e60 f   stream_decode_worker.obj
 0001:00043090       ?HandleOKCallback@StreamDecodeWorker@@UEAAXXZ 0000000180044090 f   stream_decode_worker.obj
 0001:000431a0       ??$_Emplace_reallocate@PEAE@?$vector@PEAEV?$allocator@PEAE@std@@@std@@QEAAPEAPEAEQEAPEAE$$QEAPEAE@Z 00000001800441a0 f i stream_decode_worker.obj
 0001:00043340       ?_Xlength@?$vector@PEAEV?$allocator@PEAE@std@@@std@@CAXXZ 0000000180044340 f i stream_decode_worker.obj
 0001:00043360       ??0StreamEncode@@AEAA@V?$Local@VObject@v8@@@v8@@@Z 0000000180044360 f   stream_encode.obj
 0001:00043af0       ??_EStreamEncode@@EEAAPEAXI@Z 0000000180044af0 f i * CIL library *:* CIL module *
 0001:00043af0       ??_GStreamEncode@@EEAAPEAXI@Z 0000000180044af0 f i stream_encode.obj
 0001:00043b40       ?Init@StreamEncode@@SAXV?$Local@VObject@v8@@@v8@@@Z 0000000180044b40 f   stream_encode.obj
 0001:00043e20       ?New@StreamEncode@@CAXAEBV?$FunctionCallbackInfo@VValue@v8@@@Nan@@@Z 0000000180044e20 f   stream_encode.obj
 0001:00043ec0       ?Transform@StreamEncode@@CAXAEBV?$FunctionCallbackInfo@VValue@v8@@@Nan@@@Z 0000000180044ec0 f   stream_encode.obj
 0001:00044030       ?Flush@StreamEncode@@CAXAEBV?$FunctionCallbackInfo@VValue@v8@@@Nan@@@Z 0000000180045030 f   stream_encode.obj
 0001:00044190       ??_GStreamEncodeWorker@@EEAAPEAXI@Z 0000000180045190 f i stream_encode_worker.obj
 0001:00044190       ??_EStreamEncodeWorker@@EEAAPEAXI@Z 0000000180045190 f i * CIL library *:* CIL module *
 0001:000441d0       ?Execute@StreamEncodeWorker@@UEAAXXZ 00000001800451d0 f   stream_encode_worker.obj
 0001:00044360       ?HandleOKCallback@StreamEncodeWorker@@UEAAXXZ 0000000180045360 f   stream_encode_worker.obj
 0001:00044460       ?Init@@YAXV?$Local@VObject@v8@@@v8@@@Z 0000000180045460 f   iltorb.obj
 0001:000444dc       __imp_load_?CheckMemoryPressure@Isolate@v8@@AEAAXXZ 00000001800454dc f   node:node.exe
 0001:000444e8       __tailMerge_node_exe       00000001800454e8     node:node.exe
 0001:00044561       __imp_load_?ReportExternalAllocationLimitReached@Isolate@v8@@AEAAXXZ 0000000180045561 f   node:node.exe
 0001:0004456d       __imp_load_?GetCurrent@Isolate@v8@@SAPEAV12@XZ 000000018004556d f   node:node.exe
 0001:00044579       __imp_load_?GetCurrentContext@Isolate@v8@@QEAA?AV?$Local@VContext@v8@@@2@XZ 0000000180045579 f   node:node.exe
 0001:00044585       __imp_load_??1HandleScope@v8@@QEAA@XZ 0000000180045585 f   node:node.exe
 0001:00044591       __imp_load_??0HandleScope@v8@@QEAA@PEAVIsolate@1@@Z 0000000180045591 f   node:node.exe
 0001:0004459d       __imp_load_?New@Array@v8@@SA?AV?$Local@VArray@v8@@@2@PEAVIsolate@2@H@Z 000000018004559d f   node:node.exe
 0001:000445a9       __imp_load_?ToLocalEmpty@V8@v8@@CAXXZ 00000001800455a9 f   node:node.exe
 0001:000445b5       __imp_load_?ClearWeak@V8@v8@@CAPEAXPEAPEAVObject@internal@2@@Z 00000001800455b5 f   node:node.exe
 0001:000445c1       __imp_load_?MakeWeak@V8@v8@@CAXPEAPEAVObject@internal@2@PEAXP6AXAEBV?$WeakCallbackInfo@X@2@@ZW4WeakCallbackType@2@@Z 00000001800455c1 f   node:node.exe
 0001:000445cd       __imp_load_?DisposeGlobal@V8@v8@@CAXPEAPEAVObject@internal@2@@Z 00000001800455cd f   node:node.exe
 0001:000445d9       __imp_load_?Set@Object@v8@@QEAA?AV?$Maybe@_N@2@V?$Local@VContext@v8@@@2@IV?$Local@VValue@v8@@@2@@Z 00000001800455d9 f   node:node.exe
 0001:000445e5       __imp_load_?New@Buffer@node@@YA?AV?$MaybeLocal@VObject@v8@@@v8@@PEAVIsolate@4@PEAD_KP6AX1PEAX@Z3@Z 00000001800455e5 f   node:node.exe
 0001:000445f1       __imp_load_uv_queue_work   00000001800455f1 f   node:node.exe
 0001:000445fd       __imp_load_?Value@External@v8@@QEBAPEAXXZ 00000001800455fd f   node:node.exe
 0001:00044609       __imp_load_?New@External@v8@@SA?AV?$Local@VExternal@v8@@@2@PEAVIsolate@2@PEAX@Z 0000000180045609 f   node:node.exe
 0001:00044615       __imp_load_?New@Signature@v8@@SA?AV?$Local@VSignature@v8@@@2@PEAVIsolate@2@V?$Local@VFunctionTemplate@v8@@@2@@Z 0000000180045615 f   node:node.exe
 0001:00044621       __imp_load_?CreateHandle@HandleScope@v8@@KAPEAPEAVObject@internal@2@PEAVIsolate@42@PEAV342@@Z 0000000180045621 f   node:node.exe
 0001:0004462d       __imp_load_?CreateHandle@HandleScope@v8@@CAPEAPEAVObject@internal@2@PEAVHeapObject@42@PEAV342@@Z 000000018004562d f   node:node.exe
 0001:00044639       __imp_load_?Set@Template@v8@@QEAAXV?$Local@VName@v8@@@2@V?$Local@VData@v8@@@2@W4PropertyAttribute@2@@Z 0000000180045639 f   node:node.exe
 0001:00044645       __imp_load_?SetClassName@FunctionTemplate@v8@@QEAAXV?$Local@VString@v8@@@2@@Z 0000000180045645 f   node:node.exe
 0001:00044651       __imp_load_?PrototypeTemplate@FunctionTemplate@v8@@QEAA?AV?$Local@VObjectTemplate@v8@@@2@XZ 0000000180045651 f   node:node.exe
 0001:0004465d       __imp_load_?InstanceTemplate@FunctionTemplate@v8@@QEAA?AV?$Local@VObjectTemplate@v8@@@2@XZ 000000018004565d f   node:node.exe
 0001:00044669       __imp_load_?GetFunction@FunctionTemplate@v8@@QEAA?AV?$MaybeLocal@VFunction@v8@@@2@V?$Local@VContext@v8@@@2@@Z 0000000180045669 f   node:node.exe
 0001:00044675       __imp_load_?New@FunctionTemplate@v8@@SA?AV?$Local@VFunctionTemplate@v8@@@2@PEAVIsolate@2@P6AXAEBV?$FunctionCallbackInfo@VValue@v8@@@2@@ZV?$Local@VValue@v8@@@2@V?$Local@VSignature@v8@@@2@HW4ConstructorBehavior@2@@Z 0000000180045675 f   node:node.exe
 0001:00044681       __imp_load_?FromJustIsNothing@V8@v8@@CAXXZ 0000000180045681 f   node:node.exe
 0001:0004468d       __imp_load_?GlobalizeReference@V8@v8@@CAPEAPEAVObject@internal@2@PEAVIsolate@42@PEAPEAV342@@Z 000000018004568d f   node:node.exe
 0001:00044699       __imp_load_?BooleanValue@Value@v8@@QEBA_NXZ 0000000180045699 f   node:node.exe
 0001:000446a5       __imp_load_?Escape@EscapableHandleScope@v8@@AEAAPEAPEAVObject@internal@2@PEAPEAV342@@Z 00000001800456a5 f   node:node.exe
 0001:000446b1       __imp_load_??0EscapableHandleScope@v8@@QEAA@PEAVIsolate@1@@Z 00000001800456b1 f   node:node.exe
 0001:000446bd       __imp_load_?NewFromUtf8@String@v8@@SA?AV?$MaybeLocal@VString@v8@@@2@PEAVIsolate@2@PEBDW4NewStringType@2@H@Z 00000001800456bd f   node:node.exe
 0001:000446c9       __imp_load_?SlowGetAlignedPointerFromInternalField@Object@v8@@AEAAPEAXH@Z 00000001800456c9 f   node:node.exe
 0001:000446d5       __imp_load_?SlowGetInternalField@Object@v8@@AEAA?AV?$Local@VValue@v8@@@2@H@Z 00000001800456d5 f   node:node.exe
 0001:000446e1       __imp_load_?SetAlignedPointerInInternalField@Object@v8@@QEAAXHPEAX@Z 00000001800456e1 f   node:node.exe
 0001:000446ed       __imp_load_?SetInternalField@Object@v8@@QEAAXHV?$Local@VValue@v8@@@2@@Z 00000001800456ed f   node:node.exe
 0001:000446f9       __imp_load_?InternalFieldCount@Object@v8@@QEAAHXZ 00000001800456f9 f   node:node.exe
 0001:00044705       __imp_load_?Has@Object@v8@@QEAA?AV?$Maybe@_N@2@V?$Local@VContext@v8@@@2@V?$Local@VValue@v8@@@2@@Z 0000000180045705 f   node:node.exe
 0001:00044711       __imp_load_?Get@Object@v8@@QEAA?AV?$MaybeLocal@VValue@v8@@@2@V?$Local@VContext@v8@@@2@V?$Local@VValue@v8@@@2@@Z 0000000180045711 f   node:node.exe
 0001:0004471d       __imp_load_?Set@Object@v8@@QEAA?AV?$Maybe@_N@2@V?$Local@VContext@v8@@@2@V?$Local@VValue@v8@@@2@1@Z 000000018004571d f   node:node.exe
 0001:00044729       __imp_load_?SetInternalFieldCount@ObjectTemplate@v8@@QEAAXH@Z 0000000180045729 f   node:node.exe
 0001:00044735       __imp_load_?NewInstance@ObjectTemplate@v8@@QEAA?AV?$MaybeLocal@VObject@v8@@@2@V?$Local@VContext@v8@@@2@@Z 0000000180045735 f   node:node.exe
 0001:00044741       __imp_load_?New@ObjectTemplate@v8@@SA?AV?$Local@VObjectTemplate@v8@@@2@PEAVIsolate@2@V?$Local@VFunctionTemplate@v8@@@2@@Z 0000000180045741 f   node:node.exe
 0001:0004474d       __imp_load_?Data@Buffer@node@@YAPEADV?$Local@VObject@v8@@@v8@@@Z 000000018004574d f   node:node.exe
 0001:00044759       __imp_load_?Length@Buffer@node@@YA_KV?$Local@VObject@v8@@@v8@@@Z 0000000180045759 f   node:node.exe
 0001:00044765       __imp_load_?GetCurrentEventLoop@node@@YAPEAUuv_loop_s@@PEAVIsolate@v8@@@Z 0000000180045765 f   node:node.exe
 0001:00044771       __imp_load_?ToObject@Value@v8@@QEBA?AV?$Local@VObject@v8@@@2@XZ 0000000180045771 f   node:node.exe
 0001:0004477d       __imp_load_?Global@Context@v8@@QEAA?AV?$Local@VObject@v8@@@2@XZ 000000018004577d f   node:node.exe
 0001:00044789       __imp_load_?Error@Exception@v8@@SA?AV?$Local@VValue@v8@@@2@V?$Local@VString@v8@@@2@@Z 0000000180045789 f   node:node.exe
 0001:00044795       __imp_load_?New@Object@v8@@SA?AV?$Local@VObject@v8@@@2@PEAVIsolate@2@@Z 0000000180045795 f   node:node.exe
 0001:000447a1       __imp_load_?EmitAsyncDestroy@node@@YAXPEAVIsolate@v8@@Uasync_context@1@@Z 00000001800457a1 f   node:node.exe
 0001:000447ad       __imp_load_?MakeCallback@node@@YA?AV?$MaybeLocal@VValue@v8@@@v8@@PEAVIsolate@3@V?$Local@VObject@v8@@@3@V?$Local@VFunction@v8@@@3@HPEAV?$Local@VValue@v8@@@3@Uasync_context@1@@Z 00000001800457ad f   node:node.exe
 0001:000447b9       __imp_load_?EmitAsyncInit@node@@YA?AUasync_context@1@PEAVIsolate@v8@@V?$Local@VObject@v8@@@4@V?$Local@VString@v8@@@4@N@Z 00000001800457b9 f   node:node.exe
 0001:000447c5       __imp_load_?Int32Value@Value@v8@@QEBAHXZ 00000001800457c5 f   node:node.exe
 0001:000447d1       __imp_load_node_module_register 00000001800457d1 f   node:node.exe
 0001:000447f0       __security_check_cookie    00000001800457f0 f   LIBCMT:amdsecgs.obj
 0001:00044814       __raise_securityfailure    0000000180045814 f   LIBCMT:gs_report.obj
 0001:00044848       __report_gsfailure         0000000180045848 f   LIBCMT:gs_report.obj
 0001:0004491c       __report_rangecheckfailure 000000018004591c f   LIBCMT:gs_report.obj
 0001:00044930       __report_securityfailure   0000000180045930 f   LIBCMT:gs_report.obj
 0001:00044ab0       ??3@YAXPEAX_K@Z            0000000180045ab0 f   LIBCMT:delete_scalar_size.obj
 0001:00044ab0       ??_V@YAXPEAX@Z             0000000180045ab0 f   LIBCMT:delete_array.obj
 0001:00044ab8       ??2@YAPEAX_K@Z             0000000180045ab8 f   LIBCMT:new_scalar.obj
 0001:00044af4       __scrt_acquire_startup_lock 0000000180045af4 f   LIBCMT:utility.obj
 0001:00044b30       __scrt_dllmain_after_initialize_c 0000000180045b30 f   LIBCMT:utility.obj
 0001:00044b64       __scrt_dllmain_before_initialize_c 0000000180045b64 f   LIBCMT:utility.obj
 0001:00044b7c       __scrt_dllmain_crt_thread_attach 0000000180045b7c f   LIBCMT:utility.obj
 0001:00044ba4       __scrt_dllmain_crt_thread_detach 0000000180045ba4 f   LIBCMT:utility.obj
 0001:00044bbc       __scrt_dllmain_exception_filter 0000000180045bbc f   LIBCMT:utility.obj
 0001:00044c1c       __scrt_dllmain_uninitialize_c 0000000180045c1c f   LIBCMT:utility.obj
 0001:00044c4c       __scrt_dllmain_uninitialize_critical 0000000180045c4c f   LIBCMT:utility.obj
 0001:00044c60       __scrt_initialize_crt      0000000180045c60 f   LIBCMT:utility.obj
 0001:00044cac       __scrt_initialize_onexit_tables 0000000180045cac f   LIBCMT:utility.obj
 0001:00044d84       __scrt_is_nonwritable_in_current_image 0000000180045d84 f   LIBCMT:utility.obj
 0001:00044e20       __scrt_release_startup_lock 0000000180045e20 f   LIBCMT:utility.obj
 0001:00044e44       __scrt_uninitialize_crt    0000000180045e44 f   LIBCMT:utility.obj
 0001:00044e70       _onexit                    0000000180045e70 f   LIBCMT:utility.obj
 0001:00044ec0       atexit                     0000000180045ec0 f   LIBCMT:utility.obj
 0001:00045208       _DllMainCRTStartup         0000000180046208 f   LIBCMT:dll_dllmain.obj
 0001:00045248       ??3@YAXPEAX@Z              0000000180046248 f   LIBCMT:delete_scalar.obj
 0001:00045250       ??0bad_alloc@std@@QEAA@AEBV01@@Z 0000000180046250 f i LIBCMT:throw_bad_alloc.obj
 0001:00045290       ??0bad_alloc@std@@QEAA@XZ  0000000180046290 f i LIBCMT:throw_bad_alloc.obj
 0001:000452b0       ??0bad_array_new_length@std@@QEAA@AEBV01@@Z 00000001800462b0 f i LIBCMT:throw_bad_alloc.obj
 0001:000452f0       ??0bad_array_new_length@std@@QEAA@XZ 00000001800462f0 f i LIBCMT:throw_bad_alloc.obj
 0001:00045310       ??0exception@std@@QEAA@AEBV01@@Z 0000000180046310 f i LIBCMT:throw_bad_alloc.obj
 0001:00045348       ??1bad_array_new_length@std@@UEAA@XZ 0000000180046348 f i LIBCMT:throw_bad_alloc.obj
 0001:00045348       ??1length_error@std@@UEAA@XZ 0000000180046348 f i libcpmt:xthrow.obj
 0001:00045348       ??1bad_alloc@std@@UEAA@XZ  0000000180046348 f i LIBCMT:throw_bad_alloc.obj
 0001:0004535c       ??_Ebad_array_new_length@std@@UEAAPEAXI@Z 000000018004635c f i LIBCMT:throw_bad_alloc.obj
 0001:0004535c       ??_Gbad_array_new_length@std@@UEAAPEAXI@Z 000000018004635c f i LIBCMT:throw_bad_alloc.obj
 0001:0004535c       ??_Glength_error@std@@UEAAPEAXI@Z 000000018004635c f i libcpmt:xthrow.obj
 0001:0004535c       ??_Elength_error@std@@UEAAPEAXI@Z 000000018004635c f i libcpmt:xthrow.obj
 0001:0004535c       ??_Elogic_error@std@@UEAAPEAXI@Z 000000018004635c f i libcpmt:xthrow.obj
 0001:0004535c       ??_Ebad_alloc@std@@UEAAPEAXI@Z 000000018004635c f i LIBCMT:throw_bad_alloc.obj
 0001:0004535c       ??_Glogic_error@std@@UEAAPEAXI@Z 000000018004635c f i libcpmt:xthrow.obj
 0001:0004535c       ??_Eexception@std@@UEAAPEAXI@Z 000000018004635c f i LIBCMT:throw_bad_alloc.obj
 0001:0004535c       ??_Gbad_alloc@std@@UEAAPEAXI@Z 000000018004635c f i LIBCMT:throw_bad_alloc.obj
 0001:0004535c       ??_Gexception@std@@UEAAPEAXI@Z 000000018004635c f i LIBCMT:throw_bad_alloc.obj
 0001:000453a0       ?__scrt_throw_std_bad_alloc@@YAXXZ 00000001800463a0 f   LIBCMT:throw_bad_alloc.obj
 0001:000453c0       ?__scrt_throw_std_bad_array_new_length@@YAXXZ 00000001800463c0 f   LIBCMT:throw_bad_alloc.obj
 0001:000453e0       ?what@exception@std@@UEBAPEBDXZ 00000001800463e0 f i LIBCMT:throw_bad_alloc.obj
 0001:000453f4       __isa_available_init       00000001800463f4 f   LIBCMT:cpu_disp.obj
 0001:00045570       _get_startup_argv_mode     0000000180046570 f   LIBCMT:argv_mode.obj
 0001:00045570       DllMain                    0000000180046570 f   LIBCMT:dll_dllmain_stub.obj
 0001:00045578       __scrt_is_ucrt_dll_in_use  0000000180046578 f   LIBCMT:ucrt_detection.obj
 0001:00045584       __crt_debugger_hook        0000000180046584 f   LIBCMT:utility_desktop.obj
 0001:0004558c       __scrt_fastfail            000000018004658c f   LIBCMT:utility_desktop.obj
 0001:000456d8       _guard_check_icall_nop     00000001800466d8 f i LIBCMT:guard_support.obj
 0001:000456dc       __security_init_cookie     00000001800466dc f   LIBCMT:gs_support.obj
 0001:00045788       ?__scrt_initialize_type_info@@YAXXZ 0000000180046788 f   LIBCMT:tncleanup.obj
 0001:00045798       ?__scrt_uninitialize_type_info@@YAXXZ 0000000180046798 f   LIBCMT:tncleanup.obj
 0001:000457a4       __local_stdio_printf_options 00000001800467a4 f i LIBCMT:default_local_stdio_options.obj
 0001:000457ac       __local_stdio_scanf_options 00000001800467ac f i LIBCMT:default_local_stdio_options.obj
 0001:000457b4       __scrt_initialize_default_local_stdio_options 00000001800467b4 f   LIBCMT:default_local_stdio_options.obj
 0001:000457d0       __scrt_get_dyn_tls_init_callback 00000001800467d0 f   LIBCMT:dyn_tls_init.obj
 0001:000457d8       _RTC_Initialize            00000001800467d8 f   LIBCMT:initsect.obj
 0001:00045814       _RTC_Terminate             0000000180046814 f   LIBCMT:initsect.obj
 0001:00045850       ??_Gtype_info@@UEAAPEAXI@Z 0000000180046850 f i LIBCMT:std_type_info_static.obj
 0001:00045850       ??_Etype_info@@UEAAPEAXI@Z 0000000180046850 f i LIBCMT:std_type_info_static.obj
 0001:00045880       ??0length_error@std@@QEAA@AEBV01@@Z 0000000180046880 f i libcpmt:xthrow.obj
 0001:000458c0       ??0length_error@std@@QEAA@PEBD@Z 00000001800468c0 f i libcpmt:xthrow.obj
 0001:0004590c       ??0logic_error@std@@QEAA@AEBV01@@Z 000000018004690c f i libcpmt:xthrow.obj
 0001:0004594c       ?_Xlength_error@std@@YAXPEBD@Z 000000018004694c f   libcpmt:xthrow.obj
 0001:00045970       _purecall                  0000000180046970 f   libvcruntime:purevirt.obj
 0001:000459a0       __vcrt_initialize          00000001800469a0 f   libvcruntime:initialization.obj
 0001:000459d4       __vcrt_thread_attach       00000001800469d4 f   libvcruntime:initialization.obj
 0001:000459e8       __vcrt_thread_detach       00000001800469e8 f   libvcruntime:initialization.obj
 0001:000459fc       __vcrt_uninitialize        00000001800469fc f   libvcruntime:initialization.obj
 0001:00045a1c       __vcrt_uninitialize_critical 0000000180046a1c f   libvcruntime:initialization.obj
 0001:00045a2c       __C_specific_handler       0000000180046a2c f   libvcruntime:riscchandler.obj
 0001:00045c38       __std_exception_copy       0000000180046c38 f   libvcruntime:std_exception.obj
 0001:00045cc8       __std_exception_destroy    0000000180046cc8 f   libvcruntime:std_exception.obj
 0001:00045cf0       _CxxThrowException         0000000180046cf0 f   libvcruntime:throw.obj
 0001:00045dc0       memset_repmovs             0000000180046dc0 f   libvcruntime:memset.obj
 0001:00045de0       memset                     0000000180046de0 f   libvcruntime:memset.obj
 0001:00045f70       __std_type_info_destroy_list 0000000180046f70 f   libvcruntime:std_type_info.obj
 0001:00045f9c       __vcrt_initialize_pure_virtual_call_handler 0000000180046f9c f   libvcruntime:purevirt_data.obj
 0001:00045fac       __vcrt_freefls             0000000180046fac f   libvcruntime:per_thread_data.obj
 0001:00045fcc       __vcrt_freeptd             0000000180046fcc f   libvcruntime:per_thread_data.obj
 0001:0004601c       __vcrt_getptd_noexit       000000018004701c f   libvcruntime:per_thread_data.obj
 0001:000460e8       __vcrt_initialize_ptd      00000001800470e8 f   libvcruntime:per_thread_data.obj
 0001:0004613c       __vcrt_uninitialize_ptd    000000018004713c f   libvcruntime:per_thread_data.obj
 0001:00046160       __vcrt_initialize_locks    0000000180047160 f   libvcruntime:locks.obj
 0001:000461a8       __vcrt_uninitialize_locks  00000001800471a8 f   libvcruntime:locks.obj
 0001:000463b8       __vcrt_FlsAlloc            00000001800473b8 f   libvcruntime:winapi_downlevel.obj
 0001:00046400       __vcrt_FlsFree             0000000180047400 f   libvcruntime:winapi_downlevel.obj
 0001:00046448       __vcrt_FlsGetValue         0000000180047448 f   libvcruntime:winapi_downlevel.obj
 0001:00046490       __vcrt_FlsSetValue         0000000180047490 f   libvcruntime:winapi_downlevel.obj
 0001:000464e4       __vcrt_InitializeCriticalSectionEx 00000001800474e4 f   libvcruntime:winapi_downlevel.obj
 0001:00046548       __vcrt_initialize_winapi_thunks 0000000180047548 f   libvcruntime:winapi_downlevel.obj
 0001:00046578       __vcrt_uninitialize_winapi_thunks 0000000180047578 f   libvcruntime:winapi_downlevel.obj
 0001:000465d0       _NLG_Notify                00000001800475d0 f   libvcruntime:notify.obj
 0001:000465f0       __NLG_Dispatch2            00000001800475f0 f   libvcruntime:notify.obj
 0001:00046600       __NLG_Return2              0000000180047600 f   libvcruntime:notify.obj
 0001:00046604       __except_validate_context_record 0000000180047604 f   libvcruntime:jbcxrval.obj
 0001:0004663c       __DestructExceptionObject  000000018004763c f   libvcruntime:ehhelpers.obj
 0001:000466b0       ?_CallMemberFunction0@@YAXQEAX0@Z 00000001800476b0 f i libvcruntime:ehhelpers.obj
 0001:000466d0       memcpy_repmovs             00000001800476d0 f   libvcruntime:memcpy.obj
 0001:000466f0       memcpy                     00000001800476f0 f   libvcruntime:memcpy.obj
 0001:000466f0       memmove                    00000001800476f0 f   libvcruntime:memcpy.obj
 0001:00046b30       _CallSettingFrame          0000000180047b30 f   libvcruntime:handlers.obj
 0001:00046b80       _CallSettingFrameEncoded   0000000180047b80 f   libvcruntime:handlers.obj
 0001:00046bc8       malloc                     0000000180047bc8 f   libucrt:malloc.obj
 0001:00046bd0       free                       0000000180047bd0 f   libucrt:free.obj
 0001:00046be4       log2                       0000000180047be4 f   libucrt:log2.obj
 0001:00047624       ??$ftprintf@PEAU_iobuf@@PEB_WAEBQEB_WAEBQEB_WAEBI@?$__crt_char_traits@_W@@SAH$$QEAPEAU_iobuf@@$$QEAPEB_WAEBQEB_W2AEBI@Z 0000000180048624 f i libucrt:assert.obj
 0001:0004764c       _wassert                   000000018004864c f   libucrt:assert.obj
 0001:000476c0       fwprintf                   00000001800486c0 f i libucrt:assert.obj
 0001:00047704       swprintf                   0000000180048704 f i libucrt:assert.obj
 0001:000479c4       __acrt_initialize_thread_local_exit_callback 00000001800489c4 f   libucrt:exit.obj
 0001:000479cc       _cexit                     00000001800489cc f   libucrt:exit.obj
 0001:000479dc       _exit                      00000001800489dc f   libucrt:exit.obj
 0001:000479e8       _is_c_termination_complete 00000001800489e8 f   libucrt:exit.obj
 0001:000479f0       exit                       00000001800489f0 f   libucrt:exit.obj
 0001:000479fc       __acrt_call_reportfault    00000001800489fc f   libucrt:invalid_parameter.obj
 0001:00047b58       __acrt_initialize_invalid_parameter_handler 0000000180048b58 f   libucrt:invalid_parameter.obj
 0001:00047b60       _invalid_parameter         0000000180048b60 f   libucrt:invalid_parameter.obj
 0001:00047c10       _invalid_parameter_noinfo  0000000180048c10 f   libucrt:invalid_parameter.obj
 0001:00047c30       _invalid_parameter_noinfo_noreturn 0000000180048c30 f   libucrt:invalid_parameter.obj
 0001:00047c60       _invoke_watson             0000000180048c60 f   libucrt:invalid_parameter.obj
 0001:00047ca8       ??0_LocaleUpdate@@QEAA@QEAU__crt_locale_pointers@@@Z 0000000180048ca8 f i libucrt:stricmp.obj
 0001:00047d44       __ascii_stricmp            0000000180048d44 f   libucrt:stricmp.obj
 0001:00047d84       _stricmp                   0000000180048d84 f   libucrt:stricmp.obj
 0001:00047dcc       _stricmp_l                 0000000180048dcc f   libucrt:stricmp.obj
 0001:00047e80       __acrt_initialize_new_handler 0000000180048e80 f   libucrt:new_handler.obj
 0001:00047e88       _callnewh                  0000000180048e88 f   libucrt:new_handler.obj
 0001:00047eb8       _query_new_handler         0000000180048eb8 f   libucrt:new_handler.obj
 0001:00047eec       _seh_filter_dll            0000000180048eec f   libucrt:exception_filter.obj
 0001:00047f00       _seh_filter_exe            0000000180048f00 f   libucrt:exception_filter.obj
 0001:00048248       __acrt_allocate_buffer_for_argv 0000000180049248 f   libucrt:argv_parsing.obj
 0001:000482a8       _configure_narrow_argv     00000001800492a8 f   libucrt:argv_parsing.obj
 0001:00048620       __dcrt_uninitialize_environments_nolock 0000000180049620 f   libucrt:environment_initialization.obj
 0001:00048658       _initialize_narrow_environment 0000000180049658 f   libucrt:environment_initialization.obj
 0001:000489a0       _crt_atexit                00000001800499a0 f   libucrt:onexit.obj
 0001:000489b0       _execute_onexit_table      00000001800499b0 f   libucrt:onexit.obj
 0001:000489ec       _initialize_onexit_table   00000001800499ec f   libucrt:onexit.obj
 0001:00048a14       _register_onexit_function  0000000180049a14 f   libucrt:onexit.obj
 0001:00048a94       __acrt_uninitialize_command_line 0000000180049a94 f   libucrt:argv_data.obj
 0001:00048b8c       __acrt_initialize          0000000180049b8c f   libucrt:initialization.obj
 0001:00048ba0       __acrt_thread_attach       0000000180049ba0 f   libucrt:initialization.obj
 0001:00048bb4       __acrt_thread_detach       0000000180049bb4 f   libucrt:initialization.obj
 0001:00048bc4       __acrt_uninitialize        0000000180049bc4 f   libucrt:initialization.obj
 0001:00048bfc       __acrt_uninitialize_critical 0000000180049bfc f   libucrt:initialization.obj
 0001:00048c0c       _initterm                  0000000180049c0c f   libucrt:initterm.obj
 0001:00048c70       _initterm_e                0000000180049c70 f   libucrt:initterm.obj
 0001:00048cb0       terminate                  0000000180049cb0 f   libucrt:terminate.obj
 0001:00048cd0       abort                      0000000180049cd0 f   libucrt:abort.obj
 0001:00048d28       strcpy_s                   0000000180049d28 f   libucrt:strcpy_s.obj
 0001:00048d88       calloc                     0000000180049d88 f   libucrt:calloc.obj
 0001:00048d90       wcsncmp                    0000000180049d90 f   libucrt:wcsncmp.obj
 0001:00048fd0       ??$ensure_buffer_is_big_enough@D@formatting_buffer@__crt_stdio_output@@QEAA_N_K@Z 0000000180049fd0 f i libucrt:output.obj
 0001:00049078       ??$ensure_buffer_is_big_enough@_W@formatting_buffer@__crt_stdio_output@@QEAA_N_K@Z 000000018004a078 f i libucrt:output.obj
 0001:00049124       ??$is_wide_character_specifier@_W@__crt_stdio_output@@YA_N_K_WW4length_modifier@0@@Z 000000018004a124 f i libucrt:output.obj
 0001:00049164       ??$type_case_integer_parse_into_buffer@I@?$output_processor@_WV?$stream_output_adapter@_W@__crt_stdio_output@@V?$standard_base@_WV?$stream_output_adapter@_W@__crt_stdio_output@@@2@@__crt_stdio_output@@AEAAXII_N@Z 000000018004a164 f i libucrt:output.obj
 0001:00049164       ??$type_case_integer_parse_into_buffer@I@?$output_processor@_WV?$string_output_adapter@_W@__crt_stdio_output@@V?$standard_base@_WV?$string_output_adapter@_W@__crt_stdio_output@@@2@@__crt_stdio_output@@AEAAXII_N@Z 000000018004a164 f i libucrt:output.obj
 0001:00049208       ??$type_case_integer_parse_into_buffer@_K@?$output_processor@_WV?$string_output_adapter@_W@__crt_stdio_output@@V?$standard_base@_WV?$string_output_adapter@_W@__crt_stdio_output@@@2@@__crt_stdio_output@@AEAAX_KI_N@Z 000000018004a208 f i libucrt:output.obj
 0001:00049208       ??$type_case_integer_parse_into_buffer@_K@?$output_processor@_WV?$stream_output_adapter@_W@__crt_stdio_output@@V?$standard_base@_WV?$stream_output_adapter@_W@__crt_stdio_output@@@2@@__crt_stdio_output@@AEAAX_KI_N@Z 000000018004a208 f i libucrt:output.obj
 0001:000492ac       ??$write_multiple_characters@V?$stream_output_adapter@_W@__crt_stdio_output@@D@__crt_stdio_output@@YAXAEBV?$stream_output_adapter@_W@0@DHQEAH@Z 000000018004a2ac f i libucrt:output.obj
 0001:00049340       ??$write_multiple_characters@V?$string_output_adapter@_W@__crt_stdio_output@@D@__crt_stdio_output@@YAXAEBV?$string_output_adapter@_W@0@DHQEAH@Z 000000018004a340 f i libucrt:output.obj
 0001:000494f0       ?crop_zeroes@__crt_stdio_output@@YAXPEADQEAU__crt_locale_pointers@@@Z 000000018004a4f0 f i libucrt:output.obj
 0001:0004955c       ?force_decimal_point@__crt_stdio_output@@YAXPEADQEAU__crt_locale_pointers@@@Z 000000018004a55c f i libucrt:output.obj
 0001:000495cc       ?parse_int_from_format_string@?$output_processor@_WV?$string_output_adapter@_W@__crt_stdio_output@@V?$standard_base@_WV?$string_output_adapter@_W@__crt_stdio_output@@@2@@__crt_stdio_output@@AEAA_NQEAH@Z 000000018004a5cc f i libucrt:output.obj
 0001:000495cc       ?parse_int_from_format_string@?$output_processor@_WV?$stream_output_adapter@_W@__crt_stdio_output@@V?$standard_base@_WV?$stream_output_adapter@_W@__crt_stdio_output@@@2@@__crt_stdio_output@@AEAA_NQEAH@Z 000000018004a5cc f i libucrt:output.obj
 0001:00049670       ?process@?$output_processor@_WV?$stream_output_adapter@_W@__crt_stdio_output@@V?$standard_base@_WV?$stream_output_adapter@_W@__crt_stdio_output@@@2@@__crt_stdio_output@@QEAAHXZ 000000018004a670 f i libucrt:output.obj
 0001:000498dc       ?process@?$output_processor@_WV?$string_output_adapter@_W@__crt_stdio_output@@V?$standard_base@_WV?$string_output_adapter@_W@__crt_stdio_output@@@2@@__crt_stdio_output@@QEAAHXZ 000000018004a8dc f i libucrt:output.obj
 0001:00049b58       ?state_case_size@?$output_processor@_WV?$stream_output_adapter@_W@__crt_stdio_output@@V?$standard_base@_WV?$stream_output_adapter@_W@__crt_stdio_output@@@2@@__crt_stdio_output@@AEAA_NXZ 000000018004ab58 f i libucrt:output.obj
 0001:00049cf0       ?state_case_size@?$output_processor@_WV?$string_output_adapter@_W@__crt_stdio_output@@V?$standard_base@_WV?$string_output_adapter@_W@__crt_stdio_output@@@2@@__crt_stdio_output@@AEAA_NXZ 000000018004acf0 f i libucrt:output.obj
 0001:00049e88       ?state_case_type@?$output_processor@_WV?$stream_output_adapter@_W@__crt_stdio_output@@V?$standard_base@_WV?$stream_output_adapter@_W@__crt_stdio_output@@@2@@__crt_stdio_output@@AEAA_NXZ 000000018004ae88 f i libucrt:output.obj
 0001:0004a168       ?state_case_type@?$output_processor@_WV?$string_output_adapter@_W@__crt_stdio_output@@V?$standard_base@_WV?$string_output_adapter@_W@__crt_stdio_output@@@2@@__crt_stdio_output@@AEAA_NXZ 000000018004b168 f i libucrt:output.obj
 0001:0004a434       ?type_case_Z@?$output_processor@_WV?$stream_output_adapter@_W@__crt_stdio_output@@V?$standard_base@_WV?$stream_output_adapter@_W@__crt_stdio_output@@@2@@__crt_stdio_output@@AEAA_NXZ 000000018004b434 f i libucrt:output.obj
 0001:0004a434       ?type_case_Z@?$output_processor@_WV?$string_output_adapter@_W@__crt_stdio_output@@V?$standard_base@_WV?$string_output_adapter@_W@__crt_stdio_output@@@2@@__crt_stdio_output@@AEAA_NXZ 000000018004b434 f i libucrt:output.obj
 0001:0004a4b0       ?type_case_a@?$output_processor@_WV?$stream_output_adapter@_W@__crt_stdio_output@@V?$standard_base@_WV?$stream_output_adapter@_W@__crt_stdio_output@@@2@@__crt_stdio_output@@AEAA_NXZ 000000018004b4b0 f i libucrt:output.obj
 0001:0004a4b0       ?type_case_a@?$output_processor@_WV?$string_output_adapter@_W@__crt_stdio_output@@V?$standard_base@_WV?$string_output_adapter@_W@__crt_stdio_output@@@2@@__crt_stdio_output@@AEAA_NXZ 000000018004b4b0 f i libucrt:output.obj
 0001:0004a690       ?type_case_c_tchar@?$output_processor@_WV?$stream_output_adapter@_W@__crt_stdio_output@@V?$standard_base@_WV?$stream_output_adapter@_W@__crt_stdio_output@@@2@@__crt_stdio_output@@AEAA_N_W@Z 000000018004b690 f i libucrt:output.obj
 0001:0004a690       ?type_case_c_tchar@?$output_processor@_WV?$string_output_adapter@_W@__crt_stdio_output@@V?$standard_base@_WV?$string_output_adapter@_W@__crt_stdio_output@@@2@@__crt_stdio_output@@AEAA_N_W@Z 000000018004b690 f i libucrt:output.obj
 0001:0004a738       ?type_case_integer@?$output_processor@_WV?$string_output_adapter@_W@__crt_stdio_output@@V?$standard_base@_WV?$string_output_adapter@_W@__crt_stdio_output@@@2@@__crt_stdio_output@@AEAA_NI_N@Z 000000018004b738 f i libucrt:output.obj
 0001:0004a738       ?type_case_integer@?$output_processor@_WV?$stream_output_adapter@_W@__crt_stdio_output@@V?$standard_base@_WV?$stream_output_adapter@_W@__crt_stdio_output@@@2@@__crt_stdio_output@@AEAA_NI_N@Z 000000018004b738 f i libucrt:output.obj
 0001:0004a904       ?type_case_n@?$output_processor@_WV?$stream_output_adapter@_W@__crt_stdio_output@@V?$standard_base@_WV?$stream_output_adapter@_W@__crt_stdio_output@@@2@@__crt_stdio_output@@AEAA_NXZ 000000018004b904 f i libucrt:output.obj
 0001:0004a904       ?type_case_n@?$output_processor@_WV?$string_output_adapter@_W@__crt_stdio_output@@V?$standard_base@_WV?$string_output_adapter@_W@__crt_stdio_output@@@2@@__crt_stdio_output@@AEAA_NXZ 000000018004b904 f i libucrt:output.obj
 0001:0004a9e0       ?type_case_s@?$output_processor@_WV?$string_output_adapter@_W@__crt_stdio_output@@V?$standard_base@_WV?$string_output_adapter@_W@__crt_stdio_output@@@2@@__crt_stdio_output@@AEAA_NXZ 000000018004b9e0 f i libucrt:output.obj
 0001:0004a9e0       ?type_case_s@?$output_processor@_WV?$stream_output_adapter@_W@__crt_stdio_output@@V?$standard_base@_WV?$stream_output_adapter@_W@__crt_stdio_output@@@2@@__crt_stdio_output@@AEAA_NXZ 000000018004b9e0 f i libucrt:output.obj
 0001:0004aaa8       ?write_stored_string_tchar@?$output_processor@_WV?$stream_output_adapter@_W@__crt_stdio_output@@V?$standard_base@_WV?$stream_output_adapter@_W@__crt_stdio_output@@@2@@__crt_stdio_output@@AEAA_N_W@Z 000000018004baa8 f i libucrt:output.obj
 0001:0004abb0       ?write_stored_string_tchar@?$output_processor@_WV?$string_output_adapter@_W@__crt_stdio_output@@V?$standard_base@_WV?$string_output_adapter@_W@__crt_stdio_output@@@2@@__crt_stdio_output@@AEAA_N_W@Z 000000018004bbb0 f i libucrt:output.obj
 0001:0004ac9c       ?write_string@?$string_output_adapter@_W@__crt_stdio_output@@QEBAXQEB_WHQEAHAEAV__crt_deferred_errno_cache@@@Z 000000018004bc9c f i libucrt:output.obj
 0001:0004ad44       ?write_string_impl@?$output_adapter_common@_WV?$stream_output_adapter@_W@__crt_stdio_output@@@__crt_stdio_output@@IEBAXQEB_WHQEAHAEAV__crt_deferred_errno_cache@@@Z 000000018004bd44 f i libucrt:output.obj
 0001:0004ae48       __stdio_common_vfwprintf   000000018004be48 f   libucrt:output.obj
 0001:0004aed4       __stdio_common_vswprintf   000000018004bed4 f   libucrt:output.obj
 0001:0004aedc       ??$parse_integer@KV?$c_string_character_source@_W@__crt_strtox@@@__crt_strtox@@YAKQEAU__crt_locale_pointers@@V?$c_string_character_source@_W@0@H_N@Z 000000018004bedc f i libucrt:atox.obj
 0001:0004b5a0       strncmp                    000000018004c5a0 f   libucrt:strncmp.obj
 0001:0004b620       _malloc_base               000000018004c620 f   libucrt:malloc_base.obj
 0001:0004b680       _free_base                 000000018004c680 f   libucrt:free_base.obj
 0001:0004b7e4       _handle_error              000000018004c7e4 f   libucrt:libm_error.obj
 0001:0004b90c       _handle_nan                000000018004c90c f   libucrt:libm_error.obj
 0001:0004b928       _query_app_type            000000018004c928 f   libucrt:report_runtime_error.obj
 0001:0004b930       __acrt_errno_from_os_error 000000018004c930 f   libucrt:errno.obj
 0001:0004b978       __acrt_errno_map_os_error  000000018004c978 f   libucrt:errno.obj
 0001:0004b9c8       __doserrno                 000000018004c9c8 f   libucrt:errno.obj
 0001:0004b9e8       _errno                     000000018004c9e8 f   libucrt:errno.obj
 0001:0004bb48       _itow_s                    000000018004cb48 f   libucrt:xtoa.obj
 0001:0004bb68       _set_error_mode            000000018004cb68 f   libucrt:set_error_mode.obj
 0001:0004bba8       wcscat_s                   000000018004cba8 f   libucrt:wcscat_s.obj
 0001:0004bc28       wcscpy_s                   000000018004cc28 f   libucrt:wcscpy_s.obj
 0001:0004bc90       wcsncat_s                  000000018004cc90 f   libucrt:wcsncat_s.obj
 0001:0004bd90       ??$__acrt_wcs_to_mbs_cp@U__crt_win32_buffer_no_resizing@@@@YAHQEB_WAEAV?$__crt_win32_buffer@DU__crt_win32_buffer_no_resizing@@@@I@Z 000000018004cd90 f i libucrt:getmodulefilenamea.obj
 0001:0004bea4       __acrt_GetModuleFileNameA  000000018004cea4 f   libucrt:getmodulefilenamea.obj
 0001:0004bfc4       __acrt_show_wide_message_box 000000018004cfc4 f   libucrt:crtmbox.obj
 0001:0004c068       __acrt_initialize_stdio    000000018004d068 f   libucrt:_file.obj
 0001:0004c188       __acrt_iob_func            000000018004d188 f   libucrt:_file.obj
 0001:0004c19c       __acrt_uninitialize_stdio  000000018004d19c f   libucrt:_file.obj
 0001:0004c1f8       _lock_file                 000000018004d1f8 f   libucrt:_file.obj
 0001:0004c204       _unlock_file               000000018004d204 f   libucrt:_file.obj
 0001:0004c42c       __acrt_stdio_flush_nolock  000000018004d42c f   libucrt:fflush.obj
 0001:0004c4a8       _fflush_nolock             000000018004d4a8 f   libucrt:fflush.obj
 0001:0004c4f4       _flushall                  000000018004d4f4 f   libucrt:fflush.obj
 0001:0004c4fc       fflush                     000000018004d4fc f   libucrt:fflush.obj
 0001:0004c684       setvbuf                    000000018004d684 f   libucrt:setvbuf.obj
 0001:0004c768       __acrt_get_sigabrt_handler 000000018004d768 f   libucrt:signal.obj
 0001:0004c798       __acrt_initialize_signal_handlers 000000018004d798 f   libucrt:signal.obj
 0001:0004c7b8       raise                      000000018004d7b8 f   libucrt:signal.obj
 0001:0004ca24       __acrt_initialize_locks    000000018004da24 f   libucrt:locks.obj
 0001:0004ca6c       __acrt_lock                000000018004da6c f   libucrt:locks.obj
 0001:0004ca88       __acrt_uninitialize_locks  000000018004da88 f   libucrt:locks.obj
 0001:0004cac0       __acrt_unlock              000000018004dac0 f   libucrt:locks.obj
 0001:0004cadc       __acrt_get_developer_information_policy 000000018004dadc f   libucrt:win_policies.obj
 0001:0004cb30       __acrt_get_process_end_policy 000000018004db30 f   libucrt:win_policies.obj
 0001:0004cb6c       __acrt_get_windowing_model_policy 000000018004db6c f   libucrt:win_policies.obj
 0001:0004cf50       __acrt_freeptd             000000018004df50 f   libucrt:per_thread_data.obj
 0001:0004cf94       __acrt_getptd              000000018004df94 f   libucrt:per_thread_data.obj
 0001:0004d068       __acrt_getptd_head         000000018004e068 f   libucrt:per_thread_data.obj
 0001:0004d110       __acrt_getptd_noexit       000000018004e110 f   libucrt:per_thread_data.obj
 0001:0004d1dc       __acrt_initialize_ptd      000000018004e1dc f   libucrt:per_thread_data.obj
 0001:0004d218       __acrt_uninitialize_ptd    000000018004e218 f   libucrt:per_thread_data.obj
 0001:0004d29c       _tolower_l                 000000018004e29c f   libucrt:tolower_toupper.obj
 0001:0004d3dc       tolower                    000000018004e3dc f   libucrt:tolower_toupper.obj
 0001:0004d408       __acrt_update_locale_info  000000018004e408 f   libucrt:locale_update.obj
 0001:0004d43c       __acrt_update_multibyte_info 000000018004e43c f   libucrt:locale_update.obj
 0001:0004d4e0       __acrt_set_locale_changed  000000018004e4e0 f   libucrt:wsetlocale.obj
 0001:0004d4ec       __acrt_uninitialize_locale 000000018004e4ec f   libucrt:wsetlocale.obj
 0001:0004d51c       _calloc_base               000000018004e51c f   libucrt:calloc_base.obj
 0001:0004d5a8       ??$__acrt_mbs_to_wcs_cp@U__crt_win32_buffer_internal_dynamic_resizing@@@@YAHQEBDAEAV?$__crt_win32_buffer@_WU__crt_win32_buffer_internal_dynamic_resizing@@@@I@Z 000000018004e5a8 f i libucrt:argv_wildcards.obj
 0001:0004d720       ??$__acrt_wcs_to_mbs_cp@U__crt_win32_buffer_internal_dynamic_resizing@@@@YAHQEB_WAEAV?$__crt_win32_buffer@DU__crt_win32_buffer_internal_dynamic_resizing@@@@I@Z 000000018004e720 f i libucrt:argv_wildcards.obj
 0001:0004df50       __acrt_expand_narrow_argv_wildcards 000000018004ef50 f   libucrt:argv_wildcards.obj
 0001:0004e684       __acrt_initialize_multibyte 000000018004f684 f   libucrt:mbctype.obj
 0001:0004e6e4       __acrt_update_thread_multibyte_data 000000018004f6e4 f   libucrt:mbctype.obj
 0001:0004e700       _setmbcp_nolock            000000018004f700 f   libucrt:mbctype.obj
 0001:0004ea34       _ismbblead                 000000018004fa34 f   libucrt:ismbbyte.obj
 0001:0004ea48       __acrt_initialize_command_line 000000018004fa48 f   libucrt:argv_data.obj
 0001:0004ea70       __acrt_MultiByteToWideChar 000000018004fa70 f   libucrt:multibytetowidechar.obj
 0001:0004eacc       __acrt_WideCharToMultiByte 000000018004facc f   libucrt:widechartomultibyte.obj
 0001:0004eb64       __dcrt_get_narrow_environment_from_os 000000018004fb64 f   libucrt:get_environment_from_os.obj
 0001:0004ec68       _recalloc_base             000000018004fc68 f   libucrt:recalloc.obj
 0001:0004eed8       __acrt_AppPolicyGetProcessTerminationMethodInternal 000000018004fed8 f   libucrt:winapi_thunks.obj
 0001:0004ef28       __acrt_AppPolicyGetShowDeveloperDiagnosticInternal 000000018004ff28 f   libucrt:winapi_thunks.obj
 0001:0004ef78       __acrt_AppPolicyGetWindowingModelInternal 000000018004ff78 f   libucrt:winapi_thunks.obj
 0001:0004efc8       __acrt_AreFileApisANSI     000000018004ffc8 f   libucrt:winapi_thunks.obj
 0001:0004f004       __acrt_FlsAlloc            0000000180050004 f   libucrt:winapi_thunks.obj
 0001:0004f04c       __acrt_FlsFree             000000018005004c f   libucrt:winapi_thunks.obj
 0001:0004f094       __acrt_FlsGetValue         0000000180050094 f   libucrt:winapi_thunks.obj
 0001:0004f0dc       __acrt_FlsSetValue         00000001800500dc f   libucrt:winapi_thunks.obj
 0001:0004f130       __acrt_InitializeCriticalSectionEx 0000000180050130 f   libucrt:winapi_thunks.obj
 0001:0004f194       __acrt_LCMapStringEx       0000000180050194 f   libucrt:winapi_thunks.obj
 0001:0004f270       __acrt_LocaleNameToLCID    0000000180050270 f   libucrt:winapi_thunks.obj
 0001:0004f2c0       __acrt_MessageBoxW         00000001800502c0 f   libucrt:winapi_thunks.obj
 0001:0004f334       __acrt_can_show_message_box 0000000180050334 f   libucrt:winapi_thunks.obj
 0001:0004f3a4       __acrt_get_parent_window   00000001800503a4 f   libucrt:winapi_thunks.obj
 0001:0004f41c       __acrt_initialize_winapi_thunks 000000018005041c f   libucrt:winapi_thunks.obj
 0001:0004f450       __acrt_is_interactive      0000000180050450 f   libucrt:winapi_thunks.obj
 0001:0004f518       __acrt_uninitialize_winapi_thunks 0000000180050518 f   libucrt:winapi_thunks.obj
 0001:0004f55c       __acrt_initialize_heap     000000018005055c f   libucrt:heap_handle.obj
 0001:0004f578       __acrt_uninitialize_heap   0000000180050578 f   libucrt:heap_handle.obj
 0001:0004f780       __acrt_initialize_lowio    0000000180050780 f   libucrt:ioinit.obj
 0001:0004f7bc       __acrt_uninitialize_lowio  00000001800507bc f   libucrt:ioinit.obj
 0001:0004f7fc       __acrt_execute_initializers 00000001800507fc f   libucrt:shared_initialization.obj
 0001:0004f87c       __acrt_execute_uninitializers 000000018005087c f   libucrt:shared_initialization.obj
 0001:0004f8b8       __acrt_has_user_matherr    00000001800508b8 f   libucrt:matherr.obj
 0001:0004f8d8       __acrt_initialize_user_matherr 00000001800508d8 f   libucrt:matherr.obj
 0001:0004f8e0       __acrt_invoke_user_matherr 00000001800508e0 f   libucrt:matherr.obj
 0001:0004f910       __acrt_stdio_begin_temporary_buffering_nolock 0000000180050910 f   libucrt:_sftbuf.obj
 0001:0004f9e0       __acrt_stdio_end_temporary_buffering_nolock 00000001800509e0 f   libucrt:_sftbuf.obj
 0001:0004fa1c       isdigit                    0000000180050a1c f i libucrt:_ctype.obj
 0001:0004fab0       wcstol                     0000000180050ab0 f   libucrt:strtox.obj
 0001:0004fadc       _mbtowc_l                  0000000180050adc f   libucrt:mbtowc.obj
 0001:0004fc58       mbtowc                     0000000180050c58 f   libucrt:mbtowc.obj
 0001:0004fc60       _wctomb_s_l                0000000180050c60 f   libucrt:wctomb.obj
 0001:0004fe00       wctomb_s                   0000000180050e00 f   libucrt:wctomb.obj
 0001:0004fe14       wcsnlen                    0000000180050e14 f   libucrt:strnlen.obj
 0001:000509c0       __acrt_fp_format           00000001800519c0 f   libucrt:cvt.obj
 0001:00050c48       _fputwc_nolock             0000000180051c48 f   libucrt:fputwc.obj
 0001:00050dc4       _fileno                    0000000180051dc4 f   libucrt:fileno.obj
 0001:00050dec       _fputc_nolock              0000000180051dec f   libucrt:fputc.obj
 0001:00050e04       _get_printf_count_output   0000000180051e04 f   libucrt:printf_count_output.obj
 0001:00050e1c       __pctype_func              0000000180051e1c f   libucrt:ctype.obj
 0001:00050e4c       iswctype                   0000000180051e4c f   libucrt:iswctype.obj
 0001:00050ebc       _isctype_l                 0000000180051ebc f   libucrt:isctype.obj
 0001:00050fcc       _query_new_mode            0000000180051fcc f   libucrt:new_mode.obj
 0001:00050fd4       _raise_exc                 0000000180051fd4 f   libucrt:fpexcept.obj
 0001:00050ffc       _raise_exc_ex              0000000180051ffc f   libucrt:fpexcept.obj
 0001:0005130c       _set_errno_from_matherr    000000018005230c f   libucrt:fpexcept.obj
 0001:0005133c       _clrfp                     000000018005233c f   libucrt:fpctrl.obj
 0001:0005135c       _ctrlfp                    000000018005235c f   libucrt:fpctrl.obj
 0001:000513d8       _set_statfp                00000001800523d8 f   libucrt:fpctrl.obj
 0001:000513f8       _statfp                    00000001800523f8 f   libucrt:fpctrl.obj
 0001:0005140c       _fcloseall                 000000018005240c f   libucrt:closeall.obj
 0001:000514c0       __acrt_stdio_free_buffer_nolock 00000001800524c0 f   libucrt:_freebuf.obj
 0001:0005158c       _commit                    000000018005258c f   libucrt:commit.obj
 0001:00051e8c       _write                     0000000180052e8c f   libucrt:write.obj
 0001:00051f78       _write_nolock              0000000180052f78 f   libucrt:write.obj
 0001:00052254       __acrt_add_locale_ref      0000000180053254 f   libucrt:locale_refcounting.obj
 0001:000522e0       __acrt_free_locale         00000001800532e0 f   libucrt:locale_refcounting.obj
 0001:00052458       __acrt_locale_add_lc_time_reference 0000000180053458 f   libucrt:locale_refcounting.obj
 0001:00052480       __acrt_locale_free_lc_time_if_unreferenced 0000000180053480 f   libucrt:locale_refcounting.obj
 0001:000524b8       __acrt_locale_release_lc_time_reference 00000001800534b8 f   libucrt:locale_refcounting.obj
 0001:000524e0       __acrt_release_locale_ref  00000001800534e0 f   libucrt:locale_refcounting.obj
 0001:00052588       __acrt_update_thread_locale_data 0000000180053588 f   libucrt:locale_refcounting.obj
 0001:000525f8       _updatetlocinfoEx_nolock   00000001800535f8 f   libucrt:locale_refcounting.obj
 0001:00052660       _isleadbyte_l              0000000180053660 f i libucrt:_wctype.obj
 0001:000529c4       __acrt_LCMapStringA        00000001800539c4 f   libucrt:lcmapstringa.obj
 0001:00052a5c       __acrt_locale_free_monetary 0000000180053a5c f   libucrt:initmon.obj
 0001:00052b68       __acrt_locale_free_numeric 0000000180053b68 f   libucrt:initnum.obj
 0001:00052c2c       __acrt_locale_free_time    0000000180053c2c f   libucrt:inittime.obj
 0001:00052d34       __acrt_GetStringTypeA      0000000180053d34 f   libucrt:getstringtypea.obj
 0001:00052ed0       qsort                      0000000180053ed0 f   libucrt:qsort.obj
 0001:00053290       strncpy_s                  0000000180054290 f   libucrt:strncpy_s.obj
 0001:00053410       strpbrk                    0000000180054410 f   libucrt:strpbrk.obj
 0001:000537f0       _mbsdec                    00000001800547f0 f   libucrt:mbsdec.obj
 0001:000537f8       _mbsdec_l                  00000001800547f8 f   libucrt:mbsdec.obj
 0001:000538a4       _msize_base                00000001800548a4 f   libucrt:msize.obj
 0001:000538e0       _realloc_base              00000001800548e0 f   libucrt:realloc_base.obj
 0001:00053a44       __acrt_DownlevelLocaleNameToLCID 0000000180054a44 f   libucrt:lcidtoname_downlevel.obj
 0001:00053a78       __acrt_lowio_create_handle_array 0000000180054a78 f   libucrt:osfinfo.obj
 0001:00053b20       __acrt_lowio_destroy_handle_array 0000000180054b20 f   libucrt:osfinfo.obj
 0001:00053b70       __acrt_lowio_ensure_fh_exists 0000000180054b70 f   libucrt:osfinfo.obj
 0001:00053c18       __acrt_lowio_lock_fh       0000000180054c18 f   libucrt:osfinfo.obj
 0001:00053c40       __acrt_lowio_unlock_fh     0000000180054c40 f   libucrt:osfinfo.obj
 0001:00053c68       _free_osfhnd               0000000180054c68 f   libucrt:osfinfo.obj
 0001:00053d24       _get_osfhandle             0000000180054d24 f   libucrt:osfinfo.obj
 0001:00053d9c       _isatty                    0000000180054d9c f   libucrt:isatty.obj
 0001:00053dfc       ?__mbrtowc_utf8@__crt_mbstring@@YA_KPEA_WPEBD_KPEAU_Mbstatet@@@Z 0000000180054dfc f   libucrt:mbrtowc.obj
 0001:00053e38       ?__mbsrtowcs_utf8@__crt_mbstring@@YA_KPEA_WPEAPEBD_KPEAU_Mbstatet@@@Z 0000000180054e38 f   libucrt:mbrtowc.obj
 0001:00053fb0       ?__c32rtomb_utf8@__crt_mbstring@@YA_KPEAD_UPEAU_Mbstatet@@@Z 0000000180054fb0 f   libucrt:c32rtomb.obj
 0001:00054068       __acrt_fp_strflt_to_string 0000000180055068 f   libucrt:_fptostr.obj
 0001:00054150       ?divide@__crt_strtox@@YA_KAEAUbig_integer@1@AEBU21@@Z 0000000180055150 f i libucrt:cfout.obj
 0001:0005457c       __acrt_fltout              000000018005557c f   libucrt:cfout.obj
 0001:00055a7c       __acrt_stdio_flush_and_write_narrow_nolock 0000000180056a7c f   libucrt:_flsbuf.obj
 0001:00055b68       __acrt_stdio_flush_and_write_wide_nolock 0000000180056b68 f   libucrt:_flsbuf.obj
 0001:00055c54       __acrt_GetStringTypeW      0000000180056c54 f   libucrt:getstringtypew.obj
 0001:00055c70       _get_fpsr                  0000000180056c70 f   libucrt:fpsr.obj
 0001:00055c80       _set_fpsr                  0000000180056c80 f   libucrt:fpsr.obj
 0001:00055c8a       _fclrf                     0000000180056c8a f   libucrt:fpsr.obj
 0001:00055c9e       _frnd                      0000000180056c9e f   libucrt:fpsr.obj
 0001:00055cc0       _fclose_nolock             0000000180056cc0 f   libucrt:fclose.obj
 0001:00055d44       fclose                     0000000180056d44 f   libucrt:fclose.obj
 0001:00055f34       _lseeki64                  0000000180056f34 f   libucrt:lseek.obj
 0001:00055f3c       _lseeki64_nolock           0000000180056f3c f   libucrt:lseek.obj
 0001:00055f44       _putwch_nolock             0000000180056f44 f   libucrt:putwch.obj
 0001:00055f80       __strncnt                  0000000180056f80 f   libucrt:strncnt.obj
 0001:00055f98       ?__mbrtoc32_utf8@__crt_mbstring@@YA_KPEA_UPEBD_KPEAU_Mbstatet@@@Z 0000000180056f98 f   libucrt:mbrtoc32.obj
 0001:00056174       fegetenv                   0000000180057174 f   libucrt:fegetenv.obj
 0001:00056194       fesetenv                   0000000180057194 f   libucrt:fesetenv.obj
 0001:000561e4       feholdexcept               00000001800571e4 f   libucrt:feholdexcept.obj
 0001:00056234       ceil                       0000000180057234 f   libucrt:ceil.obj
 0001:00056300       log10                      0000000180057300 f   libucrt:log10.obj
 0001:000568ac       __acrt_stdio_allocate_buffer_nolock 00000001800578ac f   libucrt:_getbuf.obj
 0001:00056988       _close                     0000000180057988 f   libucrt:close.obj
 0001:00056a2c       _close_nolock              0000000180057a2c f   libucrt:close.obj
 0001:00056aec       ?__acrt_stdio_free_stream@@YAXV__crt_stdio_stream@@@Z 0000000180057aec f   libucrt:stream.obj
 0001:00056b08       __dcrt_lowio_ensure_console_output_initialized 0000000180057b08 f   libucrt:initcon.obj
 0001:00056b5c       __dcrt_terminate_console_output 0000000180057b5c f   libucrt:initcon.obj
 0001:00056b78       __dcrt_write_console       0000000180057b78 f   libucrt:initcon.obj
 0001:00056c38       __acrt_fenv_get_control    0000000180057c38 f   libucrt:_fenvutils.obj
 0001:00056d2c       __acrt_fenv_get_status     0000000180057d2c f   libucrt:_fenvutils.obj
 0001:00056d80       __acrt_fenv_set_control    0000000180057d80 f   libucrt:_fenvutils.obj
 0001:00056ec8       __acrt_fenv_set_status     0000000180057ec8 f   libucrt:_fenvutils.obj
 0001:00056f4c       _clearfp                   0000000180057f4c f   libucrt:ieee.obj
 0001:00056fc0       __acrt_initialize_fma3     0000000180057fc0 f   libucrt:fma3_available.obj
 0001:00057030       _log10_special             0000000180058030 f   libucrt:log_special.obj
 0001:000570e6       IsProcessorFeaturePresent  00000001800580e6 f   kernel32:KERNEL32.dll
 0001:000570ec       ?DloadAcquireSectionWriteAccess@@YAXXZ 00000001800580ec f i DelayImp:delayhlp.obj
 0001:00057198       ?DloadGetSRWLockFunctionPointers@@YAEXZ 0000000180058198 f i DelayImp:delayhlp.obj
 0001:00057234       ?DloadMakePermanentImageCommit@@YAXPEAX_K@Z 0000000180058234 f i DelayImp:delayhlp.obj
 0001:000572cc       ?DloadObtainSection@@YAPEAXPEAK0@Z 00000001800582cc f i DelayImp:delayhlp.obj
 0001:00057368       ?DloadProtectSection@@YAXKPEAK@Z 0000000180058368 f i DelayImp:delayhlp.obj
 0001:000573f8       ?DloadReleaseSectionWriteAccess@@YAXXZ 00000001800583f8 f i DelayImp:delayhlp.obj
 0001:0005748c       __delayLoadHelper2         000000018005848c f   DelayImp:delayhlp.obj
 0001:00057750       _FindPESection             0000000180058750 f   LIBCMT:pesect.obj
 0001:000577a0       _IsNonwritableInCurrentImage 00000001800587a0 f   LIBCMT:pesect.obj
 0001:000577f0       _ValidateImageBase         00000001800587f0 f   LIBCMT:pesect.obj
 0001:00057820       __GSHandlerCheck           0000000180058820 f   LIBCMT:gshandler.obj
 0001:00057840       __GSHandlerCheckCommon     0000000180058840 f   LIBCMT:gshandler.obj
 0001:000578b0       __chkstk                   00000001800588b0 f   LIBCMT:chkstk.obj
 0001:000578b0       _alloca_probe              00000001800588b0 f   LIBCMT:chkstk.obj
 0001:00057920       memcmp                     0000000180058920 f   libvcruntime:memcmp.obj
 0001:000579e8       strrchr                    00000001800589e8 f   libvcruntime:strrchr.obj
 0001:00057b50       _guard_dispatch_icall_nop  0000000180058b50 f   LIBCMT:guard_dispatch.obj
 0002:00000000       __imp_GetModuleHandleA     0000000180059000     kernel32:KERNEL32.dll
 0002:00000008       __imp_LoadLibraryExA       0000000180059008     kernel32:KERNEL32.dll
 0002:00000010       __imp_RtlCaptureContext    0000000180059010     kernel32:KERNEL32.dll
 0002:00000018       __imp_RtlLookupFunctionEntry 0000000180059018     kernel32:KERNEL32.dll
 0002:00000020       __imp_RtlVirtualUnwind     0000000180059020     kernel32:KERNEL32.dll
 0002:00000028       __imp_UnhandledExceptionFilter 0000000180059028     kernel32:KERNEL32.dll
 0002:00000030       __imp_SetUnhandledExceptionFilter 0000000180059030     kernel32:KERNEL32.dll
 0002:00000038       __imp_GetCurrentProcess    0000000180059038     kernel32:KERNEL32.dll
 0002:00000040       __imp_TerminateProcess     0000000180059040     kernel32:KERNEL32.dll
 0002:00000048       __imp_IsProcessorFeaturePresent 0000000180059048     kernel32:KERNEL32.dll
 0002:00000050       __imp_IsDebuggerPresent    0000000180059050     kernel32:KERNEL32.dll
 0002:00000058       __imp_GetStartupInfoW      0000000180059058     kernel32:KERNEL32.dll
 0002:00000060       __imp_GetModuleHandleW     0000000180059060     kernel32:KERNEL32.dll
 0002:00000068       __imp_QueryPerformanceCounter 0000000180059068     kernel32:KERNEL32.dll
 0002:00000070       __imp_GetCurrentProcessId  0000000180059070     kernel32:KERNEL32.dll
 0002:00000078       __imp_GetCurrentThreadId   0000000180059078     kernel32:KERNEL32.dll
 0002:00000080       __imp_GetSystemTimeAsFileTime 0000000180059080     kernel32:KERNEL32.dll
 0002:00000088       __imp_InitializeSListHead  0000000180059088     kernel32:KERNEL32.dll
 0002:00000090       __imp_RtlUnwindEx          0000000180059090     kernel32:KERNEL32.dll
 0002:00000098       __imp_RtlPcToFileHeader    0000000180059098     kernel32:KERNEL32.dll
 0002:000000a0       __imp_RaiseException       00000001800590a0     kernel32:KERNEL32.dll
 0002:000000a8       __imp_InterlockedFlushSList 00000001800590a8     kernel32:KERNEL32.dll
 0002:000000b0       __imp_GetLastError         00000001800590b0     kernel32:KERNEL32.dll
 0002:000000b8       __imp_SetLastError         00000001800590b8     kernel32:KERNEL32.dll
 0002:000000c0       __imp_EnterCriticalSection 00000001800590c0     kernel32:KERNEL32.dll
 0002:000000c8       __imp_LeaveCriticalSection 00000001800590c8     kernel32:KERNEL32.dll
 0002:000000d0       __imp_DeleteCriticalSection 00000001800590d0     kernel32:KERNEL32.dll
 0002:000000d8       __imp_InitializeCriticalSectionAndSpinCount 00000001800590d8     kernel32:KERNEL32.dll
 0002:000000e0       __imp_TlsAlloc             00000001800590e0     kernel32:KERNEL32.dll
 0002:000000e8       __imp_TlsGetValue          00000001800590e8     kernel32:KERNEL32.dll
 0002:000000f0       __imp_TlsSetValue          00000001800590f0     kernel32:KERNEL32.dll
 0002:000000f8       __imp_TlsFree              00000001800590f8     kernel32:KERNEL32.dll
 0002:00000100       __imp_FreeLibrary          0000000180059100     kernel32:KERNEL32.dll
 0002:00000108       __imp_GetProcAddress       0000000180059108     kernel32:KERNEL32.dll
 0002:00000110       __imp_LoadLibraryExW       0000000180059110     kernel32:KERNEL32.dll
 0002:00000118       __imp_GetStdHandle         0000000180059118     kernel32:KERNEL32.dll
 0002:00000120       __imp_GetFileType          0000000180059120     kernel32:KERNEL32.dll
 0002:00000128       __imp_GetModuleFileNameW   0000000180059128     kernel32:KERNEL32.dll
 0002:00000130       __imp_GetModuleHandleExW   0000000180059130     kernel32:KERNEL32.dll
 0002:00000138       __imp_WriteConsoleW        0000000180059138     kernel32:KERNEL32.dll
 0002:00000140       __imp_ExitProcess          0000000180059140     kernel32:KERNEL32.dll
 0002:00000148       __imp_HeapAlloc            0000000180059148     kernel32:KERNEL32.dll
 0002:00000150       __imp_HeapFree             0000000180059150     kernel32:KERNEL32.dll
 0002:00000158       __imp_WriteFile            0000000180059158     kernel32:KERNEL32.dll
 0002:00000160       __imp_OutputDebugStringW   0000000180059160     kernel32:KERNEL32.dll
 0002:00000168       __imp_FindClose            0000000180059168     kernel32:KERNEL32.dll
 0002:00000170       __imp_FindFirstFileExW     0000000180059170     kernel32:KERNEL32.dll
 0002:00000178       __imp_FindNextFileW        0000000180059178     kernel32:KERNEL32.dll
 0002:00000180       __imp_IsValidCodePage      0000000180059180     kernel32:KERNEL32.dll
 0002:00000188       __imp_GetACP               0000000180059188     kernel32:KERNEL32.dll
 0002:00000190       __imp_GetOEMCP             0000000180059190     kernel32:KERNEL32.dll
 0002:00000198       __imp_GetCPInfo            0000000180059198     kernel32:KERNEL32.dll
 0002:000001a0       __imp_GetCommandLineA      00000001800591a0     kernel32:KERNEL32.dll
 0002:000001a8       __imp_GetCommandLineW      00000001800591a8     kernel32:KERNEL32.dll
 0002:000001b0       __imp_MultiByteToWideChar  00000001800591b0     kernel32:KERNEL32.dll
 0002:000001b8       __imp_WideCharToMultiByte  00000001800591b8     kernel32:KERNEL32.dll
 0002:000001c0       __imp_GetEnvironmentStringsW 00000001800591c0     kernel32:KERNEL32.dll
 0002:000001c8       __imp_FreeEnvironmentStringsW 00000001800591c8     kernel32:KERNEL32.dll
 0002:000001d0       __imp_LCMapStringW         00000001800591d0     kernel32:KERNEL32.dll
 0002:000001d8       __imp_GetProcessHeap       00000001800591d8     kernel32:KERNEL32.dll
 0002:000001e0       __imp_FlushFileBuffers     00000001800591e0     kernel32:KERNEL32.dll
 0002:000001e8       __imp_GetConsoleCP         00000001800591e8     kernel32:KERNEL32.dll
 0002:000001f0       __imp_GetConsoleMode       00000001800591f0     kernel32:KERNEL32.dll
 0002:000001f8       __imp_GetStringTypeW       00000001800591f8     kernel32:KERNEL32.dll
 0002:00000200       __imp_HeapSize             0000000180059200     kernel32:KERNEL32.dll
 0002:00000208       __imp_HeapReAlloc          0000000180059208     kernel32:KERNEL32.dll
 0002:00000210       __imp_SetStdHandle         0000000180059210     kernel32:KERNEL32.dll
 0002:00000218       __imp_GetFileSizeEx        0000000180059218     kernel32:KERNEL32.dll
 0002:00000220       __imp_SetFilePointerEx     0000000180059220     kernel32:KERNEL32.dll
 0002:00000228       __imp_CloseHandle          0000000180059228     kernel32:KERNEL32.dll
 0002:00000230       __imp_CreateFileW          0000000180059230     kernel32:KERNEL32.dll
 0002:00000238       __imp_GetSystemInfo        0000000180059238     kernel32:KERNEL32.dll
 0002:00000240       __imp_VirtualProtect       0000000180059240     kernel32:KERNEL32.dll
 0002:00000248       __imp_VirtualQuery         0000000180059248     kernel32:KERNEL32.dll
 0002:00000250       \177KERNEL32_NULL_THUNK_DATA 0000000180059250     kernel32:KERNEL32.dll
 0002:00000258       __guard_check_icall_fptr   0000000180059258     LIBCMT:guard_support.obj
 0002:00000260       __guard_dispatch_icall_fptr 0000000180059260     LIBCMT:guard_support.obj
 0002:00000268       __xc_a                     0000000180059268     LIBCMT:initializers.obj
 0002:00000280       _register_iltorb_          0000000180059280     iltorb.obj
 0002:00000288       __xc_z                     0000000180059288     LIBCMT:initializers.obj
 0002:00000290       __xi_a                     0000000180059290     LIBCMT:initializers.obj
 0002:00000298       __acrt_stdio_initializer   0000000180059298     libucrt:stdio_initializer.obj
 0002:000002a0       __acrt_multibyte_initializer 00000001800592a0     libucrt:multibyte_initializer.obj
 0002:000002a8       __acrt_tran_fma3_initializer 00000001800592a8     libucrt:fma3_initializer.obj
 0002:000002b0       __xi_z                     00000001800592b0     LIBCMT:initializers.obj
 0002:000002b8       __xp_a                     00000001800592b8     LIBCMT:initializers.obj
 0002:000002c0       __acrt_locale_terminator   00000001800592c0     libucrt:locale_initializer.obj
 0002:000002c8       __dcrt_console_output_terminator 00000001800592c8     libucrt:console_output_initializer.obj
 0002:000002d0       __acrt_stdio_terminator    00000001800592d0     libucrt:stdio_initializer.obj
 0002:000002d8       __xp_z                     00000001800592d8     LIBCMT:initializers.obj
 0002:000002e0       __xt_a                     00000001800592e0     LIBCMT:initializers.obj
 0002:000002e8       __xt_z                     00000001800592e8     LIBCMT:initializers.obj
 0002:000002f0       __sz_node_exe              00000001800592f0     node:node.exe
 0002:00000310       _pDefaultRawDllMain        0000000180059310     LIBCMT:dll_dllmain.obj
 0002:00000310       _pRawDllMain               0000000180059310     LIBCMT:dll_dllmain.obj
 0002:00000320       ??_7exception@std@@6B@     0000000180059320     LIBCMT:throw_bad_alloc.obj
 0002:00000330       ??_C@_0BC@EOODALEL@Unknown?5exception@ 0000000180059330     LIBCMT:throw_bad_alloc.obj
 0002:00000350       ??_7bad_alloc@std@@6B@     0000000180059350     LIBCMT:throw_bad_alloc.obj
 0002:00000360       ??_C@_0P@GHFPNOJB@bad?5allocation@ 0000000180059360     LIBCMT:throw_bad_alloc.obj
 0002:00000378       ??_7bad_array_new_length@std@@6B@ 0000000180059378     LIBCMT:throw_bad_alloc.obj
 0002:00000388       ??_C@_0BF@KINCDENJ@bad?5array?5new?5length@ 0000000180059388     LIBCMT:throw_bad_alloc.obj
 0002:000003a8       ??_7type_info@@6B@         00000001800593a8     LIBCMT:std_type_info_static.obj
 0002:000003b8       ??_7logic_error@std@@6B@   00000001800593b8     libcpmt:xthrow.obj
 0002:000003d0       ??_7length_error@std@@6B@  00000001800593d0     libcpmt:xthrow.obj
 0002:00000438       ??_C@_1DM@KHCHBNEB@?$AAa?$AAp?$AAi?$AA?9?$AAm?$AAs?$AA?9?$AAw?$AAi?$AAn?$AA?9?$AAc?$AAo?$AAr?$AAe@ 0000000180059438     libvcruntime:winapi_downlevel.obj
 0002:00000478       ??_C@_1DK@LPPGFMPP@?$AAa?$AAp?$AAi?$AA?9?$AAm?$AAs?$AA?9?$AAw?$AAi?$AAn?$AA?9?$AAc?$AAo?$AAr?$AAe@ 0000000180059478     libvcruntime:winapi_downlevel.obj
 0002:000004b8       ??_C@_1BC@GDMECMAK@?$AAk?$AAe?$AAr?$AAn?$AAe?$AAl?$AA3?$AA2@ 00000001800594b8     libvcruntime:winapi_downlevel.obj
 0002:000004d0       ??_C@_1BA@PFFKHIOG@?$AAa?$AAp?$AAi?$AA?9?$AAm?$AAs?$AA?9@ 00000001800594d0     libvcruntime:winapi_downlevel.obj
 0002:000004e0       ??_C@_1BA@IAIFMGEF@?$AAe?$AAx?$AAt?$AA?9?$AAm?$AAs?$AA?9@ 00000001800594e0     libvcruntime:winapi_downlevel.obj
 0002:000004f8       ??_C@_08KNHFBNJ@FlsAlloc@  00000001800594f8     libvcruntime:winapi_downlevel.obj
 0002:00000510       ??_C@_07PEJMOBNF@FlsFree@  0000000180059510     libvcruntime:winapi_downlevel.obj
 0002:00000520       ??_C@_0M@GDNOONDI@FlsGetValue@ 0000000180059520     libvcruntime:winapi_downlevel.obj
 0002:00000538       ??_C@_0M@JCPCPOEF@FlsSetValue@ 0000000180059538     libvcruntime:winapi_downlevel.obj
 0002:00000550       ??_C@_0BM@HCFOFFN@InitializeCriticalSectionEx@ 0000000180059550     libvcruntime:winapi_downlevel.obj
 0002:00000570       _pDestructExceptionObject  0000000180059570     libvcruntime:ehhelpers.obj
 0002:000008b8       ??_C@_08EHJDFFNH@__based?$CI@ 00000001800598b8     libvcruntime:undname.obj
 0002:000008c8       ??_C@_07KOLFKCDI@__cdecl@  00000001800598c8     libvcruntime:undname.obj
 0002:000008d0       ??_C@_08GHMPAG@__pascal@   00000001800598d0     libvcruntime:undname.obj
 0002:000008e0       ??_C@_09IFJBGAPI@__stdcall@ 00000001800598e0     libvcruntime:undname.obj
 0002:000008f0       ??_C@_0L@NPHFGOKO@__thiscall@ 00000001800598f0     libvcruntime:undname.obj
 0002:00000900       ??_C@_0L@JMKHOMEK@__fastcall@ 0000000180059900     libvcruntime:undname.obj
 0002:00000910       ??_C@_0N@BCKKPABJ@__vectorcall@ 0000000180059910     libvcruntime:undname.obj
 0002:00000920       ??_C@_09HIJEGCPM@__clrcall@ 0000000180059920     libvcruntime:undname.obj
 0002:0000092c       ??_C@_06GHPCKEAG@__eabi@   000000018005992c     libvcruntime:undname.obj
 0002:00000938       ??_C@_09IOPIDJLG@__swift_1@ 0000000180059938     libvcruntime:undname.obj
 0002:00000948       ??_C@_09KFNFGKHF@__swift_2@ 0000000180059948     libvcruntime:undname.obj
 0002:00000958       ??_C@_07JOMMBBKO@__ptr64@  0000000180059958     libvcruntime:undname.obj
 0002:00000960       ??_C@_0L@PILCLIHE@__restrict@ 0000000180059960     libvcruntime:undname.obj
 0002:00000970       ??_C@_0M@GFIIJFMG@__unaligned@ 0000000180059970     libvcruntime:undname.obj
 0002:00000980       ??_C@_09DHDLOLLB@restrict?$CI@ 0000000180059980     libvcruntime:undname.obj
 0002:0000098a       ??_C@_00CNPNBAHC@@         000000018005998a     libvcruntime:undname.obj
 0002:0000098c       ??_C@_04NIHEBCM@?5new@     000000018005998c     libvcruntime:undname.obj
 0002:00000998       ??_C@_07FPCDHGMM@?5delete@ 0000000180059998     libvcruntime:undname.obj
 0002:000009a0       ??_C@_01NEMOKFLO@?$DN@     00000001800599a0     libvcruntime:undname.obj
 0002:000009a4       ??_C@_02GPIOPFAK@?$DO?$DO@ 00000001800599a4     libvcruntime:undname.obj
 0002:000009a8       ??_C@_02FODMEDOG@?$DM?$DM@ 00000001800599a8     libvcruntime:undname.obj
 0002:000009ac       ??_C@_01DCLJPIOD@?$CB@     00000001800599ac     libvcruntime:undname.obj
 0002:000009b0       ??_C@_02EGOFBIJA@?$DN?$DN@ 00000001800599b0     libvcruntime:undname.obj
 0002:000009b4       ??_C@_02FDNJECIE@?$CB?$DN@ 00000001800599b4     libvcruntime:undname.obj
 0002:000009b8       ??_C@_02GPECMEKF@?$FL?$FN@ 00000001800599b8     libvcruntime:undname.obj
 0002:000009c0       ??_C@_08LHJFAFGD@operator@ 00000001800599c0     libvcruntime:undname.obj
 0002:000009cc       ??_C@_02HBOOOICD@?9?$DO@   00000001800599cc     libvcruntime:undname.obj
 0002:000009d0       ??_C@_01NBENCBCI@?$CK@     00000001800599d0     libvcruntime:undname.obj
 0002:000009d4       ??_C@_02ECNGHCIF@?$CL?$CL@ 00000001800599d4     libvcruntime:undname.obj
 0002:000009d8       ??_C@_02BAABKJLB@?9?9@     00000001800599d8     libvcruntime:undname.obj
 0002:000009dc       ??_C@_01JOAMLHOP@?9@       00000001800599dc     libvcruntime:undname.obj
 0002:000009e0       ??_C@_01MIFGBAGJ@?$CL@     00000001800599e0     libvcruntime:undname.obj
 0002:000009e4       ??_C@_01HNPIGOCE@?$CG@     00000001800599e4     libvcruntime:undname.obj
 0002:000009e8       ??_C@_03MNHNFDLC@?9?$DO?$CK@ 00000001800599e8     libvcruntime:undname.obj
 0002:000009ec       ??_C@_01KMDKNFGN@?1@       00000001800599ec     libvcruntime:undname.obj
 0002:000009f0       ??_C@_01FGNFDNOH@?$CF@     00000001800599f0     libvcruntime:undname.obj
 0002:000009f4       ??_C@_01MNNFJEPP@?$DM@     00000001800599f4     libvcruntime:undname.obj
 0002:000009f8       ??_C@_02EHCHHCKH@?$DM?$DN@ 00000001800599f8     libvcruntime:undname.obj
 0002:000009fc       ??_C@_01PPODPGHN@?$DO@     00000001800599fc     libvcruntime:undname.obj
 0002:00000a00       ??_C@_02EEKDKGMJ@?$DO?$DN@ 0000000180059a00     libvcruntime:undname.obj
 0002:00000a04       ??_C@_01IHBHIGKO@?0@       0000000180059a04     libvcruntime:undname.obj
 0002:00000a08       ??_C@_02HCKGKOFO@?$CI?$CJ@ 0000000180059a08     libvcruntime:undname.obj
 0002:00000a0c       ??_C@_01PJKLJHI@?$HO@      0000000180059a0c     libvcruntime:undname.obj
 0002:00000a10       ??_C@_01JKBOJNNK@?$FO@     0000000180059a10     libvcruntime:undname.obj
 0002:00000a14       ??_C@_01DNKMNLPK@?$HM@     0000000180059a14     libvcruntime:undname.obj
 0002:00000a18       ??_C@_02PPKAJPJL@?$CG?$CG@ 0000000180059a18     libvcruntime:undname.obj
 0002:00000a1c       ??_C@_02NONPIBCD@?$HM?$HM@ 0000000180059a1c     libvcruntime:undname.obj
 0002:00000a20       ??_C@_02FPIMKNGF@?$CK?$DN@ 0000000180059a20     libvcruntime:undname.obj
 0002:00000a24       ??_C@_02FOEOMHFC@?$CL?$DN@ 0000000180059a24     libvcruntime:undname.obj
 0002:00000a28       ??_C@_02FKMDLLOA@?9?$DN@   0000000180059a28     libvcruntime:undname.obj
 0002:00000a2c       ??_C@_02FJEHGPIO@?1?$DN@   0000000180059a2c     libvcruntime:undname.obj
 0002:00000a30       ??_C@_02FENAOKFI@?$CF?$DN@ 0000000180059a30     libvcruntime:undname.obj
 0002:00000a34       ??_C@_03IKFCCPFF@?$DO?$DO?$DN@ 0000000180059a34     libvcruntime:undname.obj
 0002:00000a38       ??_C@_03CDNPDDLA@?$DM?$DM?$DN@ 0000000180059a38     libvcruntime:undname.obj
 0002:00000a3c       ??_C@_02FGJGFEAB@?$CG?$DN@ 0000000180059a3c     libvcruntime:undname.obj
 0002:00000a40       ??_C@_02DHLNPPGH@?$HM?$DN@ 0000000180059a40     libvcruntime:undname.obj
 0002:00000a44       ??_C@_02MHEGNOJ@?$FO?$DN@  0000000180059a44     libvcruntime:undname.obj
 0002:00000a48       ??_C@_09IFPLHPGF@?$GAvftable?8@ 0000000180059a48     libvcruntime:undname.obj
 0002:00000a58       ??_C@_09BLBHBJP@?$GAvbtable?8@ 0000000180059a58     libvcruntime:undname.obj
 0002:00000a68       ??_C@_07FEEIOKP@?$GAvcall?8@ 0000000180059a68     libvcruntime:undname.obj
 0002:00000a70       ??_C@_08LLFFHHDJ@?$GAtypeof?8@ 0000000180059a70     libvcruntime:undname.obj
 0002:00000a80       ??_C@_0BF@KDPPACIK@?$GAlocal?5static?5guard?8@ 0000000180059a80     libvcruntime:undname.obj
 0002:00000a98       ??_C@_08OBABFOLI@?$GAstring?8@ 0000000180059a98     libvcruntime:undname.obj
 0002:00000aa8       ??_C@_0BD@JDLKDPAB@?$GAvbase?5destructor?8@ 0000000180059aa8     libvcruntime:undname.obj
 0002:00000ac0       ??_C@_0BN@DEGPLNFK@?$GAvector?5deleting?5destructor?8@ 0000000180059ac0     libvcruntime:undname.obj
 0002:00000ae0       ??_C@_0BO@OBMKPJIG@?$GAdefault?5constructor?5closure?8@ 0000000180059ae0     libvcruntime:undname.obj
 0002:00000b00       ??_C@_0BN@IMDCHIKM@?$GAscalar?5deleting?5destructor?8@ 0000000180059b00     libvcruntime:undname.obj
 0002:00000b20       ??_C@_0BO@PFGOCPJJ@?$GAvector?5constructor?5iterator?8@ 0000000180059b20     libvcruntime:undname.obj
 0002:00000b40       ??_C@_0BN@LFPFMEDL@?$GAvector?5destructor?5iterator?8@ 0000000180059b40     libvcruntime:undname.obj
 0002:00000b60       ??_C@_0CE@IKBNEHA@?$GAvector?5vbase?5constructor?5itera@ 0000000180059b60     libvcruntime:undname.obj
 0002:00000b88       ??_C@_0BL@NILFHHPC@?$GAvirtual?5displacement?5map?8@ 0000000180059b88     libvcruntime:undname.obj
 0002:00000ba8       ??_C@_0CB@JONCMFFK@?$GAeh?5vector?5constructor?5iterator@ 0000000180059ba8     libvcruntime:undname.obj
 0002:00000bd0       ??_C@_0CA@GCEOPDGL@?$GAeh?5vector?5destructor?5iterator?8@ 0000000180059bd0     libvcruntime:undname.obj
 0002:00000bf0       ??_C@_0CH@OOJPLCPH@?$GAeh?5vector?5vbase?5constructor?5it@ 0000000180059bf0     libvcruntime:undname.obj
 0002:00000c18       ??_C@_0BL@LLKPOHJI@?$GAcopy?5constructor?5closure?8@ 0000000180059c18     libvcruntime:undname.obj
 0002:00000c38       ??_C@_0BA@KBCDOMBN@?$GAudt?5returning?8@ 0000000180059c38     libvcruntime:undname.obj
 0002:00000c48       ??_C@_03KLGMFNMG@?$GAEH@   0000000180059c48     libvcruntime:undname.obj
 0002:00000c4c       ??_C@_05KHLCHHI@?$GARTTI@  0000000180059c4c     libvcruntime:undname.obj
 0002:00000c58       ??_C@_0BA@KKLDJDLB@?$GAlocal?5vftable?8@ 0000000180059c58     libvcruntime:undname.obj
 0002:00000c68       ??_C@_0CE@IIHCMGGL@?$GAlocal?5vftable?5constructor?5clos@ 0000000180059c68     libvcruntime:undname.obj
 0002:00000c8c       ??_C@_06FHBGPFGH@?5new?$FL?$FN@ 0000000180059c8c     libvcruntime:undname.obj
 0002:00000c98       ??_C@_09LBNFPBCA@?5delete?$FL?$FN@ 0000000180059c98     libvcruntime:undname.obj
 0002:00000ca8       ??_C@_0P@HJKNJFNN@?$GAomni?5callsig?8@ 0000000180059ca8     libvcruntime:undname.obj
 0002:00000cb8       ??_C@_0BL@CNOONJFP@?$GAplacement?5delete?5closure?8@ 0000000180059cb8     libvcruntime:undname.obj
 0002:00000cd8       ??_C@_0BN@CKNJLHMB@?$GAplacement?5delete?$FL?$FN?5closure?8@ 0000000180059cd8     libvcruntime:undname.obj
 0002:00000cf8       ??_C@_0CG@CFDHKGGD@?$GAmanaged?5vector?5constructor?5ite@ 0000000180059cf8     libvcruntime:undname.obj
 0002:00000d20       ??_C@_0CF@IMGKMJNO@?$GAmanaged?5vector?5destructor?5iter@ 0000000180059d20     libvcruntime:undname.obj
 0002:00000d48       ??_C@_0CG@HLDDJMAG@?$GAeh?5vector?5copy?5constructor?5ite@ 0000000180059d48     libvcruntime:undname.obj
 0002:00000d70       ??_C@_0CM@FCBBDIGB@?$GAeh?5vector?5vbase?5copy?5construct@ 0000000180059d70     libvcruntime:undname.obj
 0002:00000da0       ??_C@_0BL@CLIPGLGB@?$GAdynamic?5initializer?5for?5?8@ 0000000180059da0     libvcruntime:undname.obj
 0002:00000dc0       ??_C@_0CB@PDBIFEP@?$GAdynamic?5atexit?5destructor?5for?5@ 0000000180059dc0     libvcruntime:undname.obj
 0002:00000de8       ??_C@_0CD@CGAJBKEJ@?$GAvector?5copy?5constructor?5iterat@ 0000000180059de8     libvcruntime:undname.obj
 0002:00000e10       ??_C@_0CJ@GJELGAMM@?$GAvector?5vbase?5copy?5constructor?5@ 0000000180059e10     libvcruntime:undname.obj
 0002:00000e40       ??_C@_0CL@FGIJHLCE@?$GAmanaged?5vector?5copy?5constructo@ 0000000180059e40     libvcruntime:undname.obj
 0002:00000e70       ??_C@_0BM@PMGGMLDN@?$GAlocal?5static?5thread?5guard?8@ 0000000180059e70     libvcruntime:undname.obj
 0002:00000e90       ??_C@_0N@BDNMDMOL@operator?5?$CC?$CC?5@ 0000000180059e90     libvcruntime:undname.obj
 0002:00000ea0       ??_C@_0BC@GGEBGALA@operator?5co_await@ 0000000180059ea0     libvcruntime:undname.obj
 0002:00000eb8       ??_C@_0BC@DAFEJGAK@?5Type?5Descriptor?8@ 0000000180059eb8     libvcruntime:undname.obj
 0002:00000ed0       ??_C@_0BM@LDKODKLH@?5Base?5Class?5Descriptor?5at?5?$CI@ 0000000180059ed0     libvcruntime:undname.obj
 0002:00000ef0       ??_C@_0BD@LGICGFMM@?5Base?5Class?5Array?8@ 0000000180059ef0     libvcruntime:undname.obj
 0002:00000f08       ??_C@_0BN@MECKDCOJ@?5Class?5Hierarchy?5Descriptor?8@ 0000000180059f08     libvcruntime:undname.obj
 0002:00000f28       ??_C@_0BK@CFCOFLF@?5Complete?5Object?5Locator?8@ 0000000180059f28     libvcruntime:undname.obj
 0002:00001368       ??_C@_04KGLCPMCP@log2?$AA@ 000000018005a368     libucrt:log2.obj
 0002:00001370       __real@03d0000000000000    000000018005a370     libucrt:log2.obj
 0002:00001378       __real@3ecb295c17f0bbbe    000000018005a378     libucrt:log2.obj
 0002:00001380       __real@3f3c8034c85dfff0    000000018005a380     libucrt:log2.obj
 0002:00001388       __real@3f62492307f1519f    000000018005a388     libucrt:log2.obj
 0002:00001390       __real@3f6249423bd94741    000000018005a390     libucrt:log2.obj
 0002:00001398       __real@3f80000000000000    000000018005a398     libucrt:log2.obj
 0002:000013a0       __real@3f89999999865ede    000000018005a3a0     libucrt:log2.obj
 0002:000013a8       __real@3f89999999bac6d4    000000018005a3a8     libucrt:log2.obj
 0002:000013b0       __real@3fb55555555554e6    000000018005a3b0     libucrt:log2.obj
 0002:000013b8       __real@3fb5555555555557    000000018005a3b8     libucrt:log2.obj
 0002:000013c0       __real@3ff7154400000000    000000018005a3c0     libucrt:log2.obj
 0002:000013c8       __real@4000000000000000    000000018005a3c8     libucrt:log2.obj
 0002:000013d0       ??_C@_1FE@LHBLIKM@?$AAA?$AAs?$AAs?$AAe?$AAr?$AAt?$AAi?$AAo?$AAn?$AA?5?$AAf?$AAa?$AAi?$AAl?$AAe?$AAd?$AA?3?$AA?5?$AA?$CF?$AAT?$AAs?$AA?0?$AA?5?$AAf?$AAi?$AAl?$AAe?$AA?5?$AA?$CF?$AAT?$AAs?$AA?0@ 000000018005a3d0     libucrt:assert.obj
 0002:00001430       ??_C@_1EK@MBDPDCGA@?$AAM?$AAi?$AAc?$AAr?$AAo?$AAs?$AAo?$AAf?$AAt?$AA?5?$AAV?$AAi?$AAs?$AAu?$AAa?$AAl?$AA?5?$AAC?$AA?$CL?$AA?$CL?$AA?5?$AAR?$AAu?$AAn?$AAt?$AAi?$AAm?$AAe?$AA?5?$AAL?$AAi?$AAb@ 000000018005a430     libucrt:assert.obj
 0002:00001480       ??_C@_1CE@OJBNHDMO@?$AAA?$AAs?$AAs?$AAe?$AAr?$AAt?$AAi?$AAo?$AAn?$AA?5?$AAf?$AAa?$AAi?$AAl?$AAe?$AAd?$AA?$CB?$AA?$AA@ 000000018005a480     libucrt:assert.obj
 0002:000014a8       ??_C@_1BE@PHKBBGE@?$AAP?$AAr?$AAo?$AAg?$AAr?$AAa?$AAm?$AA?3?$AA?5?$AA?$AA@ 000000018005a4a8     libucrt:assert.obj
 0002:000014c0       ??_C@_1O@HEMHKNDC@?$AAF?$AAi?$AAl?$AAe?$AA?3?$AA?5?$AA?$AA@ 000000018005a4c0     libucrt:assert.obj
 0002:000014d0       ??_C@_1O@KCAFKHJE@?$AAL?$AAi?$AAn?$AAe?$AA?3?$AA?5?$AA?$AA@ 000000018005a4d0     libucrt:assert.obj
 0002:000014e0       ??_C@_1BK@PEDCIPMA@?$AAE?$AAx?$AAp?$AAr?$AAe?$AAs?$AAs?$AAi?$AAo?$AAn?$AA?3?$AA?5?$AA?$AA@ 000000018005a4e0     libucrt:assert.obj
 0002:00001500       ??_C@_1OA@EGMLFBHJ@?$AAF?$AAo?$AAr?$AA?5?$AAi?$AAn?$AAf?$AAo?$AAr?$AAm?$AAa?$AAt?$AAi?$AAo?$AAn?$AA?5?$AAo?$AAn?$AA?5?$AAh?$AAo?$AAw?$AA?5?$AAy?$AAo?$AAu?$AAr?$AA?5?$AAp?$AAr?$AAo?$AAg@ 000000018005a500     libucrt:assert.obj
 0002:000015e0       ??_C@_1HK@POCJMFGK@?$AA?$CI?$AAP?$AAr?$AAe?$AAs?$AAs?$AA?5?$AAR?$AAe?$AAt?$AAr?$AAy?$AA?5?$AAt?$AAo?$AA?5?$AAd?$AAe?$AAb?$AAu?$AAg?$AA?5?$AAt?$AAh?$AAe?$AA?5?$AAa?$AAp?$AAp?$AAl?$AAi?$AAc@ 000000018005a5e0     libucrt:assert.obj
 0002:00001660       ??_C@_17LGKOMLJ@?$AA?4?$AA?4?$AA?4?$AA?$AA@ 000000018005a660     libucrt:assert.obj
 0002:00001668       ??_C@_13LBAGMAIH@?$AA?6?$AA?$AA@ 000000018005a668     libucrt:assert.obj
 0002:0000166c       ??_C@_15IABLJNFO@?$AA?6?$AA?6?$AA?$AA@ 000000018005a66c     libucrt:assert.obj
 0002:00001678       ??_C@_1CO@EAEJAADC@?$AA?$DM?$AAp?$AAr?$AAo?$AAg?$AAr?$AAa?$AAm?$AA?5?$AAn?$AAa?$AAm?$AAe?$AA?5?$AAu?$AAn?$AAk?$AAn?$AAo?$AAw?$AAn?$AA?$DO?$AA?$AA@ 000000018005a678     libucrt:assert.obj
 0002:000016a8       ??_C@_1BI@BGOHAHKC@?$AAm?$AAs?$AAc?$AAo?$AAr?$AAe?$AAe?$AA?4?$AAd?$AAl?$AAl?$AA?$AA@ 000000018005a6a8     libucrt:exit.obj
 0002:000016c0       ??_C@_0P@MIGLKIOC@CorExitProcess?$AA@ 000000018005a6c0     libucrt:exit.obj
 0002:000016d0       __acrt_exception_action_table 000000018005a6d0     libucrt:exception_filter.obj
 0002:00001790       __acrt_signal_action_table_count 000000018005a790     libucrt:exception_filter.obj
 0002:00001798       __acrt_signal_action_first_fpe_index 000000018005a798     libucrt:exception_filter.obj
 0002:000017a0       __acrt_signal_action_fpe_count 000000018005a7a0     libucrt:exception_filter.obj
 0002:000018b0       standard_lookup_table      000000018005a8b0     libucrt:output.obj
 0002:00001910       ??_C@_1O@CEDCILHN@?$AA?$CI?$AAn?$AAu?$AAl?$AAl?$AA?$CJ?$AA?$AA@ 000000018005a910     libucrt:output.obj
 0002:00001920       ??_C@_06OJHGLDPL@?$CInull?$CJ?$AA@ 000000018005a920     libucrt:output.obj
 0002:00001aa0       __lc_time_c                000000018005aaa0     libucrt:nlsdata.obj
 0002:00001d60       ??_C@_03KOEHGMDN@Sun?$AA@  000000018005ad60     libucrt:nlsdata.obj
 0002:00001d64       ??_C@_03PDAGKDH@Mon?$AA@   000000018005ad64     libucrt:nlsdata.obj
 0002:00001d68       ??_C@_03NAGEINEP@Tue?$AA@  000000018005ad68     libucrt:nlsdata.obj
 0002:00001d6c       ??_C@_03MHOMLAJA@Wed?$AA@  000000018005ad6c     libucrt:nlsdata.obj
 0002:00001d70       ??_C@_03IOFIKPDN@Thu?$AA@  000000018005ad70     libucrt:nlsdata.obj
 0002:00001d74       ??_C@_03IDIOELNC@Fri?$AA@  000000018005ad74     libucrt:nlsdata.obj
 0002:00001d78       ??_C@_03FEFJNEK@Sat?$AA@   000000018005ad78     libucrt:nlsdata.obj
 0002:00001d7c       ??_C@_06OOPIFAJ@Sunday?$AA@ 000000018005ad7c     libucrt:nlsdata.obj
 0002:00001d84       ??_C@_06JLEDEDGH@Monday?$AA@ 000000018005ad84     libucrt:nlsdata.obj
 0002:00001d90       ??_C@_07BAAGCFCM@Tuesday?$AA@ 000000018005ad90     libucrt:nlsdata.obj
 0002:00001d98       ??_C@_09DLIGFAKA@Wednesday?$AA@ 000000018005ad98     libucrt:nlsdata.obj
 0002:00001da8       ??_C@_08HACCIKIA@Thursday?$AA@ 000000018005ada8     libucrt:nlsdata.obj
 0002:00001db4       ??_C@_06JECMNKMI@Friday?$AA@ 000000018005adb4     libucrt:nlsdata.obj
 0002:00001dc0       ??_C@_08INBOOONO@Saturday?$AA@ 000000018005adc0     libucrt:nlsdata.obj
 0002:00001dcc       ??_C@_03JIHJHPIE@Jan?$AA@  000000018005adcc     libucrt:nlsdata.obj
 0002:00001dd0       ??_C@_03HJBDCHOM@Feb?$AA@  000000018005add0     libucrt:nlsdata.obj
 0002:00001dd4       ??_C@_03ODNJBKGA@Mar?$AA@  000000018005add4     libucrt:nlsdata.obj
 0002:00001dd8       ??_C@_03LEOLGMJP@Apr?$AA@  000000018005add8     libucrt:nlsdata.obj
 0002:00001ddc       ??_C@_03CNMDKL@May?$AA@    000000018005addc     libucrt:nlsdata.obj
 0002:00001de0       ??_C@_03IDFGHECI@Jun?$AA@  000000018005ade0     libucrt:nlsdata.obj
 0002:00001de4       ??_C@_03LBGABGKK@Jul?$AA@  000000018005ade4     libucrt:nlsdata.obj
 0002:00001de8       ??_C@_03IFJFEIGA@Aug?$AA@  000000018005ade8     libucrt:nlsdata.obj
 0002:00001dec       ??_C@_03GGCAPAJC@Sep?$AA@  000000018005adec     libucrt:nlsdata.obj
 0002:00001df0       ??_C@_03BMAOKBAD@Oct?$AA@  000000018005adf0     libucrt:nlsdata.obj
 0002:00001df4       ??_C@_03JPJOFNIA@Nov?$AA@  000000018005adf4     libucrt:nlsdata.obj
 0002:00001df8       ??_C@_03MKABNOCG@Dec?$AA@  000000018005adf8     libucrt:nlsdata.obj
 0002:00001e00       ??_C@_07CGJPFGJA@January?$AA@ 000000018005ae00     libucrt:nlsdata.obj
 0002:00001e08       ??_C@_08GNJGEPFN@February?$AA@ 000000018005ae08     libucrt:nlsdata.obj
 0002:00001e14       ??_C@_05HPCKOFNC@March?$AA@ 000000018005ae14     libucrt:nlsdata.obj
 0002:00001e1c       ??_C@_05DMJDNLEJ@April?$AA@ 000000018005ae1c     libucrt:nlsdata.obj
 0002:00001e24       ??_C@_04CNLMGBGM@June?$AA@ 000000018005ae24     libucrt:nlsdata.obj
 0002:00001e2c       ??_C@_04MIEPOIFP@July?$AA@ 000000018005ae2c     libucrt:nlsdata.obj
 0002:00001e34       ??_C@_06LBBHFDDG@August?$AA@ 000000018005ae34     libucrt:nlsdata.obj
 0002:00001e40       ??_C@_09BHHEALKD@September?$AA@ 000000018005ae40     libucrt:nlsdata.obj
 0002:00001e50       ??_C@_07JJNFCEND@October?$AA@ 000000018005ae50     libucrt:nlsdata.obj
 0002:00001e58       ??_C@_08HCHEGEOA@November?$AA@ 000000018005ae58     libucrt:nlsdata.obj
 0002:00001e68       ??_C@_08EDHMEBNP@December?$AA@ 000000018005ae68     libucrt:nlsdata.obj
 0002:00001e74       ??_C@_02DEDBPAFC@AM?$AA@   000000018005ae74     libucrt:nlsdata.obj
 0002:00001e78       ??_C@_02CJNFDJBF@PM?$AA@   000000018005ae78     libucrt:nlsdata.obj
 0002:00001e80       ??_C@_08BPBNCDIB@MM?1dd?1yy?$AA@ 000000018005ae80     libucrt:nlsdata.obj
 0002:00001e90       ??_C@_0BE@CKGJFCPC@dddd?0?5MMMM?5dd?0?5yyyy?$AA@ 000000018005ae90     libucrt:nlsdata.obj
 0002:00001ea8       ??_C@_08JCCMCCIL@HH?3mm?3ss?$AA@ 000000018005aea8     libucrt:nlsdata.obj
 0002:00001eb8       ??_C@_17MBGCMIPB@?$AAS?$AAu?$AAn?$AA?$AA@ 000000018005aeb8     libucrt:nlsdata.obj
 0002:00001ec0       ??_C@_17KBOMKBF@?$AAM?$AAo?$AAn?$AA?$AA@ 000000018005aec0     libucrt:nlsdata.obj
 0002:00001ec8       ??_C@_17BMKGEGOJ@?$AAT?$AAu?$AAe?$AA?$AA@ 000000018005aec8     libucrt:nlsdata.obj
 0002:00001ed0       ??_C@_17CJEDCEPE@?$AAW?$AAe?$AAd?$AA?$AA@ 000000018005aed0     libucrt:nlsdata.obj
 0002:00001ed8       ??_C@_17PDPHAADD@?$AAT?$AAh?$AAu?$AA?$AA@ 000000018005aed8     libucrt:nlsdata.obj
 0002:00001ee0       ??_C@_17HFOLPPLP@?$AAF?$AAr?$AAi?$AA?$AA@ 000000018005aee0     libucrt:nlsdata.obj
 0002:00001ee8       ??_C@_17GGIBDPIH@?$AAS?$AAa?$AAt?$AA?$AA@ 000000018005aee8     libucrt:nlsdata.obj
 0002:00001ef0       ??_C@_1O@IHNHDHPB@?$AAS?$AAu?$AAn?$AAd?$AAa?$AAy?$AA?$AA@ 000000018005aef0     libucrt:nlsdata.obj
 0002:00001f00       ??_C@_1O@MMNBFLIA@?$AAM?$AAo?$AAn?$AAd?$AAa?$AAy?$AA?$AA@ 000000018005af00     libucrt:nlsdata.obj
 0002:00001f10       ??_C@_1BA@ENFBFFEK@?$AAT?$AAu?$AAe?$AAs?$AAd?$AAa?$AAy?$AA?$AA@ 000000018005af10     libucrt:nlsdata.obj
 0002:00001f20       ??_C@_1BE@EBOGMDOH@?$AAW?$AAe?$AAd?$AAn?$AAe?$AAs?$AAd?$AAa?$AAy?$AA?$AA@ 000000018005af20     libucrt:nlsdata.obj
 0002:00001f38       ??_C@_1BC@HHMNLIHE@?$AAT?$AAh?$AAu?$AAr?$AAs?$AAd?$AAa?$AAy?$AA?$AA@ 000000018005af38     libucrt:nlsdata.obj
 0002:00001f50       ??_C@_1O@PDICJHAG@?$AAF?$AAr?$AAi?$AAd?$AAa?$AAy?$AA?$AA@ 000000018005af50     libucrt:nlsdata.obj
 0002:00001f60       ??_C@_1BC@ENMNNPAJ@?$AAS?$AAa?$AAt?$AAu?$AAr?$AAd?$AAa?$AAy?$AA?$AA@ 000000018005af60     libucrt:nlsdata.obj
 0002:00001f78       ??_C@_17DKNBKCHM@?$AAJ?$AAa?$AAn?$AA?$AA@ 000000018005af78     libucrt:nlsdata.obj
 0002:00001f80       ??_C@_17LMDJEKJN@?$AAF?$AAe?$AAb?$AA?$AA@ 000000018005af80     libucrt:nlsdata.obj
 0002:00001f88       ??_C@_17CKNLEDEC@?$AAM?$AAa?$AAr?$AA?$AA@ 000000018005af88     libucrt:nlsdata.obj
 0002:00001f90       ??_C@_17LFPOIHDD@?$AAA?$AAp?$AAr?$AA?$AA@ 000000018005af90     libucrt:nlsdata.obj
 0002:00001f98       ??_C@_17PNNKMEED@?$AAM?$AAa?$AAy?$AA?$AA@ 000000018005af98     libucrt:nlsdata.obj
 0002:00001fa0       ??_C@_17KCJGOCPB@?$AAJ?$AAu?$AAn?$AA?$AA@ 000000018005afa0     libucrt:nlsdata.obj
 0002:00001fa8       ??_C@_17IJPCKHK@?$AAJ?$AAu?$AAl?$AA?$AA@ 000000018005afa8     libucrt:nlsdata.obj
 0002:00001fb0       ??_C@_17ICPELBCN@?$AAA?$AAu?$AAg?$AA?$AA@ 000000018005afb0     libucrt:nlsdata.obj
 0002:00001fb8       ??_C@_17HCHCOKMG@?$AAS?$AAe?$AAp?$AA?$AA@ 000000018005afb8     libucrt:nlsdata.obj
 0002:00001fc0       ??_C@_17FNLKOI@?$AAO?$AAc?$AAt?$AA?$AA@ 000000018005afc0     libucrt:nlsdata.obj
 0002:00001fc8       ??_C@_17BBDMLCIG@?$AAN?$AAo?$AAv?$AA?$AA@ 000000018005afc8     libucrt:nlsdata.obj
 0002:00001fd0       ??_C@_17EGKACKIF@?$AAD?$AAe?$AAc?$AA?$AA@ 000000018005afd0     libucrt:nlsdata.obj
 0002:00001fd8       ??_C@_1BA@EFMEIEBA@?$AAJ?$AAa?$AAn?$AAu?$AAa?$AAr?$AAy?$AA?$AA@ 000000018005afd8     libucrt:nlsdata.obj
 0002:00001fe8       ??_C@_1BC@JGDDFFAM@?$AAF?$AAe?$AAb?$AAr?$AAu?$AAa?$AAr?$AAy?$AA?$AA@ 000000018005afe8     libucrt:nlsdata.obj
 0002:00002000       ??_C@_1M@IKEENEDF@?$AAM?$AAa?$AAr?$AAc?$AAh?$AA?$AA@ 000000018005b000     libucrt:nlsdata.obj
 0002:00002010       ??_C@_1M@GJNLMHFD@?$AAA?$AAp?$AAr?$AAi?$AAl?$AA?$AA@ 000000018005b010     libucrt:nlsdata.obj
 0002:00002020       ??_C@_19EPFLPGAP@?$AAJ?$AAu?$AAn?$AAe?$AA?$AA@ 000000018005b020     libucrt:nlsdata.obj
 0002:00002030       ??_C@_19BIFMLPCD@?$AAJ?$AAu?$AAl?$AAy?$AA?$AA@ 000000018005b030     libucrt:nlsdata.obj
 0002:00002040       ??_C@_1O@PAHLKOAC@?$AAA?$AAu?$AAg?$AAu?$AAs?$AAt?$AA?$AA@ 000000018005b040     libucrt:nlsdata.obj
 0002:00002050       ??_C@_1BE@DKAAMBJL@?$AAS?$AAe?$AAp?$AAt?$AAe?$AAm?$AAb?$AAe?$AAr?$AA?$AA@ 000000018005b050     libucrt:nlsdata.obj
 0002:00002068       ??_C@_1BA@EPANDLNG@?$AAO?$AAc?$AAt?$AAo?$AAb?$AAe?$AAr?$AA?$AA@ 000000018005b068     libucrt:nlsdata.obj
 0002:00002078       ??_C@_1BC@BGLIFPF@?$AAN?$AAo?$AAv?$AAe?$AAm?$AAb?$AAe?$AAr?$AA?$AA@ 000000018005b078     libucrt:nlsdata.obj
 0002:00002090       ??_C@_1BC@FEMKIFH@?$AAD?$AAe?$AAc?$AAe?$AAm?$AAb?$AAe?$AAr?$AA?$AA@ 000000018005b090     libucrt:nlsdata.obj
 0002:000020a4       ??_C@_15ODEHAHHF@?$AAA?$AAM?$AA?$AA@ 000000018005b0a4     libucrt:nlsdata.obj
 0002:000020ac       ??_C@_15CLMNNGEL@?$AAP?$AAM?$AA?$AA@ 000000018005b0ac     libucrt:nlsdata.obj
 0002:000020b8       ??_C@_1BC@IEBCMHCM@?$AAM?$AAM?$AA?1?$AAd?$AAd?$AA?1?$AAy?$AAy?$AA?$AA@ 000000018005b0b8     libucrt:nlsdata.obj
 0002:000020d0       ??_C@_1CI@KNAKOEBC@?$AAd?$AAd?$AAd?$AAd?$AA?0?$AA?5?$AAM?$AAM?$AAM?$AAM?$AA?5?$AAd?$AAd?$AA?0?$AA?5?$AAy?$AAy?$AAy?$AAy?$AA?$AA@ 000000018005b0d0     libucrt:nlsdata.obj
 0002:000020f8       ??_C@_1BC@GDGBMEMK@?$AAH?$AAH?$AA?3?$AAm?$AAm?$AA?3?$AAs?$AAs?$AA?$AA@ 000000018005b0f8     libucrt:nlsdata.obj
 0002:00002110       ??_C@_1M@BMHNFIME@?$AAe?$AAn?$AA?9?$AAU?$AAS?$AA?$AA@ 000000018005b110     libucrt:nlsdata.obj
 0002:00002140       ??_C@_1M@HPNHIDJI@?$AAj?$AAa?$AA?9?$AAJ?$AAP?$AA?$AA@ 000000018005b140     libucrt:mbctype.obj
 0002:00002150       ??_C@_1M@BIBDDEMK@?$AAz?$AAh?$AA?9?$AAC?$AAN?$AA?$AA@ 000000018005b150     libucrt:mbctype.obj
 0002:00002160       ??_C@_1M@JLOOOEGK@?$AAk?$AAo?$AA?9?$AAK?$AAR?$AA?$AA@ 000000018005b160     libucrt:mbctype.obj
 0002:00002170       ??_C@_1M@CLNBBOPM@?$AAz?$AAh?$AA?9?$AAT?$AAW?$AA?$AA@ 000000018005b170     libucrt:mbctype.obj
 0002:00002220       ??_C@_1EA@JGEFHKEI@?$AAa?$AAp?$AAi?$AA?9?$AAm?$AAs?$AA?9?$AAw?$AAi?$AAn?$AA?9?$AAc?$AAo?$AAr?$AAe?$AA?9?$AAd?$AAa?$AAt?$AAe?$AAt?$AAi?$AAm?$AAe?$AA?9?$AAl?$AA1?$AA?9?$AA1?$AA?9?$AA1?$AA?$AA@ 000000018005b220     libucrt:winapi_thunks.obj
 0002:00002260       ??_C@_1DM@KHCHBNEB@?$AAa?$AAp?$AAi?$AA?9?$AAm?$AAs?$AA?9?$AAw?$AAi?$AAn?$AA?9?$AAc?$AAo?$AAr?$AAe?$AA?9?$AAf?$AAi?$AAb?$AAe?$AAr?$AAs?$AA?9?$AAl?$AA1?$AA?9?$AA1?$AA?9?$AA1?$AA?$AA@ 000000018005b260     libucrt:winapi_thunks.obj
 0002:000022a0       ??_C@_1DI@IJCEHOCB@?$AAa?$AAp?$AAi?$AA?9?$AAm?$AAs?$AA?9?$AAw?$AAi?$AAn?$AA?9?$AAc?$AAo?$AAr?$AAe?$AA?9?$AAf?$AAi?$AAl?$AAe?$AA?9?$AAl?$AA1?$AA?9?$AA2?$AA?9?$AA2?$AA?$AA@ 000000018005b2a0     libucrt:winapi_thunks.obj
 0002:000022e0       ??_C@_1EI@MPIAOHOC@?$AAa?$AAp?$AAi?$AA?9?$AAm?$AAs?$AA?9?$AAw?$AAi?$AAn?$AA?9?$AAc?$AAo?$AAr?$AAe?$AA?9?$AAl?$AAo?$AAc?$AAa?$AAl?$AAi?$AAz?$AAa?$AAt?$AAi?$AAo?$AAn?$AA?9?$AAl?$AA1?$AA?9@ 000000018005b2e0     libucrt:winapi_thunks.obj
 0002:00002330       ??_C@_1FK@FPHCKFIE@?$AAa?$AAp?$AAi?$AA?9?$AAm?$AAs?$AA?9?$AAw?$AAi?$AAn?$AA?9?$AAc?$AAo?$AAr?$AAe?$AA?9?$AAl?$AAo?$AAc?$AAa?$AAl?$AAi?$AAz?$AAa?$AAt?$AAi?$AAo?$AAn?$AA?9?$AAo?$AAb?$AAs@ 000000018005b330     libucrt:winapi_thunks.obj
 0002:00002390       ??_C@_1EM@DILCGIIO@?$AAa?$AAp?$AAi?$AA?9?$AAm?$AAs?$AA?9?$AAw?$AAi?$AAn?$AA?9?$AAc?$AAo?$AAr?$AAe?$AA?9?$AAp?$AAr?$AAo?$AAc?$AAe?$AAs?$AAs?$AAt?$AAh?$AAr?$AAe?$AAa?$AAd?$AAs?$AA?9?$AAl@ 000000018005b390     libucrt:winapi_thunks.obj
 0002:000023e0       ??_C@_1DM@LNCGDDPN@?$AAa?$AAp?$AAi?$AA?9?$AAm?$AAs?$AA?9?$AAw?$AAi?$AAn?$AA?9?$AAc?$AAo?$AAr?$AAe?$AA?9?$AAs?$AAt?$AAr?$AAi?$AAn?$AAg?$AA?9?$AAl?$AA1?$AA?9?$AA1?$AA?9?$AA0?$AA?$AA@ 000000018005b3e0     libucrt:winapi_thunks.obj
 0002:00002420       ??_C@_1DK@LPPGFMPP@?$AAa?$AAp?$AAi?$AA?9?$AAm?$AAs?$AA?9?$AAw?$AAi?$AAn?$AA?9?$AAc?$AAo?$AAr?$AAe?$AA?9?$AAs?$AAy?$AAn?$AAc?$AAh?$AA?9?$AAl?$AA1?$AA?9?$AA2?$AA?9?$AA0?$AA?$AA@ 000000018005b420     libucrt:winapi_thunks.obj
 0002:00002460       ??_C@_1DO@FPAPJEMD@?$AAa?$AAp?$AAi?$AA?9?$AAm?$AAs?$AA?9?$AAw?$AAi?$AAn?$AA?9?$AAc?$AAo?$AAr?$AAe?$AA?9?$AAs?$AAy?$AAs?$AAi?$AAn?$AAf?$AAo?$AA?9?$AAl?$AA1?$AA?9?$AA2?$AA?9?$AA1?$AA?$AA@ 000000018005b460     libucrt:winapi_thunks.obj
 0002:000024a0       ??_C@_1DK@NDHNAHIO@?$AAa?$AAp?$AAi?$AA?9?$AAm?$AAs?$AA?9?$AAw?$AAi?$AAn?$AA?9?$AAc?$AAo?$AAr?$AAe?$AA?9?$AAw?$AAi?$AAn?$AAr?$AAt?$AA?9?$AAl?$AA1?$AA?9?$AA1?$AA?9?$AA0?$AA?$AA@ 000000018005b4a0     libucrt:winapi_thunks.obj
 0002:000024e0       ??_C@_1DM@KGHDGBCM@?$AAa?$AAp?$AAi?$AA?9?$AAm?$AAs?$AA?9?$AAw?$AAi?$AAn?$AA?9?$AAc?$AAo?$AAr?$AAe?$AA?9?$AAx?$AAs?$AAt?$AAa?$AAt?$AAe?$AA?9?$AAl?$AA2?$AA?9?$AA1?$AA?9?$AA0?$AA?$AA@ 000000018005b4e0     libucrt:winapi_thunks.obj
 0002:00002520       ??_C@_1EO@IJIOEFOH@?$AAa?$AAp?$AAi?$AA?9?$AAm?$AAs?$AA?9?$AAw?$AAi?$AAn?$AA?9?$AAr?$AAt?$AAc?$AAo?$AAr?$AAe?$AA?9?$AAn?$AAt?$AAu?$AAs?$AAe?$AAr?$AA?9?$AAw?$AAi?$AAn?$AAd?$AAo?$AAw?$AA?9@ 000000018005b520     libucrt:winapi_thunks.obj
 0002:00002570       ??_C@_1FG@HHGEKANL@?$AAa?$AAp?$AAi?$AA?9?$AAm?$AAs?$AA?9?$AAw?$AAi?$AAn?$AA?9?$AAs?$AAe?$AAc?$AAu?$AAr?$AAi?$AAt?$AAy?$AA?9?$AAs?$AAy?$AAs?$AAt?$AAe?$AAm?$AAf?$AAu?$AAn?$AAc?$AAt?$AAi@ 000000018005b570     libucrt:winapi_thunks.obj
 0002:000025d0       ??_C@_1EG@DBIOJECG@?$AAe?$AAx?$AAt?$AA?9?$AAm?$AAs?$AA?9?$AAw?$AAi?$AAn?$AA?9?$AAn?$AAt?$AAu?$AAs?$AAe?$AAr?$AA?9?$AAd?$AAi?$AAa?$AAl?$AAo?$AAg?$AAb?$AAo?$AAx?$AA?9?$AAl?$AA1?$AA?9?$AA1@ 000000018005b5d0     libucrt:winapi_thunks.obj
 0002:00002620       ??_C@_1EO@FIHMJCLF@?$AAe?$AAx?$AAt?$AA?9?$AAm?$AAs?$AA?9?$AAw?$AAi?$AAn?$AA?9?$AAn?$AAt?$AAu?$AAs?$AAe?$AAr?$AA?9?$AAw?$AAi?$AAn?$AAd?$AAo?$AAw?$AAs?$AAt?$AAa?$AAt?$AAi?$AAo?$AAn?$AA?9@ 000000018005b620     libucrt:winapi_thunks.obj
 0002:00002670       ??_C@_1BC@DNHGCMLG@?$AAa?$AAd?$AAv?$AAa?$AAp?$AAi?$AA3?$AA2?$AA?$AA@ 000000018005b670     libucrt:winapi_thunks.obj
 0002:00002688       ??_C@_1BC@GDMECMAK@?$AAk?$AAe?$AAr?$AAn?$AAe?$AAl?$AA3?$AA2?$AA?$AA@ 000000018005b688     libucrt:winapi_thunks.obj
 0002:000026a0       ??_C@_1M@OAIMIKLP@?$AAn?$AAt?$AAd?$AAl?$AAl?$AA?$AA@ 000000018005b6a0     libucrt:winapi_thunks.obj
 0002:000026b0       ??_C@_1EG@DPGNFKGC@?$AAa?$AAp?$AAi?$AA?9?$AAm?$AAs?$AA?9?$AAw?$AAi?$AAn?$AA?9?$AAa?$AAp?$AAp?$AAm?$AAo?$AAd?$AAe?$AAl?$AA?9?$AAr?$AAu?$AAn?$AAt?$AAi?$AAm?$AAe?$AA?9?$AAl?$AA1?$AA?9?$AA1@ 000000018005b6b0     libucrt:winapi_thunks.obj
 0002:000026f8       ??_C@_1O@BCCLBEOE@?$AAu?$AAs?$AAe?$AAr?$AA3?$AA2?$AA?$AA@ 000000018005b6f8     libucrt:winapi_thunks.obj
 0002:00002708       ??_C@_1BA@PFFKHIOG@?$AAa?$AAp?$AAi?$AA?9?$AAm?$AAs?$AA?9?$AA?$AA@ 000000018005b708     libucrt:winapi_thunks.obj
 0002:00002718       ??_C@_1BA@IAIFMGEF@?$AAe?$AAx?$AAt?$AA?9?$AAm?$AAs?$AA?9?$AA?$AA@ 000000018005b718     libucrt:winapi_thunks.obj
 0002:00002730       ??_C@_0BA@FHFNEAED@AreFileApisANSI?$AA@ 000000018005b730     libucrt:winapi_thunks.obj
 0002:00002748       ??_C@_08KNHFBNJ@FlsAlloc?$AA@ 000000018005b748     libucrt:winapi_thunks.obj
 0002:00002760       ??_C@_07PEJMOBNF@FlsFree?$AA@ 000000018005b760     libucrt:winapi_thunks.obj
 0002:00002770       ??_C@_0M@GDNOONDI@FlsGetValue?$AA@ 000000018005b770     libucrt:winapi_thunks.obj
 0002:00002788       ??_C@_0M@JCPCPOEF@FlsSetValue?$AA@ 000000018005b788     libucrt:winapi_thunks.obj
 0002:000027a0       ??_C@_0BA@HNOPNCHB@GetActiveWindow?$AA@ 000000018005b7a0     libucrt:winapi_thunks.obj
 0002:000027b8       ??_C@_0BD@HHGDFDBJ@GetLastActivePopup?$AA@ 000000018005b7b8     libucrt:winapi_thunks.obj
 0002:000027d8       ??_C@_0BI@DFKBFLJE@GetProcessWindowStation?$AA@ 000000018005b7d8     libucrt:winapi_thunks.obj
 0002:000027f8       ??_C@_0BK@DEKFELLI@GetUserObjectInformationW?$AA@ 000000018005b7f8     libucrt:winapi_thunks.obj
 0002:00002820       ??_C@_0BM@HCFOFFN@InitializeCriticalSectionEx?$AA@ 000000018005b820     libucrt:winapi_thunks.obj
 0002:00002848       ??_C@_0O@KKBNKAPF@LCMapStringEx?$AA@ 000000018005b848     libucrt:winapi_thunks.obj
 0002:00002860       ??_C@_0BB@HBDEELFH@LocaleNameToLCID?$AA@ 000000018005b860     libucrt:winapi_thunks.obj
 0002:00002880       ??_C@_0M@CHKKJDAI@MessageBoxA?$AA@ 000000018005b880     libucrt:winapi_thunks.obj
 0002:00002898       ??_C@_0M@DLDCCGNP@MessageBoxW?$AA@ 000000018005b898     libucrt:winapi_thunks.obj
 0002:000028a8       ??_C@_0CF@OJOFEIGO@AppPolicyGetProcessTerminationMe@ 000000018005b8a8     libucrt:winapi_thunks.obj
 0002:000028d8       ??_C@_0CE@OICFMIKE@AppPolicyGetShowDeveloperDiagnos@ 000000018005b8d8     libucrt:winapi_thunks.obj
 0002:00002900       ??_C@_0BL@ODDJNEDA@AppPolicyGetWindowingModel?$AA@ 000000018005b900     libucrt:winapi_thunks.obj
 0002:0000291c       ??_C@_03OEIAHPBN@INF?$AA@  000000018005b91c     libucrt:cvt.obj
 0002:00002920       ??_C@_03OJHLLCGB@inf?$AA@  000000018005b920     libucrt:cvt.obj
 0002:00002924       ??_C@_03LKNCIKJB@NAN?$AA@  000000018005b924     libucrt:cvt.obj
 0002:00002928       ??_C@_03LHCJEHON@nan?$AA@  000000018005b928     libucrt:cvt.obj
 0002:00002930       ??_C@_09OFJJIMPC@NAN?$CISNAN?$CJ?$AA@ 000000018005b930     libucrt:cvt.obj
 0002:00002940       ??_C@_09IPFBKMDL@nan?$CIsnan?$CJ?$AA@ 000000018005b940     libucrt:cvt.obj
 0002:00002950       ??_C@_08IKHNHAJ@NAN?$CIIND?$CJ?$AA@ 000000018005b950     libucrt:cvt.obj
 0002:00002960       ??_C@_08OFCDMILK@nan?$CIind?$CJ?$AA@ 000000018005b960     libucrt:cvt.obj
 0002:0000296c       ??_C@_05KLBDPFGC@e?$CL000?$AA@ 000000018005b96c     libucrt:cvt.obj
 0002:00002980       __newctype                 000000018005b980     libucrt:ctype.obj
 0002:00002c80       __newclmap                 000000018005bc80     libucrt:ctype.obj
 0002:00002e00       __newcumap                 000000018005be00     libucrt:ctype.obj
 0002:00002f80       _wctype                    000000018005bf80     libucrt:ctype.obj
 0002:00003184       ??_C@_05HGHHAHAP@log10?$AA@ 000000018005c184     libucrt:fpexcept.obj
 0002:0000318c       ??_C@_15PJPFLCCM@?$AAu?$AAk?$AA?$AA@ 000000018005c18c     libucrt:get_qualified_locale.obj
 0002:00003fe0       ??_C@_15EMKDOKLE@?$AAa?$AAr?$AA?$AA@ 000000018005cfe0     libucrt:lcidtoname_downlevel.obj
 0002:00003fe8       ??_C@_15KNPADPLH@?$AAb?$AAg?$AA?$AA@ 000000018005cfe8     libucrt:lcidtoname_downlevel.obj
 0002:00003ff0       ??_C@_15EDMHLDMO@?$AAc?$AAa?$AA?$AA@ 000000018005cff0     libucrt:lcidtoname_downlevel.obj
 0002:00003ff8       ??_C@_1O@BPEAJADD@?$AAz?$AAh?$AA?9?$AAC?$AAH?$AAS?$AA?$AA@ 000000018005cff8     libucrt:lcidtoname_downlevel.obj
 0002:00004008       ??_C@_15LJNHCMNK@?$AAc?$AAs?$AA?$AA@ 000000018005d008     libucrt:lcidtoname_downlevel.obj
 0002:00004010       ??_C@_15FOMCIDHG@?$AAd?$AAa?$AA?$AA@ 000000018005d010     libucrt:lcidtoname_downlevel.obj
 0002:00004018       ??_C@_15NBKABECB@?$AAd?$AAe?$AA?$AA@ 000000018005d018     libucrt:lcidtoname_downlevel.obj
 0002:00004020       ??_C@_15GHPEIIAO@?$AAe?$AAl?$AA?$AA@ 000000018005d020     libucrt:lcidtoname_downlevel.obj
 0002:00004028       ??_C@_15MNPNEAIF@?$AAe?$AAn?$AA?$AA@ 000000018005d028     libucrt:lcidtoname_downlevel.obj
 0002:00004030       ??_C@_15GPIOMPMH@?$AAe?$AAs?$AA?$AA@ 000000018005d030     libucrt:lcidtoname_downlevel.obj
 0002:00004038       ??_C@_15NGLOAKJC@?$AAf?$AAi?$AA?$AA@ 000000018005d038     libucrt:lcidtoname_downlevel.obj
 0002:00004040       ??_C@_15FBKGNKAM@?$AAf?$AAr?$AA?$AA@ 000000018005d040     libucrt:lcidtoname_downlevel.obj
 0002:00004048       ??_C@_15KGGCNEFK@?$AAh?$AAe?$AA?$AA@ 000000018005d048     libucrt:lcidtoname_downlevel.obj
 0002:00004050       ??_C@_15PGHLIDMF@?$AAh?$AAu?$AA?$AA@ 000000018005d050     libucrt:lcidtoname_downlevel.obj
 0002:00004058       ??_C@_15BIEMAPLM@?$AAi?$AAs?$AA?$AA@ 000000018005d058     libucrt:lcidtoname_downlevel.obj
 0002:00004060       ??_C@_15IFJLDHAF@?$AAi?$AAt?$AA?$AA@ 000000018005d060     libucrt:lcidtoname_downlevel.obj
 0002:00004068       ??_C@_15GEMIOCAG@?$AAj?$AAa?$AA?$AA@ 000000018005d068     libucrt:lcidtoname_downlevel.obj
 0002:00004070       ??_C@_15EPELEGJA@?$AAk?$AAo?$AA?$AA@ 000000018005d070     libucrt:lcidtoname_downlevel.obj
 0002:00004078       ??_C@_15NDDHIMN@?$AAn?$AAl?$AA?$AA@ 000000018005d078     libucrt:lcidtoname_downlevel.obj
 0002:00004080       ??_C@_15BPIGNHCD@?$AAn?$AAo?$AA?$AA@ 000000018005d080     libucrt:lcidtoname_downlevel.obj
 0002:00004088       ??_C@_15DEOPBLCG@?$AAp?$AAl?$AA?$AA@ 000000018005d088     libucrt:lcidtoname_downlevel.obj
 0002:00004090       ??_C@_15KBECGEFG@?$AAp?$AAt?$AA?$AA@ 000000018005d090     libucrt:lcidtoname_downlevel.obj
 0002:00004098       ??_C@_15GLJCBFMD@?$AAr?$AAo?$AA?$AA@ 000000018005d098     libucrt:lcidtoname_downlevel.obj
 0002:000040a0       ??_C@_15FEDGKCDI@?$AAr?$AAu?$AA?$AA@ 000000018005d0a0     libucrt:lcidtoname_downlevel.obj
 0002:000040a8       ??_C@_15GLKMLLHM@?$AAh?$AAr?$AA?$AA@ 000000018005d0a8     libucrt:lcidtoname_downlevel.obj
 0002:000040b0       ??_C@_15CPKMFBDB@?$AAs?$AAk?$AA?$AA@ 000000018005d0b0     libucrt:lcidtoname_downlevel.obj
 0002:000040b8       ??_C@_15BAAIOGMK@?$AAs?$AAq?$AA?$AA@ 000000018005d0b8     libucrt:lcidtoname_downlevel.obj
 0002:000040c0       ??_C@_15INNPNOHD@?$AAs?$AAv?$AA?$AA@ 000000018005d0c0     libucrt:lcidtoname_downlevel.obj
 0002:000040c8       ??_C@_15CABMMOGH@?$AAt?$AAh?$AA?$AA@ 000000018005d0c8     libucrt:lcidtoname_downlevel.obj
 0002:000040d0       ??_C@_15BPLIHJJM@?$AAt?$AAr?$AA?$AA@ 000000018005d0d0     libucrt:lcidtoname_downlevel.obj
 0002:000040d8       ??_C@_15NEOEKKDJ@?$AAu?$AAr?$AA?$AA@ 000000018005d0d8     libucrt:lcidtoname_downlevel.obj
 0002:000040e0       ??_C@_15NFICGAJK@?$AAi?$AAd?$AA?$AA@ 000000018005d0e0     libucrt:lcidtoname_downlevel.obj
 0002:000040e8       ??_C@_15HPJPHDM@?$AAb?$AAe?$AA?$AA@ 000000018005d0e8     libucrt:lcidtoname_downlevel.obj
 0002:000040f0       ??_C@_15LCHLGJII@?$AAs?$AAl?$AA?$AA@ 000000018005d0f0     libucrt:lcidtoname_downlevel.obj
 0002:000040f8       ??_C@_15PCFJPHHO@?$AAe?$AAt?$AA?$AA@ 000000018005d0f8     libucrt:lcidtoname_downlevel.obj
 0002:00004100       ??_C@_15HPFPGODN@?$AAl?$AAv?$AA?$AA@ 000000018005d100     libucrt:lcidtoname_downlevel.obj
 0002:00004108       ??_C@_15NFFGKGLG@?$AAl?$AAt?$AA?$AA@ 000000018005d108     libucrt:lcidtoname_downlevel.obj
 0002:00004110       ??_C@_15BDAKCCHN@?$AAf?$AAa?$AA?$AA@ 000000018005d110     libucrt:lcidtoname_downlevel.obj
 0002:00004118       ??_C@_15NFGIAIAJ@?$AAv?$AAi?$AA?$AA@ 000000018005d118     libucrt:lcidtoname_downlevel.obj
 0002:00004120       ??_C@_15LMKNDMHN@?$AAh?$AAy?$AA?$AA@ 000000018005d120     libucrt:lcidtoname_downlevel.obj
 0002:00004128       ??_C@_15IJBHMCFL@?$AAa?$AAz?$AA?$AA@ 000000018005d128     libucrt:lcidtoname_downlevel.obj
 0002:00004130       ??_C@_15EKOFJABL@?$AAe?$AAu?$AA?$AA@ 000000018005d130     libucrt:lcidtoname_downlevel.obj
 0002:00004138       ??_C@_15BGHADCNK@?$AAm?$AAk?$AA?$AA@ 000000018005d138     libucrt:lcidtoname_downlevel.obj
 0002:00004140       ??_C@_15JDNICKHM@?$AAa?$AAf?$AA?$AA@ 000000018005d140     libucrt:lcidtoname_downlevel.obj
 0002:00004148       ??_C@_15KPJEDBKD@?$AAk?$AAa?$AA?$AA@ 000000018005d148     libucrt:lcidtoname_downlevel.obj
 0002:00004150       ??_C@_15PDNFFFEO@?$AAf?$AAo?$AA?$AA@ 000000018005d150     libucrt:lcidtoname_downlevel.obj
 0002:00004158       ??_C@_15OMLEGLOC@?$AAh?$AAi?$AA?$AA@ 000000018005d158     libucrt:lcidtoname_downlevel.obj
 0002:00004160       ??_C@_15IDNNENKK@?$AAm?$AAs?$AA?$AA@ 000000018005d160     libucrt:lcidtoname_downlevel.obj
 0002:00004168       ??_C@_15MACJNBMH@?$AAk?$AAk?$AA?$AA@ 000000018005d168     libucrt:lcidtoname_downlevel.obj
 0002:00004170       ??_C@_15DKDJEOND@?$AAk?$AAy?$AA?$AA@ 000000018005d170     libucrt:lcidtoname_downlevel.obj
 0002:00004178       ??_C@_15DFGDLJBG@?$AAs?$AAw?$AA?$AA@ 000000018005d178     libucrt:lcidtoname_downlevel.obj
 0002:00004180       ??_C@_15BBFAICNG@?$AAu?$AAz?$AA?$AA@ 000000018005d180     libucrt:lcidtoname_downlevel.obj
 0002:00004188       ??_C@_15DKNDCGEA@?$AAt?$AAt?$AA?$AA@ 000000018005d188     libucrt:lcidtoname_downlevel.obj
 0002:00004190       ??_C@_15MGIFMDPL@?$AAp?$AAa?$AA?$AA@ 000000018005d190     libucrt:lcidtoname_downlevel.obj
 0002:00004198       ??_C@_15HCNDBBA@?$AAg?$AAu?$AA?$AA@ 000000018005d198     libucrt:lcidtoname_downlevel.obj
 0002:000041a0       ??_C@_15FNBEIBON@?$AAt?$AAa?$AA?$AA@ 000000018005d1a0     libucrt:lcidtoname_downlevel.obj
 0002:000041a8       ??_C@_15NCHGBGLK@?$AAt?$AAe?$AA?$AA@ 000000018005d1a8     libucrt:lcidtoname_downlevel.obj
 0002:000041b0       ??_C@_15PHPHCBPF@?$AAk?$AAn?$AA?$AA@ 000000018005d1b0     libucrt:lcidtoname_downlevel.obj
 0002:000041b8       ??_C@_15DLGBCKMP@?$AAm?$AAr?$AA?$AA@ 000000018005d1b8     libucrt:lcidtoname_downlevel.obj
 0002:000041c0       ??_C@_15EABBLBFF@?$AAs?$AAa?$AA?$AA@ 000000018005d1c0     libucrt:lcidtoname_downlevel.obj
 0002:000041c8       ??_C@_15CBKOMCOI@?$AAm?$AAn?$AA?$AA@ 000000018005d1c8     libucrt:lcidtoname_downlevel.obj
 0002:000041d0       ??_C@_15CKDMCJAF@?$AAg?$AAl?$AA?$AA@ 000000018005d1d0     libucrt:lcidtoname_downlevel.obj
 0002:000041d8       ??_C@_17CNJFBPG@?$AAk?$AAo?$AAk?$AA?$AA@ 000000018005d1d8     libucrt:lcidtoname_downlevel.obj
 0002:000041e0       ??_C@_17FFBJICPL@?$AAs?$AAy?$AAr?$AA?$AA@ 000000018005d1e0     libucrt:lcidtoname_downlevel.obj
 0002:000041e8       ??_C@_17KPNDCPAF@?$AAd?$AAi?$AAv?$AA?$AA@ 000000018005d1e8     libucrt:lcidtoname_downlevel.obj
 0002:000041f0       ??_C@_11LOCGONAA@?$AA?$AA@ 000000018005d1f0     libucrt:lcidtoname_downlevel.obj
 0002:000041f8       ??_C@_1M@OKAHONE@?$AAa?$AAr?$AA?9?$AAS?$AAA?$AA?$AA@ 000000018005d1f8     libucrt:lcidtoname_downlevel.obj
 0002:00004208       ??_C@_1M@FFFIGIGK@?$AAb?$AAg?$AA?9?$AAB?$AAG?$AA?$AA@ 000000018005d208     libucrt:lcidtoname_downlevel.obj
 0002:00004218       ??_C@_1M@BJNKEDC@?$AAc?$AAa?$AA?9?$AAE?$AAS?$AA?$AA@ 000000018005d218     libucrt:lcidtoname_downlevel.obj
 0002:00004228       ??_C@_1M@IJJHFJHA@?$AAc?$AAs?$AA?9?$AAC?$AAZ?$AA?$AA@ 000000018005d228     libucrt:lcidtoname_downlevel.obj
 0002:00004238       ??_C@_1M@CLPEOBGI@?$AAd?$AAa?$AA?9?$AAD?$AAK?$AA?$AA@ 000000018005d238     libucrt:lcidtoname_downlevel.obj
 0002:00004248       ??_C@_1M@MCMADGCB@?$AAd?$AAe?$AA?9?$AAD?$AAE?$AA?$AA@ 000000018005d248     libucrt:lcidtoname_downlevel.obj
 0002:00004258       ??_C@_1M@OOCKEMAM@?$AAe?$AAl?$AA?9?$AAG?$AAR?$AA?$AA@ 000000018005d258     libucrt:lcidtoname_downlevel.obj
 0002:00004268       ??_C@_1M@DDNJFGID@?$AAf?$AAi?$AA?9?$AAF?$AAI?$AA?$AA@ 000000018005d268     libucrt:lcidtoname_downlevel.obj
 0002:00004278       ??_C@_1M@GLIPPMAC@?$AAf?$AAr?$AA?9?$AAF?$AAR?$AA?$AA@ 000000018005d278     libucrt:lcidtoname_downlevel.obj
 0002:00004288       ??_C@_1M@GFMCHPE@?$AAh?$AAe?$AA?9?$AAI?$AAL?$AA?$AA@ 000000018005d288     libucrt:lcidtoname_downlevel.obj
 0002:00004298       ??_C@_1M@MHLPGNKM@?$AAh?$AAu?$AA?9?$AAH?$AAU?$AA?$AA@ 000000018005d298     libucrt:lcidtoname_downlevel.obj
 0002:000042a8       ??_C@_1M@LPDDNNPN@?$AAi?$AAs?$AA?9?$AAI?$AAS?$AA?$AA@ 000000018005d2a8     libucrt:lcidtoname_downlevel.obj
 0002:000042b8       ??_C@_1M@MADIPODN@?$AAi?$AAt?$AA?9?$AAI?$AAT?$AA?$AA@ 000000018005d2b8     libucrt:lcidtoname_downlevel.obj
 0002:000042c8       ??_C@_1M@IHBJJGG@?$AAn?$AAl?$AA?9?$AAN?$AAL?$AA?$AA@ 000000018005d2c8     libucrt:lcidtoname_downlevel.obj
 0002:000042d8       ??_C@_1M@EANAGDL@?$AAn?$AAb?$AA?9?$AAN?$AAO?$AA?$AA@ 000000018005d2d8     libucrt:lcidtoname_downlevel.obj
 0002:000042e8       ??_C@_1M@NEIEMEGP@?$AAp?$AAl?$AA?9?$AAP?$AAL?$AA?$AA@ 000000018005d2e8     libucrt:lcidtoname_downlevel.obj
 0002:000042f8       ??_C@_1M@BOCFIGEP@?$AAp?$AAt?$AA?9?$AAB?$AAR?$AA?$AA@ 000000018005d2f8     libucrt:lcidtoname_downlevel.obj
 0002:00004308       ??_C@_1M@IMPFOPBG@?$AAr?$AAo?$AA?9?$AAR?$AAO?$AA?$AA@ 000000018005d308     libucrt:lcidtoname_downlevel.obj
 0002:00004318       ??_C@_1M@IDNNEJMM@?$AAr?$AAu?$AA?9?$AAR?$AAU?$AA?$AA@ 000000018005d318     libucrt:lcidtoname_downlevel.obj
 0002:00004328       ??_C@_1M@LILEEOGM@?$AAh?$AAr?$AA?9?$AAH?$AAR?$AA?$AA@ 000000018005d328     libucrt:lcidtoname_downlevel.obj
 0002:00004338       ??_C@_1M@FKIFEHPB@?$AAs?$AAk?$AA?9?$AAS?$AAK?$AA?$AA@ 000000018005d338     libucrt:lcidtoname_downlevel.obj
 0002:00004348       ??_C@_1M@LJMAMNPJ@?$AAs?$AAq?$AA?9?$AAA?$AAL?$AA?$AA@ 000000018005d348     libucrt:lcidtoname_downlevel.obj
 0002:00004358       ??_C@_1M@GIAKDKJK@?$AAs?$AAv?$AA?9?$AAS?$AAE?$AA?$AA@ 000000018005d358     libucrt:lcidtoname_downlevel.obj
 0002:00004368       ??_C@_1M@MKJKIKCL@?$AAt?$AAh?$AA?9?$AAT?$AAH?$AA?$AA@ 000000018005d368     libucrt:lcidtoname_downlevel.obj
 0002:00004378       ??_C@_1M@MFLCCMPB@?$AAt?$AAr?$AA?9?$AAT?$AAR?$AA?$AA@ 000000018005d378     libucrt:lcidtoname_downlevel.obj
 0002:00004388       ??_C@_1M@OIJHDKJN@?$AAu?$AAr?$AA?9?$AAP?$AAK?$AA?$AA@ 000000018005d388     libucrt:lcidtoname_downlevel.obj
 0002:00004398       ??_C@_1M@LHIPCIEK@?$AAi?$AAd?$AA?9?$AAI?$AAD?$AA?$AA@ 000000018005d398     libucrt:lcidtoname_downlevel.obj
 0002:000043a8       ??_C@_1M@MFMOBGI@?$AAu?$AAk?$AA?9?$AAU?$AAA?$AA?$AA@ 000000018005d3a8     libucrt:lcidtoname_downlevel.obj
 0002:000043b8       ??_C@_1M@OBGLJIPL@?$AAb?$AAe?$AA?9?$AAB?$AAY?$AA?$AA@ 000000018005d3b8     libucrt:lcidtoname_downlevel.obj
 0002:000043c8       ??_C@_1M@BCFAJEAD@?$AAs?$AAl?$AA?9?$AAS?$AAI?$AA?$AA@ 000000018005d3c8     libucrt:lcidtoname_downlevel.obj
 0002:000043d8       ??_C@_1M@FKFFEDDN@?$AAe?$AAt?$AA?9?$AAE?$AAE?$AA?$AA@ 000000018005d3d8     libucrt:lcidtoname_downlevel.obj
 0002:000043e8       ??_C@_1M@KGKKAACI@?$AAl?$AAv?$AA?9?$AAL?$AAV?$AA?$AA@ 000000018005d3e8     libucrt:lcidtoname_downlevel.obj
 0002:000043f8       ??_C@_1M@IFGBIJO@?$AAl?$AAt?$AA?9?$AAL?$AAT?$AA?$AA@ 000000018005d3f8     libucrt:lcidtoname_downlevel.obj
 0002:00004408       ??_C@_1M@FGEAHEDM@?$AAf?$AAa?$AA?9?$AAI?$AAR?$AA?$AA@ 000000018005d408     libucrt:lcidtoname_downlevel.obj
 0002:00004418       ??_C@_1M@KBMAIBFN@?$AAv?$AAi?$AA?9?$AAV?$AAN?$AA?$AA@ 000000018005d418     libucrt:lcidtoname_downlevel.obj
 0002:00004428       ??_C@_1M@GPCBKDJK@?$AAh?$AAy?$AA?9?$AAA?$AAM?$AA?$AA@ 000000018005d428     libucrt:lcidtoname_downlevel.obj
 0002:00004438       ??_C@_1BG@BECMDDJB@?$AAa?$AAz?$AA?9?$AAA?$AAZ?$AA?9?$AAL?$AAa?$AAt?$AAn?$AA?$AA@ 000000018005d438     libucrt:lcidtoname_downlevel.obj
 0002:00004450       ??_C@_1M@MAOFCAEA@?$AAe?$AAu?$AA?9?$AAE?$AAS?$AA?$AA@ 000000018005d450     libucrt:lcidtoname_downlevel.obj
 0002:00004460       ??_C@_1M@IGHABKPI@?$AAm?$AAk?$AA?9?$AAM?$AAK?$AA?$AA@ 000000018005d460     libucrt:lcidtoname_downlevel.obj
 0002:00004470       ??_C@_1M@IAIGNEJG@?$AAt?$AAn?$AA?9?$AAZ?$AAA?$AA?$AA@ 000000018005d470     libucrt:lcidtoname_downlevel.obj
 0002:00004480       ??_C@_1M@IIJCOJFA@?$AAx?$AAh?$AA?9?$AAZ?$AAA?$AA?$AA@ 000000018005d480     libucrt:lcidtoname_downlevel.obj
 0002:00004490       ??_C@_1M@LGPJHNJH@?$AAz?$AAu?$AA?9?$AAZ?$AAA?$AA?$AA@ 000000018005d490     libucrt:lcidtoname_downlevel.obj
 0002:000044a0       ??_C@_1M@HOKAOIO@?$AAa?$AAf?$AA?9?$AAZ?$AAA?$AA?$AA@ 000000018005d4a0     libucrt:lcidtoname_downlevel.obj
 0002:000044b0       ??_C@_1M@DPCLHLIE@?$AAk?$AAa?$AA?9?$AAG?$AAE?$AA?$AA@ 000000018005d4b0     libucrt:lcidtoname_downlevel.obj
 0002:000044c0       ??_C@_1M@BLKMHJBI@?$AAf?$AAo?$AA?9?$AAF?$AAO?$AA?$AA@ 000000018005d4c0     libucrt:lcidtoname_downlevel.obj
 0002:000044d0       ??_C@_1M@LGGJAPPB@?$AAh?$AAi?$AA?9?$AAI?$AAN?$AA?$AA@ 000000018005d4d0     libucrt:lcidtoname_downlevel.obj
 0002:000044e0       ??_C@_1M@FIKPIHFE@?$AAm?$AAt?$AA?9?$AAM?$AAT?$AA?$AA@ 000000018005d4e0     libucrt:lcidtoname_downlevel.obj
 0002:000044f0       ??_C@_1M@HEGGPBFA@?$AAs?$AAe?$AA?9?$AAN?$AAO?$AA?$AA@ 000000018005d4f0     libucrt:lcidtoname_downlevel.obj
 0002:00004500       ??_C@_1M@EIBJEEPA@?$AAm?$AAs?$AA?9?$AAM?$AAY?$AA?$AA@ 000000018005d500     libucrt:lcidtoname_downlevel.obj
 0002:00004510       ??_C@_1M@FHLBGMPP@?$AAk?$AAk?$AA?9?$AAK?$AAZ?$AA?$AA@ 000000018005d510     libucrt:lcidtoname_downlevel.obj
 0002:00004520       ??_C@_1M@NGJJLCGI@?$AAk?$AAy?$AA?9?$AAK?$AAG?$AA?$AA@ 000000018005d520     libucrt:lcidtoname_downlevel.obj
 0002:00004530       ??_C@_1M@GIENNBFC@?$AAs?$AAw?$AA?9?$AAK?$AAE?$AA?$AA@ 000000018005d530     libucrt:lcidtoname_downlevel.obj
 0002:00004540       ??_C@_1BG@NDGMJIMJ@?$AAu?$AAz?$AA?9?$AAU?$AAZ?$AA?9?$AAL?$AAa?$AAt?$AAn?$AA?$AA@ 000000018005d540     libucrt:lcidtoname_downlevel.obj
 0002:00004558       ??_C@_1M@IDCCIHBC@?$AAt?$AAt?$AA?9?$AAR?$AAU?$AA?$AA@ 000000018005d558     libucrt:lcidtoname_downlevel.obj
 0002:00004568       ??_C@_1M@LOICPMOJ@?$AAb?$AAn?$AA?9?$AAI?$AAN?$AA?$AA@ 000000018005d568     libucrt:lcidtoname_downlevel.obj
 0002:00004578       ??_C@_1M@KPKKNEAH@?$AAp?$AAa?$AA?9?$AAI?$AAN?$AA?$AA@ 000000018005d578     libucrt:lcidtoname_downlevel.obj
 0002:00004588       ??_C@_1M@PJGPPBOG@?$AAg?$AAu?$AA?9?$AAI?$AAN?$AA?$AA@ 000000018005d588     libucrt:lcidtoname_downlevel.obj
 0002:00004598       ??_C@_1M@KMKMOPHI@?$AAt?$AAa?$AA?9?$AAI?$AAN?$AA?$AA@ 000000018005d598     libucrt:lcidtoname_downlevel.obj
 0002:000045a8       ??_C@_1M@KFEHEPAC@?$AAt?$AAe?$AA?9?$AAI?$AAN?$AA?$AA@ 000000018005d5a8     libucrt:lcidtoname_downlevel.obj
 0002:000045b8       ??_C@_1M@CDCLMGHI@?$AAk?$AAn?$AA?9?$AAI?$AAN?$AA?$AA@ 000000018005d5b8     libucrt:lcidtoname_downlevel.obj
 0002:000045c8       ??_C@_1M@MIODLDKF@?$AAm?$AAl?$AA?9?$AAI?$AAN?$AA?$AA@ 000000018005d5c8     libucrt:lcidtoname_downlevel.obj
 0002:000045d8       ??_C@_1M@PBIEACPO@?$AAm?$AAr?$AA?9?$AAI?$AAN?$AA?$AA@ 000000018005d5d8     libucrt:lcidtoname_downlevel.obj
 0002:000045e8       ??_C@_1M@NIDEAGPH@?$AAs?$AAa?$AA?9?$AAI?$AAN?$AA?$AA@ 000000018005d5e8     libucrt:lcidtoname_downlevel.obj
 0002:000045f8       ??_C@_1M@FHIHCBIO@?$AAm?$AAn?$AA?9?$AAM?$AAN?$AA?$AA@ 000000018005d5f8     libucrt:lcidtoname_downlevel.obj
 0002:00004608       ??_C@_1M@JAIJPENP@?$AAc?$AAy?$AA?9?$AAG?$AAB?$AA?$AA@ 000000018005d608     libucrt:lcidtoname_downlevel.obj
 0002:00004618       ??_C@_1M@PHGFBEPN@?$AAg?$AAl?$AA?9?$AAE?$AAS?$AA?$AA@ 000000018005d618     libucrt:lcidtoname_downlevel.obj
 0002:00004628       ??_C@_1O@KPIPDNCP@?$AAk?$AAo?$AAk?$AA?9?$AAI?$AAN?$AA?$AA@ 000000018005d628     libucrt:lcidtoname_downlevel.obj
 0002:00004638       ??_C@_1O@KNHJLDJA@?$AAs?$AAy?$AAr?$AA?9?$AAS?$AAY?$AA?$AA@ 000000018005d638     libucrt:lcidtoname_downlevel.obj
 0002:00004648       ??_C@_1O@MKEKBLAH@?$AAd?$AAi?$AAv?$AA?9?$AAM?$AAV?$AA?$AA@ 000000018005d648     libucrt:lcidtoname_downlevel.obj
 0002:00004658       ??_C@_1O@OHDCKDDF@?$AAq?$AAu?$AAz?$AA?9?$AAB?$AAO?$AA?$AA@ 000000018005d658     libucrt:lcidtoname_downlevel.obj
 0002:00004668       ??_C@_1M@LEPJNLFD@?$AAn?$AAs?$AA?9?$AAZ?$AAA?$AA?$AA@ 000000018005d668     libucrt:lcidtoname_downlevel.obj
 0002:00004678       ??_C@_1M@OMLEIIJB@?$AAm?$AAi?$AA?9?$AAN?$AAZ?$AA?$AA@ 000000018005d678     libucrt:lcidtoname_downlevel.obj
 0002:00004688       ??_C@_1M@PMPEAILG@?$AAa?$AAr?$AA?9?$AAI?$AAQ?$AA?$AA@ 000000018005d688     libucrt:lcidtoname_downlevel.obj
 0002:00004698       ??_C@_1M@CNKPNOEE@?$AAd?$AAe?$AA?9?$AAC?$AAH?$AA?$AA@ 000000018005d698     libucrt:lcidtoname_downlevel.obj
 0002:000046a8       ??_C@_1M@LKMGMLKO@?$AAe?$AAn?$AA?9?$AAG?$AAB?$AA?$AA@ 000000018005d6a8     libucrt:lcidtoname_downlevel.obj
 0002:000046b8       ??_C@_1M@PGKJFFGL@?$AAe?$AAs?$AA?9?$AAM?$AAX?$AA?$AA@ 000000018005d6b8     libucrt:lcidtoname_downlevel.obj
 0002:000046c8       ??_C@_1M@DNNANBDC@?$AAf?$AAr?$AA?9?$AAB?$AAE?$AA?$AA@ 000000018005d6c8     libucrt:lcidtoname_downlevel.obj
 0002:000046d8       ??_C@_1M@HLGMDFHM@?$AAi?$AAt?$AA?9?$AAC?$AAH?$AA?$AA@ 000000018005d6d8     libucrt:lcidtoname_downlevel.obj
 0002:000046e8       ??_C@_1M@CLLBGJH@?$AAn?$AAl?$AA?9?$AAB?$AAE?$AA?$AA@ 000000018005d6e8     libucrt:lcidtoname_downlevel.obj
 0002:000046f8       ??_C@_1M@BODBOGLF@?$AAn?$AAn?$AA?9?$AAN?$AAO?$AA?$AA@ 000000018005d6f8     libucrt:lcidtoname_downlevel.obj
 0002:00004708       ??_C@_1M@HFFAHKAD@?$AAp?$AAt?$AA?9?$AAP?$AAT?$AA?$AA@ 000000018005d708     libucrt:lcidtoname_downlevel.obj
 0002:00004718       ??_C@_1BG@LNOAKHIE@?$AAs?$AAr?$AA?9?$AAS?$AAP?$AA?9?$AAL?$AAa?$AAt?$AAn?$AA?$AA@ 000000018005d718     libucrt:lcidtoname_downlevel.obj
 0002:00004730       ??_C@_1M@HBMHBGAK@?$AAs?$AAv?$AA?9?$AAF?$AAI?$AA?$AA@ 000000018005d730     libucrt:lcidtoname_downlevel.obj
 0002:00004740       ??_C@_1BG@DGCJGJBE@?$AAa?$AAz?$AA?9?$AAA?$AAZ?$AA?9?$AAC?$AAy?$AAr?$AAl?$AA?$AA@ 000000018005d740     libucrt:lcidtoname_downlevel.obj
 0002:00004758       ??_C@_1M@KEJDAAHB@?$AAs?$AAe?$AA?9?$AAS?$AAE?$AA?$AA@ 000000018005d758     libucrt:lcidtoname_downlevel.obj
 0002:00004768       ??_C@_1M@HEIBJJAD@?$AAm?$AAs?$AA?9?$AAB?$AAN?$AA?$AA@ 000000018005d768     libucrt:lcidtoname_downlevel.obj
 0002:00004778       ??_C@_1BG@PBGJMCEM@?$AAu?$AAz?$AA?9?$AAU?$AAZ?$AA?9?$AAC?$AAy?$AAr?$AAl?$AA?$AA@ 000000018005d778     libucrt:lcidtoname_downlevel.obj
 0002:00004790       ??_C@_1O@LAOBCMDF@?$AAq?$AAu?$AAz?$AA?9?$AAE?$AAC?$AA?$AA@ 000000018005d790     libucrt:lcidtoname_downlevel.obj
 0002:000047a0       ??_C@_1M@POEEMAIO@?$AAa?$AAr?$AA?9?$AAE?$AAG?$AA?$AA@ 000000018005d7a0     libucrt:lcidtoname_downlevel.obj
 0002:000047b0       ??_C@_1M@EFAKDEDL@?$AAz?$AAh?$AA?9?$AAH?$AAK?$AA?$AA@ 000000018005d7b0     libucrt:lcidtoname_downlevel.obj
 0002:000047c0       ??_C@_1M@HKKIJHGI@?$AAd?$AAe?$AA?9?$AAA?$AAT?$AA?$AA@ 000000018005d7c0     libucrt:lcidtoname_downlevel.obj
 0002:000047d0       ??_C@_1M@KBFBEHJF@?$AAe?$AAn?$AA?9?$AAA?$AAU?$AA?$AA@ 000000018005d7d0     libucrt:lcidtoname_downlevel.obj
 0002:000047e0       ??_C@_1M@MNPLFAAH@?$AAe?$AAs?$AA?9?$AAE?$AAS?$AA?$AA@ 000000018005d7e0     libucrt:lcidtoname_downlevel.obj
 0002:000047f0       ??_C@_1M@HJOOJFMA@?$AAf?$AAr?$AA?9?$AAC?$AAA?$AA?$AA@ 000000018005d7f0     libucrt:lcidtoname_downlevel.obj
 0002:00004800       ??_C@_1BG@JPOFPNAB@?$AAs?$AAr?$AA?9?$AAS?$AAP?$AA?9?$AAC?$AAy?$AAr?$AAl?$AA?$AA@ 000000018005d800     libucrt:lcidtoname_downlevel.obj
 0002:00004818       ??_C@_1M@LNFOCMOB@?$AAs?$AAe?$AA?9?$AAF?$AAI?$AA?$AA@ 000000018005d818     libucrt:lcidtoname_downlevel.obj
 0002:00004828       ??_C@_1O@MGJBOAMB@?$AAq?$AAu?$AAz?$AA?9?$AAP?$AAE?$AA?$AA@ 000000018005d828     libucrt:lcidtoname_downlevel.obj
 0002:00004838       ??_C@_1M@GJINLBOK@?$AAa?$AAr?$AA?9?$AAL?$AAY?$AA?$AA@ 000000018005d838     libucrt:lcidtoname_downlevel.obj
 0002:00004848       ??_C@_1M@GGMNHJNL@?$AAz?$AAh?$AA?9?$AAS?$AAG?$AA?$AA@ 000000018005d848     libucrt:lcidtoname_downlevel.obj
 0002:00004858       ??_C@_1M@HOIKODND@?$AAd?$AAe?$AA?9?$AAL?$AAU?$AA?$AA@ 000000018005d858     libucrt:lcidtoname_downlevel.obj
 0002:00004868       ??_C@_1M@DDOCCGFG@?$AAe?$AAn?$AA?9?$AAC?$AAA?$AA?$AA@ 000000018005d868     libucrt:lcidtoname_downlevel.obj
 0002:00004878       ??_C@_1M@BNOEMJLF@?$AAe?$AAs?$AA?9?$AAG?$AAT?$AA?$AA@ 000000018005d878     libucrt:lcidtoname_downlevel.obj
 0002:00004888       ??_C@_1M@EOGNKEK@?$AAf?$AAr?$AA?9?$AAC?$AAH?$AA?$AA@ 000000018005d888     libucrt:lcidtoname_downlevel.obj
 0002:00004898       ??_C@_1M@FLIDJFHL@?$AAh?$AAr?$AA?9?$AAB?$AAA?$AA?$AA@ 000000018005d898     libucrt:lcidtoname_downlevel.obj
 0002:000048a8       ??_C@_1O@FMCELNAJ@?$AAs?$AAm?$AAj?$AA?9?$AAN?$AAO?$AA?$AA@ 000000018005d8a8     libucrt:lcidtoname_downlevel.obj
 0002:000048b8       ??_C@_1M@JHGLJMGJ@?$AAa?$AAr?$AA?9?$AAD?$AAZ?$AA?$AA@ 000000018005d8b8     libucrt:lcidtoname_downlevel.obj
 0002:000048c8       ??_C@_1M@JKKFDCNP@?$AAz?$AAh?$AA?9?$AAM?$AAO?$AA?$AA@ 000000018005d8c8     libucrt:lcidtoname_downlevel.obj
 0002:000048d8       ??_C@_1M@GEEFALPE@?$AAd?$AAe?$AA?9?$AAL?$AAI?$AA?$AA@ 000000018005d8d8     libucrt:lcidtoname_downlevel.obj
 0002:000048e8       ??_C@_1M@IGEOFBG@?$AAe?$AAn?$AA?9?$AAN?$AAZ?$AA?$AA@ 000000018005d8e8     libucrt:lcidtoname_downlevel.obj
 0002:000048f8       ??_C@_1M@KDBONEHP@?$AAe?$AAs?$AA?9?$AAC?$AAR?$AA?$AA@ 000000018005d8f8     libucrt:lcidtoname_downlevel.obj
 0002:00004908       ??_C@_1M@FHMDOHNN@?$AAf?$AAr?$AA?9?$AAL?$AAU?$AA?$AA@ 000000018005d908     libucrt:lcidtoname_downlevel.obj
 0002:00004918       ??_C@_1BG@NFKKMAFG@?$AAb?$AAs?$AA?9?$AAB?$AAA?$AA?9?$AAL?$AAa?$AAt?$AAn?$AA?$AA@ 000000018005d918     libucrt:lcidtoname_downlevel.obj
 0002:00004930       ??_C@_1O@IMNBEMCI@?$AAs?$AAm?$AAj?$AA?9?$AAS?$AAE?$AA?$AA@ 000000018005d930     libucrt:lcidtoname_downlevel.obj
 0002:00004940       ??_C@_1M@DHHMBNDP@?$AAa?$AAr?$AA?9?$AAM?$AAA?$AA?$AA@ 000000018005d940     libucrt:lcidtoname_downlevel.obj
 0002:00004950       ??_C@_1M@BNBLJCGH@?$AAe?$AAn?$AA?9?$AAI?$AAE?$AA?$AA@ 000000018005d950     libucrt:lcidtoname_downlevel.obj
 0002:00004960       ??_C@_1M@GEPAFMDL@?$AAe?$AAs?$AA?9?$AAP?$AAA?$AA?$AA@ 000000018005d960     libucrt:lcidtoname_downlevel.obj
 0002:00004970       ??_C@_1M@OJONDMDL@?$AAf?$AAr?$AA?9?$AAM?$AAC?$AA?$AA@ 000000018005d970     libucrt:lcidtoname_downlevel.obj
 0002:00004980       ??_C@_1BG@OBCNFJB@?$AAs?$AAr?$AA?9?$AAB?$AAA?$AA?9?$AAL?$AAa?$AAt?$AAn?$AA?$AA@ 000000018005d980     libucrt:lcidtoname_downlevel.obj
 0002:00004998       ??_C@_1O@KEMEEGPO@?$AAs?$AAm?$AAa?$AA?9?$AAN?$AAO?$AA?$AA@ 000000018005d998     libucrt:lcidtoname_downlevel.obj
 0002:000049a8       ??_C@_1M@ELMGFODK@?$AAa?$AAr?$AA?9?$AAT?$AAN?$AA?$AA@ 000000018005d9a8     libucrt:lcidtoname_downlevel.obj
 0002:000049b8       ??_C@_1M@BHDLHFAF@?$AAe?$AAn?$AA?9?$AAZ?$AAA?$AA?$AA@ 000000018005d9b8     libucrt:lcidtoname_downlevel.obj
 0002:000049c8       ??_C@_1M@BMGIGLIF@?$AAe?$AAs?$AA?9?$AAD?$AAO?$AA?$AA@ 000000018005d9c8     libucrt:lcidtoname_downlevel.obj
 0002:000049d8       ??_C@_1BG@CMBHIPBE@?$AAs?$AAr?$AA?9?$AAB?$AAA?$AA?9?$AAC?$AAy?$AAr?$AAl?$AA?$AA@ 000000018005d9d8     libucrt:lcidtoname_downlevel.obj
 0002:000049f0       ??_C@_1O@HEDBLHNP@?$AAs?$AAm?$AAa?$AA?9?$AAS?$AAE?$AA?$AA@ 000000018005d9f0     libucrt:lcidtoname_downlevel.obj
 0002:00004a00       ??_C@_1M@DAGCADIM@?$AAa?$AAr?$AA?9?$AAO?$AAM?$AA?$AA@ 000000018005da00     libucrt:lcidtoname_downlevel.obj
 0002:00004a10       ??_C@_1M@FODLMICG@?$AAe?$AAn?$AA?9?$AAJ?$AAM?$AA?$AA@ 000000018005da10     libucrt:lcidtoname_downlevel.obj
 0002:00004a20       ??_C@_1M@DNMLCIHB@?$AAe?$AAs?$AA?9?$AAV?$AAE?$AA?$AA@ 000000018005da20     libucrt:lcidtoname_downlevel.obj
 0002:00004a30       ??_C@_1O@EOKHMKJK@?$AAs?$AAm?$AAs?$AA?9?$AAF?$AAI?$AA?$AA@ 000000018005da30     libucrt:lcidtoname_downlevel.obj
 0002:00004a40       ??_C@_1M@CAFJMKOF@?$AAa?$AAr?$AA?9?$AAY?$AAE?$AA?$AA@ 000000018005da40     libucrt:lcidtoname_downlevel.obj
 0002:00004a50       ??_C@_1M@CBFHIJLI@?$AAe?$AAn?$AA?9?$AAC?$AAB?$AA?$AA@ 000000018005da50     libucrt:lcidtoname_downlevel.obj
 0002:00004a60       ??_C@_1M@BGNFLDN@?$AAe?$AAs?$AA?9?$AAC?$AAO?$AA?$AA@ 000000018005da60     libucrt:lcidtoname_downlevel.obj
 0002:00004a70       ??_C@_1O@JMPHMAMC@?$AAs?$AAm?$AAn?$AA?9?$AAF?$AAI?$AA?$AA@ 000000018005da70     libucrt:lcidtoname_downlevel.obj
 0002:00004a80       ??_C@_1M@JLANABKE@?$AAa?$AAr?$AA?9?$AAS?$AAY?$AA?$AA@ 000000018005da80     libucrt:lcidtoname_downlevel.obj
 0002:00004a90       ??_C@_1M@HPKGCFGN@?$AAe?$AAn?$AA?9?$AAB?$AAZ?$AA?$AA@ 000000018005da90     libucrt:lcidtoname_downlevel.obj
 0002:00004aa0       ??_C@_1M@OLJCMLGM@?$AAe?$AAs?$AA?9?$AAP?$AAE?$AA?$AA@ 000000018005daa0     libucrt:lcidtoname_downlevel.obj
 0002:00004ab0       ??_C@_1M@MKKGFKLE@?$AAa?$AAr?$AA?9?$AAJ?$AAO?$AA?$AA@ 000000018005dab0     libucrt:lcidtoname_downlevel.obj
 0002:00004ac0       ??_C@_1M@EKPGLDNI@?$AAe?$AAn?$AA?9?$AAT?$AAT?$AA?$AA@ 000000018005dac0     libucrt:lcidtoname_downlevel.obj
 0002:00004ad0       ??_C@_1M@OONGHFHE@?$AAe?$AAs?$AA?9?$AAA?$AAR?$AA?$AA@ 000000018005dad0     libucrt:lcidtoname_downlevel.obj
 0002:00004ae0       ??_C@_1M@OOJFGBHE@?$AAa?$AAr?$AA?9?$AAL?$AAB?$AA?$AA@ 000000018005dae0     libucrt:lcidtoname_downlevel.obj
 0002:00004af0       ??_C@_1M@GCEJHNEG@?$AAe?$AAn?$AA?9?$AAZ?$AAW?$AA?$AA@ 000000018005daf0     libucrt:lcidtoname_downlevel.obj
 0002:00004b00       ??_C@_1M@JNOCAHJI@?$AAe?$AAs?$AA?9?$AAE?$AAC?$AA?$AA@ 000000018005db00     libucrt:lcidtoname_downlevel.obj
 0002:00004b10       ??_C@_1M@JEFHPGGB@?$AAa?$AAr?$AA?9?$AAK?$AAW?$AA?$AA@ 000000018005db10     libucrt:lcidtoname_downlevel.obj
 0002:00004b20       ??_C@_1M@MLKIBJOJ@?$AAe?$AAn?$AA?9?$AAP?$AAH?$AA?$AA@ 000000018005db20     libucrt:lcidtoname_downlevel.obj
 0002:00004b30       ??_C@_1M@BDNIPEND@?$AAe?$AAs?$AA?9?$AAC?$AAL?$AA?$AA@ 000000018005db30     libucrt:lcidtoname_downlevel.obj
 0002:00004b40       ??_C@_1M@MPNMEKBD@?$AAa?$AAr?$AA?9?$AAA?$AAE?$AA?$AA@ 000000018005db40     libucrt:lcidtoname_downlevel.obj
 0002:00004b50       ??_C@_1M@KBJALCPI@?$AAe?$AAs?$AA?9?$AAU?$AAY?$AA?$AA@ 000000018005db50     libucrt:lcidtoname_downlevel.obj
 0002:00004b60       ??_C@_1M@LLCCOAGA@?$AAa?$AAr?$AA?9?$AAB?$AAH?$AA?$AA@ 000000018005db60     libucrt:lcidtoname_downlevel.obj
 0002:00004b70       ??_C@_1M@PBFNCDEL@?$AAe?$AAs?$AA?9?$AAP?$AAY?$AA?$AA@ 000000018005db70     libucrt:lcidtoname_downlevel.obj
 0002:00004b80       ??_C@_1M@EDGINPNP@?$AAa?$AAr?$AA?9?$AAQ?$AAA?$AA?$AA@ 000000018005db80     libucrt:lcidtoname_downlevel.obj
 0002:00004b90       ??_C@_1M@MKDBIIJI@?$AAe?$AAs?$AA?9?$AAB?$AAO?$AA?$AA@ 000000018005db90     libucrt:lcidtoname_downlevel.obj
 0002:00004ba0       ??_C@_1M@CPKKEBLD@?$AAe?$AAs?$AA?9?$AAS?$AAV?$AA?$AA@ 000000018005dba0     libucrt:lcidtoname_downlevel.obj
 0002:00004bb0       ??_C@_1M@NDBGMMJL@?$AAe?$AAs?$AA?9?$AAH?$AAN?$AA?$AA@ 000000018005dbb0     libucrt:lcidtoname_downlevel.obj
 0002:00004bc0       ??_C@_1M@JIJIBHDP@?$AAe?$AAs?$AA?9?$AAN?$AAI?$AA?$AA@ 000000018005dbc0     libucrt:lcidtoname_downlevel.obj
 0002:00004bd0       ??_C@_1M@CGFMKEEK@?$AAe?$AAs?$AA?9?$AAP?$AAR?$AA?$AA@ 000000018005dbd0     libucrt:lcidtoname_downlevel.obj
 0002:00004be0       ??_C@_1O@ICJHKIIK@?$AAz?$AAh?$AA?9?$AAC?$AAH?$AAT?$AA?$AA@ 000000018005dbe0     libucrt:lcidtoname_downlevel.obj
 0002:00004bf0       ??_C@_15CLNEJCE@?$AAs?$AAr?$AA?$AA@ 000000018005dbf0     libucrt:lcidtoname_downlevel.obj
 0002:00005a40       ??_C@_1M@KAHEKEIG@?$AAa?$AAf?$AA?9?$AAz?$AAa?$AA?$AA@ 000000018005ea40     libucrt:lcidtoname_downlevel.obj
 0002:00005a50       ??_C@_1M@GIECOABL@?$AAa?$AAr?$AA?9?$AAa?$AAe?$AA?$AA@ 000000018005ea50     libucrt:lcidtoname_downlevel.obj
 0002:00005a60       ??_C@_1M@BMLMEKGI@?$AAa?$AAr?$AA?9?$AAb?$AAh?$AA?$AA@ 000000018005ea60     libucrt:lcidtoname_downlevel.obj
 0002:00005a70       ??_C@_1M@DAPFDGGB@?$AAa?$AAr?$AA?9?$AAd?$AAz?$AA?$AA@ 000000018005ea70     libucrt:lcidtoname_downlevel.obj
 0002:00005a80       ??_C@_1M@FJNKGKIG@?$AAa?$AAr?$AA?9?$AAe?$AAg?$AA?$AA@ 000000018005ea80     libucrt:lcidtoname_downlevel.obj
 0002:00005a90       ??_C@_1M@FLGKKCLO@?$AAa?$AAr?$AA?9?$AAi?$AAq?$AA?$AA@ 000000018005ea90     libucrt:lcidtoname_downlevel.obj
 0002:00005aa0       ??_C@_1M@GNDIPALM@?$AAa?$AAr?$AA?9?$AAj?$AAo?$AA?$AA@ 000000018005eaa0     libucrt:lcidtoname_downlevel.obj
 0002:00005ab0       ??_C@_1M@DDMJFMGJ@?$AAa?$AAr?$AA?9?$AAk?$AAw?$AA?$AA@ 000000018005eab0     libucrt:lcidtoname_downlevel.obj
 0002:00005ac0       ??_C@_1M@EJALMLHM@?$AAa?$AAr?$AA?9?$AAl?$AAb?$AA?$AA@ 000000018005eac0     libucrt:lcidtoname_downlevel.obj
 0002:00005ad0       ??_C@_1M@MOBDBLOC@?$AAa?$AAr?$AA?9?$AAl?$AAy?$AA?$AA@ 000000018005ead0     libucrt:lcidtoname_downlevel.obj
 0002:00005ae0       ??_C@_1M@JAOCLHDH@?$AAa?$AAr?$AA?9?$AAm?$AAa?$AA?$AA@ 000000018005eae0     libucrt:lcidtoname_downlevel.obj
 0002:00005af0       ??_C@_1M@JHPMKJIE@?$AAa?$AAr?$AA?9?$AAo?$AAm?$AA?$AA@ 000000018005eaf0     libucrt:lcidtoname_downlevel.obj
 0002:00005b00       ??_C@_1M@OEPGHFNH@?$AAa?$AAr?$AA?9?$AAq?$AAa?$AA?$AA@ 000000018005eb00     libucrt:lcidtoname_downlevel.obj
 0002:00005b10       ??_C@_1M@KJDONENM@?$AAa?$AAr?$AA?9?$AAs?$AAa?$AA?$AA@ 000000018005eb10     libucrt:lcidtoname_downlevel.obj
 0002:00005b20       ??_C@_1M@DMJDKLKM@?$AAa?$AAr?$AA?9?$AAs?$AAy?$AA?$AA@ 000000018005eb20     libucrt:lcidtoname_downlevel.obj
 0002:00005b30       ??_C@_1M@OMFIPEDC@?$AAa?$AAr?$AA?9?$AAt?$AAn?$AA?$AA@ 000000018005eb30     libucrt:lcidtoname_downlevel.obj
 0002:00005b40       ??_C@_1M@IHMHGAON@?$AAa?$AAr?$AA?9?$AAy?$AAe?$AA?$AA@ 000000018005eb40     libucrt:lcidtoname_downlevel.obj
 0002:00005b50       ??_C@_1BG@KDCPGJGB@?$AAa?$AAz?$AA?9?$AAa?$AAz?$AA?9?$AAc?$AAy?$AAr?$AAl?$AA?$AA@ 000000018005eb50     libucrt:lcidtoname_downlevel.obj
 0002:00005b68       ??_C@_1BG@IBCKDDOE@?$AAa?$AAz?$AA?9?$AAa?$AAz?$AA?9?$AAl?$AAa?$AAt?$AAn?$AA?$AA@ 000000018005eb68     libucrt:lcidtoname_downlevel.obj
 0002:00005b80       ??_C@_1M@EGPFDCPD@?$AAb?$AAe?$AA?9?$AAb?$AAy?$AA?$AA@ 000000018005eb80     libucrt:lcidtoname_downlevel.obj
 0002:00005b90       ??_C@_1M@PCMGMCGC@?$AAb?$AAg?$AA?9?$AAb?$AAg?$AA?$AA@ 000000018005eb90     libucrt:lcidtoname_downlevel.obj
 0002:00005ba0       ??_C@_1M@BJBMFGOB@?$AAb?$AAn?$AA?9?$AAi?$AAn?$AA?$AA@ 000000018005eba0     libucrt:lcidtoname_downlevel.obj
 0002:00005bb0       ??_C@_1BG@EAKMMACD@?$AAb?$AAs?$AA?9?$AAb?$AAa?$AA?9?$AAl?$AAa?$AAt?$AAn?$AA?$AA@ 000000018005ebb0     libucrt:lcidtoname_downlevel.obj
 0002:00005bc8       ??_C@_1M@KGADAODK@?$AAc?$AAa?$AA?9?$AAe?$AAs?$AA?$AA@ 000000018005ebc8     libucrt:lcidtoname_downlevel.obj
 0002:00005bd8       ??_C@_1M@COAJPDHI@?$AAc?$AAs?$AA?9?$AAc?$AAz?$AA?$AA@ 000000018005ebd8     libucrt:lcidtoname_downlevel.obj
 0002:00005be8       ??_C@_1M@DHBHFONH@?$AAc?$AAy?$AA?9?$AAg?$AAb?$AA?$AA@ 000000018005ebe8     libucrt:lcidtoname_downlevel.obj
 0002:00005bf8       ??_C@_1M@IMGKELGA@?$AAd?$AAa?$AA?9?$AAd?$AAk?$AA?$AA@ 000000018005ebf8     libucrt:lcidtoname_downlevel.obj
 0002:00005c08       ??_C@_1M@NNDGDNGA@?$AAd?$AAe?$AA?9?$AAa?$AAt?$AA?$AA@ 000000018005ec08     libucrt:lcidtoname_downlevel.obj
 0002:00005c18       ??_C@_1M@IKDBHEEM@?$AAd?$AAe?$AA?9?$AAc?$AAh?$AA?$AA@ 000000018005ec18     libucrt:lcidtoname_downlevel.obj
 0002:00005c28       ??_C@_1M@GFFOJMCJ@?$AAd?$AAe?$AA?9?$AAd?$AAe?$AA?$AA@ 000000018005ec28     libucrt:lcidtoname_downlevel.obj
 0002:00005c38       ??_C@_1M@MDNLKBPM@?$AAd?$AAe?$AA?9?$AAl?$AAi?$AA?$AA@ 000000018005ec38     libucrt:lcidtoname_downlevel.obj
 0002:00005c48       ??_C@_1M@NJBEEJNL@?$AAd?$AAe?$AA?9?$AAl?$AAu?$AA?$AA@ 000000018005ec48     libucrt:lcidtoname_downlevel.obj
 0002:00005c58       ??_C@_1O@GNNELBAP@?$AAd?$AAi?$AAv?$AA?9?$AAm?$AAv?$AA?$AA@ 000000018005ec58     libucrt:lcidtoname_downlevel.obj
 0002:00005c68       ??_C@_1M@EJLEOGAE@?$AAe?$AAl?$AA?9?$AAg?$AAr?$AA?$AA@ 000000018005ec68     libucrt:lcidtoname_downlevel.obj
 0002:00005c78       ??_C@_1M@GMPONJN@?$AAe?$AAn?$AA?9?$AAa?$AAu?$AA?$AA@ 000000018005ec78     libucrt:lcidtoname_downlevel.obj
 0002:00005c88       ??_C@_1M@NIDIIPGF@?$AAe?$AAn?$AA?9?$AAb?$AAz?$AA?$AA@ 000000018005ec88     libucrt:lcidtoname_downlevel.obj
 0002:00005c98       ??_C@_1M@JEHMIMFO@?$AAe?$AAn?$AA?9?$AAc?$AAa?$AA?$AA@ 000000018005ec98     libucrt:lcidtoname_downlevel.obj
 0002:00005ca8       ??_C@_1M@IGMJCDLA@?$AAe?$AAn?$AA?9?$AAc?$AAb?$AA?$AA@ 000000018005eca8     libucrt:lcidtoname_downlevel.obj
 0002:00005cb8       ??_C@_1M@BNFIGBKG@?$AAe?$AAn?$AA?9?$AAg?$AAb?$AA?$AA@ 000000018005ecb8     libucrt:lcidtoname_downlevel.obj
 0002:00005cc8       ??_C@_1M@LKIFDIGP@?$AAe?$AAn?$AA?9?$AAi?$AAe?$AA?$AA@ 000000018005ecc8     libucrt:lcidtoname_downlevel.obj
 0002:00005cd8       ??_C@_1M@PJKFGCCO@?$AAe?$AAn?$AA?9?$AAj?$AAm?$AA?$AA@ 000000018005ecd8     libucrt:lcidtoname_downlevel.obj
 0002:00005ce8       ??_C@_1M@KPPKEPBO@?$AAe?$AAn?$AA?9?$AAn?$AAz?$AA?$AA@ 000000018005ece8     libucrt:lcidtoname_downlevel.obj
 0002:00005cf8       ??_C@_1M@GMDGLDOB@?$AAe?$AAn?$AA?9?$AAp?$AAh?$AA?$AA@ 000000018005ecf8     libucrt:lcidtoname_downlevel.obj
 0002:00005d08       ??_C@_1M@ONGIBJNA@?$AAe?$AAn?$AA?9?$AAt?$AAt?$AA?$AA@ 000000018005ed08     libucrt:lcidtoname_downlevel.obj
 0002:00005d18       ??_C@_1M@LLODPCMM@?$AAe?$AAn?$AA?9?$AAu?$AAs?$AA?$AA@ 000000018005ed18     libucrt:lcidtoname_downlevel.obj
 0002:00005d28       ??_C@_1M@LAKFNPAN@?$AAe?$AAn?$AA?9?$AAz?$AAa?$AA?$AA@ 000000018005ed28     libucrt:lcidtoname_downlevel.obj
 0002:00005d38       ??_C@_1M@MFNHNHEO@?$AAe?$AAn?$AA?9?$AAz?$AAw?$AA?$AA@ 000000018005ed38     libucrt:lcidtoname_downlevel.obj
 0002:00005d48       ??_C@_1M@EJEINPHM@?$AAe?$AAs?$AA?9?$AAa?$AAr?$AA?$AA@ 000000018005ed48     libucrt:lcidtoname_downlevel.obj
 0002:00005d58       ??_C@_1M@GNKPCCJA@?$AAe?$AAs?$AA?9?$AAb?$AAo?$AA?$AA@ 000000018005ed58     libucrt:lcidtoname_downlevel.obj
 0002:00005d68       ??_C@_1M@LEEGFONL@?$AAe?$AAs?$AA?9?$AAc?$AAl?$AA?$AA@ 000000018005ed68     libucrt:lcidtoname_downlevel.obj
 0002:00005d78       ??_C@_1M@KGPDPBDF@?$AAe?$AAs?$AA?9?$AAc?$AAo?$AA?$AA@ 000000018005ed78     libucrt:lcidtoname_downlevel.obj
 0002:00005d88       ??_C@_1M@EIAHOHH@?$AAe?$AAs?$AA?9?$AAc?$AAr?$AA?$AA@ 000000018005ed88     libucrt:lcidtoname_downlevel.obj
 0002:00005d98       ??_C@_1M@LLPGMBIN@?$AAe?$AAs?$AA?9?$AAd?$AAo?$AA?$AA@ 000000018005ed98     libucrt:lcidtoname_downlevel.obj
 0002:00005da8       ??_C@_1M@DKHMKNJA@?$AAe?$AAs?$AA?9?$AAe?$AAc?$AA?$AA@ 000000018005eda8     libucrt:lcidtoname_downlevel.obj
 0002:00005db8       ??_C@_1M@GKGFPKAP@?$AAe?$AAs?$AA?9?$AAe?$AAs?$AA?$AA@ 000000018005edb8     libucrt:lcidtoname_downlevel.obj
 0002:00005dc8       ??_C@_1M@LKHKGDLN@?$AAe?$AAs?$AA?9?$AAg?$AAt?$AA?$AA@ 000000018005edc8     libucrt:lcidtoname_downlevel.obj
 0002:00005dd8       ??_C@_1M@HEIIGGJD@?$AAe?$AAs?$AA?9?$AAh?$AAn?$AA?$AA@ 000000018005edd8     libucrt:lcidtoname_downlevel.obj
 0002:00005de8       ??_C@_1M@FBDHPPGD@?$AAe?$AAs?$AA?9?$AAm?$AAx?$AA?$AA@ 000000018005ede8     libucrt:lcidtoname_downlevel.obj
 0002:00005df8       ??_C@_1M@DPAGLNDH@?$AAe?$AAs?$AA?9?$AAn?$AAi?$AA?$AA@ 000000018005edf8     libucrt:lcidtoname_downlevel.obj
 0002:00005e08       ??_C@_1M@MDGOPGDD@?$AAe?$AAs?$AA?9?$AAp?$AAa?$AA?$AA@ 000000018005ee08     libucrt:lcidtoname_downlevel.obj
 0002:00005e18       ??_C@_1M@EMAMGBGE@?$AAe?$AAs?$AA?9?$AAp?$AAe?$AA?$AA@ 000000018005ee18     libucrt:lcidtoname_downlevel.obj
 0002:00005e28       ??_C@_1M@IBMCAOEC@?$AAe?$AAs?$AA?9?$AAp?$AAr?$AA?$AA@ 000000018005ee28     libucrt:lcidtoname_downlevel.obj
 0002:00005e38       ??_C@_1M@FGMDIJED@?$AAe?$AAs?$AA?9?$AAp?$AAy?$AA?$AA@ 000000018005ee38     libucrt:lcidtoname_downlevel.obj
 0002:00005e48       ??_C@_1M@IIDEOLLL@?$AAe?$AAs?$AA?9?$AAs?$AAv?$AA?$AA@ 000000018005ee48     libucrt:lcidtoname_downlevel.obj
 0002:00005e58       ??_C@_1M@GAOBIPA@?$AAe?$AAs?$AA?9?$AAu?$AAy?$AA?$AA@ 000000018005ee58     libucrt:lcidtoname_downlevel.obj
 0002:00005e68       ??_C@_1M@JKFFICHJ@?$AAe?$AAs?$AA?9?$AAv?$AAe?$AA?$AA@ 000000018005ee68     libucrt:lcidtoname_downlevel.obj
 0002:00005e78       ??_C@_1M@PNMLOJDF@?$AAe?$AAt?$AA?9?$AAe?$AAe?$AA?$AA@ 000000018005ee78     libucrt:lcidtoname_downlevel.obj
 0002:00005e88       ??_C@_1M@GHHLIKEI@?$AAe?$AAu?$AA?9?$AAe?$AAs?$AA?$AA@ 000000018005ee88     libucrt:lcidtoname_downlevel.obj
 0002:00005e98       ??_C@_1M@PBNONODE@?$AAf?$AAa?$AA?9?$AAi?$AAr?$AA?$AA@ 000000018005ee98     libucrt:lcidtoname_downlevel.obj
 0002:00005ea8       ??_C@_1M@JEEHPMIL@?$AAf?$AAi?$AA?9?$AAf?$AAi?$AA?$AA@ 000000018005eea8     libucrt:lcidtoname_downlevel.obj
 0002:00005eb8       ??_C@_1M@LMDCNDBA@?$AAf?$AAo?$AA?9?$AAf?$AAo?$AA?$AA@ 000000018005eeb8     libucrt:lcidtoname_downlevel.obj
 0002:00005ec8       ??_C@_1M@JKEOHLDK@?$AAf?$AAr?$AA?9?$AAb?$AAe?$AA?$AA@ 000000018005eec8     libucrt:lcidtoname_downlevel.obj
 0002:00005ed8       ??_C@_1M@NOHADPMI@?$AAf?$AAr?$AA?9?$AAc?$AAa?$AA?$AA@ 000000018005eed8     libucrt:lcidtoname_downlevel.obj
 0002:00005ee8       ??_C@_1M@KDHIHAEC@?$AAf?$AAr?$AA?9?$AAc?$AAh?$AA?$AA@ 000000018005eee8     libucrt:lcidtoname_downlevel.obj
 0002:00005ef8       ??_C@_1M@MMBBFGAK@?$AAf?$AAr?$AA?9?$AAf?$AAr?$AA?$AA@ 000000018005eef8     libucrt:lcidtoname_downlevel.obj
 0002:00005f08       ??_C@_1M@PAFNENNF@?$AAf?$AAr?$AA?9?$AAl?$AAu?$AA?$AA@ 000000018005ef08     libucrt:lcidtoname_downlevel.obj
 0002:00005f18       ??_C@_1M@EOHDJGDD@?$AAf?$AAr?$AA?9?$AAm?$AAc?$AA?$AA@ 000000018005ef18     libucrt:lcidtoname_downlevel.obj
 0002:00005f28       ??_C@_1M@FAPLLOPF@?$AAg?$AAl?$AA?9?$AAe?$AAs?$AA?$AA@ 000000018005ef28     libucrt:lcidtoname_downlevel.obj
 0002:00005f38       ??_C@_1M@FOPBFLOO@?$AAg?$AAu?$AA?9?$AAi?$AAn?$AA?$AA@ 000000018005ef38     libucrt:lcidtoname_downlevel.obj
 0002:00005f48       ??_C@_1M@KBMCINPM@?$AAh?$AAe?$AA?9?$AAi?$AAl?$AA?$AA@ 000000018005ef48     libucrt:lcidtoname_downlevel.obj
 0002:00005f58       ??_C@_1M@BBPHKFPJ@?$AAh?$AAi?$AA?9?$AAi?$AAn?$AA?$AA@ 000000018005ef58     libucrt:lcidtoname_downlevel.obj
 0002:00005f68       ??_C@_1M@PMBNDPHD@?$AAh?$AAr?$AA?9?$AAb?$AAa?$AA?$AA@ 000000018005ef68     libucrt:lcidtoname_downlevel.obj
 0002:00005f78       ??_C@_1M@BPCKOEGE@?$AAh?$AAr?$AA?9?$AAh?$AAr?$AA?$AA@ 000000018005ef78     libucrt:lcidtoname_downlevel.obj
 0002:00005f88       ??_C@_1M@GACBMHKE@?$AAh?$AAu?$AA?9?$AAh?$AAu?$AA?$AA@ 000000018005ef88     libucrt:lcidtoname_downlevel.obj
 0002:00005f98       ??_C@_1M@MILPAJJC@?$AAh?$AAy?$AA?9?$AAa?$AAm?$AA?$AA@ 000000018005ef98     libucrt:lcidtoname_downlevel.obj
 0002:00005fa8       ??_C@_1M@BABBICEC@?$AAi?$AAd?$AA?9?$AAi?$AAd?$AA?$AA@ 000000018005efa8     libucrt:lcidtoname_downlevel.obj
 0002:00005fb8       ??_C@_1M@BIKNHHPF@?$AAi?$AAs?$AA?9?$AAi?$AAs?$AA?$AA@ 000000018005efb8     libucrt:lcidtoname_downlevel.obj
 0002:00005fc8       ??_C@_1M@NMPCJPHE@?$AAi?$AAt?$AA?9?$AAc?$AAh?$AA?$AA@ 000000018005efc8     libucrt:lcidtoname_downlevel.obj
 0002:00005fd8       ??_C@_1M@GHKGFEDF@?$AAi?$AAt?$AA?9?$AAi?$AAt?$AA?$AA@ 000000018005efd8     libucrt:lcidtoname_downlevel.obj
 0002:00005fe8       ??_C@_1M@NIEJCJJA@?$AAj?$AAa?$AA?9?$AAj?$AAp?$AA?$AA@ 000000018005efe8     libucrt:lcidtoname_downlevel.obj
 0002:00005ff8       ??_C@_1M@JILFNBIM@?$AAk?$AAa?$AA?9?$AAg?$AAe?$AA?$AA@ 000000018005eff8     libucrt:lcidtoname_downlevel.obj
 0002:00006008       ??_C@_1M@PACPMGPH@?$AAk?$AAk?$AA?9?$AAk?$AAz?$AA?$AA@ 000000018005f008     libucrt:lcidtoname_downlevel.obj
 0002:00006018       ??_C@_1M@IELFGMHA@?$AAk?$AAn?$AA?9?$AAi?$AAn?$AA?$AA@ 000000018005f018     libucrt:lcidtoname_downlevel.obj
 0002:00006028       ??_C@_1O@IBBJHCH@?$AAk?$AAo?$AAk?$AA?9?$AAi?$AAn?$AA?$AA@ 000000018005f028     libucrt:lcidtoname_downlevel.obj
 0002:00006038       ??_C@_1M@DMHAEOGC@?$AAk?$AAo?$AA?9?$AAk?$AAr?$AA?$AA@ 000000018005f038     libucrt:lcidtoname_downlevel.obj
 0002:00006048       ??_C@_1M@HBAHBIGA@?$AAk?$AAy?$AA?9?$AAk?$AAg?$AA?$AA@ 000000018005f048     libucrt:lcidtoname_downlevel.obj
 0002:00006058       ??_C@_1M@KPMILCJG@?$AAl?$AAt?$AA?9?$AAl?$AAt?$AA?$AA@ 000000018005f058     libucrt:lcidtoname_downlevel.obj
 0002:00006068       ??_C@_1M@BDEKKCA@?$AAl?$AAv?$AA?9?$AAl?$AAv?$AA?$AA@ 000000018005f068     libucrt:lcidtoname_downlevel.obj
 0002:00006078       ??_C@_1M@ELCKCCJJ@?$AAm?$AAi?$AA?9?$AAn?$AAz?$AA?$AA@ 000000018005f078     libucrt:lcidtoname_downlevel.obj
 0002:00006088       ??_C@_1M@CBOOLAPA@?$AAm?$AAk?$AA?9?$AAm?$AAk?$AA?$AA@ 000000018005f088     libucrt:lcidtoname_downlevel.obj
 0002:00006098       ??_C@_1M@GPHNBJKN@?$AAm?$AAl?$AA?9?$AAi?$AAn?$AA?$AA@ 000000018005f098     libucrt:lcidtoname_downlevel.obj
 0002:000060a8       ??_C@_1M@PABJILIG@?$AAm?$AAn?$AA?9?$AAm?$AAn?$AA?$AA@ 000000018005f0a8     libucrt:lcidtoname_downlevel.obj
 0002:000060b8       ??_C@_1M@FGBKKIPG@?$AAm?$AAr?$AA?9?$AAi?$AAn?$AA?$AA@ 000000018005f0b8     libucrt:lcidtoname_downlevel.obj
 0002:000060c8       ??_C@_1M@NDBPDDAL@?$AAm?$AAs?$AA?9?$AAb?$AAn?$AA?$AA@ 000000018005f0c8     libucrt:lcidtoname_downlevel.obj
 0002:000060d8       ??_C@_1M@OPIHOOPI@?$AAm?$AAs?$AA?9?$AAm?$AAy?$AA?$AA@ 000000018005f0d8     libucrt:lcidtoname_downlevel.obj
 0002:000060e8       ??_C@_1M@PPDBCNFM@?$AAm?$AAt?$AA?9?$AAm?$AAt?$AA?$AA@ 000000018005f0e8     libucrt:lcidtoname_downlevel.obj
 0002:000060f8       ??_C@_1M@KDJDKMDD@?$AAn?$AAb?$AA?9?$AAn?$AAo?$AA?$AA@ 000000018005f0f8     libucrt:lcidtoname_downlevel.obj
 0002:00006108       ??_C@_1M@KFCFLMJP@?$AAn?$AAl?$AA?9?$AAb?$AAe?$AA?$AA@ 000000018005f108     libucrt:lcidtoname_downlevel.obj
 0002:00006118       ??_C@_1M@KPOPDDGO@?$AAn?$AAl?$AA?9?$AAn?$AAl?$AA?$AA@ 000000018005f118     libucrt:lcidtoname_downlevel.obj
 0002:00006128       ??_C@_1M@LJKPEMLN@?$AAn?$AAn?$AA?9?$AAn?$AAo?$AA?$AA@ 000000018005f128     libucrt:lcidtoname_downlevel.obj
 0002:00006138       ??_C@_1M@BDGHHBFL@?$AAn?$AAs?$AA?9?$AAz?$AAa?$AA?$AA@ 000000018005f138     libucrt:lcidtoname_downlevel.obj
 0002:00006148       ??_C@_1M@IDEHOAP@?$AAp?$AAa?$AA?9?$AAi?$AAn?$AA?$AA@ 000000018005f148     libucrt:lcidtoname_downlevel.obj
 0002:00006158       ??_C@_1M@HDBKGOGH@?$AAp?$AAl?$AA?9?$AAp?$AAl?$AA?$AA@ 000000018005f158     libucrt:lcidtoname_downlevel.obj
 0002:00006168       ??_C@_1M@LJLLCMEH@?$AAp?$AAt?$AA?9?$AAb?$AAr?$AA?$AA@ 000000018005f168     libucrt:lcidtoname_downlevel.obj
 0002:00006178       ??_C@_1M@NCMONAAL@?$AAp?$AAt?$AA?9?$AAp?$AAt?$AA?$AA@ 000000018005f178     libucrt:lcidtoname_downlevel.obj
 0002:00006188       ??_C@_1O@EAKMAJDN@?$AAq?$AAu?$AAz?$AA?9?$AAb?$AAo?$AA?$AA@ 000000018005f188     libucrt:lcidtoname_downlevel.obj
 0002:00006198       ??_C@_1O@BHHPIGDN@?$AAq?$AAu?$AAz?$AA?9?$AAe?$AAc?$AA?$AA@ 000000018005f198     libucrt:lcidtoname_downlevel.obj
 0002:000061a8       ??_C@_1O@GBAPEKMJ@?$AAq?$AAu?$AAz?$AA?9?$AAp?$AAe?$AA?$AA@ 000000018005f1a8     libucrt:lcidtoname_downlevel.obj
 0002:000061b8       ??_C@_1M@CLGLEFBO@?$AAr?$AAo?$AA?9?$AAr?$AAo?$AA?$AA@ 000000018005f1b8     libucrt:lcidtoname_downlevel.obj
 0002:000061c8       ??_C@_1M@CEEDODME@?$AAr?$AAu?$AA?9?$AAr?$AAu?$AA?$AA@ 000000018005f1c8     libucrt:lcidtoname_downlevel.obj
 0002:000061d8       ??_C@_1M@HPKKKMPP@?$AAs?$AAa?$AA?9?$AAi?$AAn?$AA?$AA@ 000000018005f1d8     libucrt:lcidtoname_downlevel.obj
 0002:000061e8       ??_C@_1M@BKMAIGOJ@?$AAs?$AAe?$AA?9?$AAf?$AAi?$AA?$AA@ 000000018005f1e8     libucrt:lcidtoname_downlevel.obj
 0002:000061f8       ??_C@_1M@NDPIFLFI@?$AAs?$AAe?$AA?9?$AAn?$AAo?$AA?$AA@ 000000018005f1f8     libucrt:lcidtoname_downlevel.obj
 0002:00006208       ??_C@_1M@DANKKHJ@?$AAs?$AAe?$AA?9?$AAs?$AAe?$AA?$AA@ 000000018005f208     libucrt:lcidtoname_downlevel.obj
 0002:00006218       ??_C@_1M@PNBLONPJ@?$AAs?$AAk?$AA?9?$AAs?$AAk?$AA?$AA@ 000000018005f218     libucrt:lcidtoname_downlevel.obj
 0002:00006228       ??_C@_1M@LFMODOAL@?$AAs?$AAl?$AA?9?$AAs?$AAi?$AA?$AA@ 000000018005f228     libucrt:lcidtoname_downlevel.obj
 0002:00006238       ??_C@_1O@DFKOMPG@?$AAs?$AAm?$AAa?$AA?9?$AAn?$AAo?$AA?$AA@ 000000018005f238     libucrt:lcidtoname_downlevel.obj
 0002:00006248       ??_C@_1O@NDKPBNNH@?$AAs?$AAm?$AAa?$AA?9?$AAs?$AAe?$AA?$AA@ 000000018005f248     libucrt:lcidtoname_downlevel.obj
 0002:00006258       ??_C@_1O@PLLKBHAB@?$AAs?$AAm?$AAj?$AA?9?$AAn?$AAo?$AA?$AA@ 000000018005f258     libucrt:lcidtoname_downlevel.obj
 0002:00006268       ??_C@_1O@CLEPOGCA@?$AAs?$AAm?$AAj?$AA?9?$AAs?$AAe?$AA?$AA@ 000000018005f268     libucrt:lcidtoname_downlevel.obj
 0002:00006278       ??_C@_1O@DLGJGKMK@?$AAs?$AAm?$AAn?$AA?9?$AAf?$AAi?$AA?$AA@ 000000018005f278     libucrt:lcidtoname_downlevel.obj
 0002:00006288       ??_C@_1O@OJDJGAJC@?$AAs?$AAm?$AAs?$AA?9?$AAf?$AAi?$AA?$AA@ 000000018005f288     libucrt:lcidtoname_downlevel.obj
 0002:00006298       ??_C@_1M@BOFOGHPB@?$AAs?$AAq?$AA?9?$AAa?$AAl?$AA?$AA@ 000000018005f298     libucrt:lcidtoname_downlevel.obj
 0002:000062a8       ??_C@_1BG@LJBBIPGB@?$AAs?$AAr?$AA?9?$AAb?$AAa?$AA?9?$AAc?$AAy?$AAr?$AAl?$AA?$AA@ 000000018005f2a8     libucrt:lcidtoname_downlevel.obj
 0002:000062c0       ??_C@_1BG@JLBENFOE@?$AAs?$AAr?$AA?9?$AAb?$AAa?$AA?9?$AAl?$AAa?$AAt?$AAn?$AA?$AA@ 000000018005f2c0     libucrt:lcidtoname_downlevel.obj
 0002:000062d8       ??_C@_1BG@KODPNHE@?$AAs?$AAr?$AA?9?$AAs?$AAp?$AA?9?$AAc?$AAy?$AAr?$AAl?$AA?$AA@ 000000018005f2d8     libucrt:lcidtoname_downlevel.obj
 0002:000062f0       ??_C@_1BG@CIOGKHPB@?$AAs?$AAr?$AA?9?$AAs?$AAp?$AA?9?$AAl?$AAa?$AAt?$AAn?$AA?$AA@ 000000018005f2f0     libucrt:lcidtoname_downlevel.obj
 0002:00006308       ??_C@_1M@NGFJLMAC@?$AAs?$AAv?$AA?9?$AAf?$AAi?$AA?$AA@ 000000018005f308     libucrt:lcidtoname_downlevel.obj
 0002:00006318       ??_C@_1M@MPJEJAJC@?$AAs?$AAv?$AA?9?$AAs?$AAe?$AA?$AA@ 000000018005f318     libucrt:lcidtoname_downlevel.obj
 0002:00006328       ??_C@_1M@MPNDHLFK@?$AAs?$AAw?$AA?9?$AAk?$AAe?$AA?$AA@ 000000018005f328     libucrt:lcidtoname_downlevel.obj
 0002:00006338       ??_C@_1O@KOHBJJI@?$AAs?$AAy?$AAr?$AA?9?$AAs?$AAy?$AA?$AA@ 000000018005f338     libucrt:lcidtoname_downlevel.obj
 0002:00006348       ??_C@_1M@LDCEFHA@?$AAt?$AAa?$AA?9?$AAi?$AAn?$AA?$AA@ 000000018005f348     libucrt:lcidtoname_downlevel.obj
 0002:00006358       ??_C@_1M@CNJOFAK@?$AAt?$AAe?$AA?9?$AAi?$AAn?$AA?$AA@ 000000018005f358     libucrt:lcidtoname_downlevel.obj
 0002:00006368       ??_C@_1M@GNAECACD@?$AAt?$AAh?$AA?9?$AAt?$AAh?$AA?$AA@ 000000018005f368     libucrt:lcidtoname_downlevel.obj
 0002:00006378       ??_C@_1M@CHBIHOJO@?$AAt?$AAn?$AA?9?$AAz?$AAa?$AA?$AA@ 000000018005f378     libucrt:lcidtoname_downlevel.obj
 0002:00006388       ??_C@_1M@GCCMIGPJ@?$AAt?$AAr?$AA?9?$AAt?$AAr?$AA?$AA@ 000000018005f388     libucrt:lcidtoname_downlevel.obj
 0002:00006398       ??_C@_1M@CELMCNBK@?$AAt?$AAt?$AA?9?$AAr?$AAu?$AA?$AA@ 000000018005f398     libucrt:lcidtoname_downlevel.obj
 0002:000063a8       ??_C@_1M@KLMCELGA@?$AAu?$AAk?$AA?9?$AAu?$AAa?$AA?$AA@ 000000018005f3a8     libucrt:lcidtoname_downlevel.obj
 0002:000063b8       ??_C@_1M@EPAJJAJF@?$AAu?$AAr?$AA?9?$AAp?$AAk?$AA?$AA@ 000000018005f3b8     libucrt:lcidtoname_downlevel.obj
 0002:000063c8       ??_C@_1BG@GEGPMCDJ@?$AAu?$AAz?$AA?9?$AAu?$AAz?$AA?9?$AAc?$AAy?$AAr?$AAl?$AA?$AA@ 000000018005f3c8     libucrt:lcidtoname_downlevel.obj
 0002:000063e0       ??_C@_1BG@EGGKJILM@?$AAu?$AAz?$AA?9?$AAu?$AAz?$AA?9?$AAl?$AAa?$AAt?$AAn?$AA?$AA@ 000000018005f3e0     libucrt:lcidtoname_downlevel.obj
 0002:000063f8       ??_C@_1M@GFOCLFF@?$AAv?$AAi?$AA?9?$AAv?$AAn?$AA?$AA@ 000000018005f3f8     libucrt:lcidtoname_downlevel.obj
 0002:00006408       ??_C@_1M@CPAMEDFI@?$AAx?$AAh?$AA?9?$AAz?$AAa?$AA?$AA@ 000000018005f408     libucrt:lcidtoname_downlevel.obj
 0002:00006418       ??_C@_1O@EBKIFIGN@?$AAz?$AAh?$AA?9?$AAc?$AAh?$AAs?$AA?$AA@ 000000018005f418     libucrt:lcidtoname_downlevel.obj
 0002:00006428       ??_C@_1O@NMHPGANE@?$AAz?$AAh?$AA?9?$AAc?$AAh?$AAt?$AA?$AA@ 000000018005f428     libucrt:lcidtoname_downlevel.obj
 0002:00006438       ??_C@_1M@LPINJOMC@?$AAz?$AAh?$AA?9?$AAc?$AAn?$AA?$AA@ 000000018005f438     libucrt:lcidtoname_downlevel.obj
 0002:00006448       ??_C@_1M@OCJEJODD@?$AAz?$AAh?$AA?9?$AAh?$AAk?$AA?$AA@ 000000018005f448     libucrt:lcidtoname_downlevel.obj
 0002:00006458       ??_C@_1M@DNDLJINH@?$AAz?$AAh?$AA?9?$AAm?$AAo?$AA?$AA@ 000000018005f458     libucrt:lcidtoname_downlevel.obj
 0002:00006468       ??_C@_1M@MBFDNDND@?$AAz?$AAh?$AA?9?$AAs?$AAg?$AA?$AA@ 000000018005f468     libucrt:lcidtoname_downlevel.obj
 0002:00006478       ??_C@_1M@IMEPLEPE@?$AAz?$AAh?$AA?9?$AAt?$AAw?$AA?$AA@ 000000018005f478     libucrt:lcidtoname_downlevel.obj
 0002:00006488       ??_C@_1M@BBGHNHJP@?$AAz?$AAu?$AA?9?$AAz?$AAa?$AA?$AA@ 000000018005f488     libucrt:lcidtoname_downlevel.obj
 0002:00006494       ??_C@_00CNPNBAHC@?$AA@     000000018005f494     libucrt:mbrtowc.obj
 0002:000064a0       ?large_power_data@?1??multiply_by_power_of_ten@__crt_strtox@@YA_NAEAUbig_integer@2@I@Z@4QBIB 000000018005f4a0     libucrt:cfout.obj
 0002:00006db0       ?large_power_indices@?1??multiply_by_power_of_ten@__crt_strtox@@YA_NAEAUbig_integer@2@I@Z@4QBUunpack_index@?1??12@YA_N0I@Z@B 000000018005fdb0     libucrt:cfout.obj
 0002:00006e48       ?small_powers_of_ten@?1??multiply_by_power_of_ten@__crt_strtox@@YA_NAEAUbig_integer@2@I@Z@4QBIB 000000018005fe48     libucrt:cfout.obj
 0002:00006e6c       ??_C@_01GBGANLPD@0?$AA@    000000018005fe6c     libucrt:cfout.obj
 0002:00006e70       ??_C@_05DNEBIAHO@1?$CDINF?$AA@ 000000018005fe70     libucrt:cfout.obj
 0002:00006e78       ??_C@_06IMKFLFPG@1?$CDQNAN?$AA@ 000000018005fe78     libucrt:cfout.obj
 0002:00006e80       ??_C@_06PGGFOGJG@1?$CDSNAN?$AA@ 000000018005fe80     libucrt:cfout.obj
 0002:00006e88       ??_C@_05PHHOCPM@1?$CDIND?$AA@ 000000018005fe88     libucrt:cfout.obj
 0002:000070f0       ??_C@_1BA@BALFACEM@?$AAC?$AAO?$AAN?$AAO?$AAU?$AAT?$AA$?$AA?$AA@ 00000001800600f0     libucrt:initcon.obj
 0002:00007100       __log10_256_lead           0000000180060100     libucrt:log10_256_lead_tail_table.obj
 0002:00007910       __log10_256_tail           0000000180060910     libucrt:log10_256_lead_tail_table.obj
 0002:00008120       __log_F_inv_qword          0000000180061120     libucrt:log_f_inv_qword_table.obj
 0002:00008930       ??_C@_1BK@DBDEIDLH@?$AAK?$AAE?$AAR?$AAN?$AAE?$AAL?$AA3?$AA2?$AA?4?$AAD?$AAL?$AAL@ 0000000180061930     DelayImp:delayhlp.obj
 0002:00008950       ??_C@_0BI@OMNLIJDB@AcquireSRWLockExclusive@ 0000000180061950     DelayImp:delayhlp.obj
 0002:00008968       ??_C@_0BI@HMIEPCNJ@ReleaseSRWLockExclusive@ 0000000180061968     DelayImp:delayhlp.obj
 0002:00008980       __pfnDliFailureHook2       0000000180061980     DelayImp:delayhk1.obj
 0002:00008990       _load_config_used          0000000180061990     LIBCMT:loadcfg.obj
 0002:0002fa80       kStaticDictionaryHash      0000000180088a80     dictionary_hash.obj
 0002:00041558       __pfnDliNotifyHook2        000000018009a558     win_delay_load_hook.obj
 0002:000704e0       ??_C@_1JK@EBHCJEOF@?$AAd?$AA?3?$AA?2?$AAb?$AAo?$AAa?$AAr?$AAd?$AAa?$AAc?$AAt?$AAi?$AAv?$AAe?$AA?2@ 00000001800c94e0     backward_references_hq.obj
 0002:00070580       ??_C@_1EA@IEMACFPK@?$AAc?$AAu?$AAr?$AA_?$AAl?$AAe?$AAn?$AA?5?$AA?$DM?$AA?$DN?$AA?5?$AAM?$AAA?$AAX?$AA_@ 00000001800c9580     backward_references_hq.obj
 0002:000705c0       ??_C@_1HM@FMDKDIOH@?$AA0?$AA?5?$AA?$DN?$AA?$DN?$AA?5?$AAm?$AAe?$AAm?$AAc?$AAm?$AAp?$AA?$CI?$AA?$CG?$AAd?$AAa@ 00000001800c95c0     backward_references_hq.obj
 0002:00070640       ??_C@_1JI@JLEAGFFB@?$AAd?$AA?3?$AA?2?$AAb?$AAo?$AAa?$AAr?$AAd?$AAa?$AAc?$AAt?$AAi?$AAv?$AAe?$AA?2@ 00000001800c9640     backward_references_hq.obj
 0002:000706e0       ??_C@_1JA@PFMALJOK@?$AAB?$AAa?$AAc?$AAk?$AAw?$AAa?$AAr?$AAd?$AAM?$AAa?$AAt?$AAc?$AAh?$AAL?$AAe@ 00000001800c96e0     backward_references_hq.obj
 0002:00070770       ??_C@_1KK@NOEIEEKO@?$AAm?$AAa?$AAt?$AAc?$AAh?$AAe?$AAs?$AA?$FL?$AAj?$AA?$FN?$AA?4?$AAd?$AAi?$AAs?$AAt@ 00000001800c9770     backward_references_hq.obj
 0002:00070820       ??_C@_1JA@IMIKJEGJ@?$AAd?$AA?3?$AA?2?$AAb?$AAo?$AAa?$AAr?$AAd?$AAa?$AAc?$AAt?$AAi?$AAv?$AAe?$AA?2@ 00000001800c9820     block_splitter.obj
 0002:000708b0       ??_C@_1CM@PDOMDNHO@?$AAn?$AAu?$AAm?$AA_?$AAh?$AAi?$AAs?$AAt?$AAo?$AAg?$AAr?$AAa?$AAm?$AAs?$AA?5@ 00000001800c98b0     block_splitter.obj
 0002:000708e0       ??_C@_1CK@OLCNBEMM@?$AA?$CI?$AAk?$AA?5?$AA?$DO?$AA?$DO?$AA?5?$AA3?$AA?$CJ?$AA?5?$AA?$DM?$AA?5?$AAb?$AAi?$AAt?$AAm@ 00000001800c98e0     block_splitter.obj
 0002:00070910       ??_C@_1EE@NEDKHLGC@?$AA?$CI?$AA?$CI?$AAs?$AAi?$AAz?$AAe?$AA_?$AAt?$AA?$CJ?$AAc?$AAu?$AAr?$AA_?$AAi?$AAd@ 00000001800c9910     block_splitter.obj
 0002:00070958       ??_C@_1DM@IJHEGAFB@?$AAb?$AAl?$AAo?$AAc?$AAk?$AA_?$AAi?$AAd?$AAs?$AA?$FL?$AAi?$AA?$FN?$AA?5?$AA?$DM?$AA?5@ 00000001800c9958     block_splitter.obj
 0002:00070998       ??_C@_1DE@IKEMHFMN@?$AAn?$AAe?$AAx?$AAt?$AA_?$AAi?$AAd?$AA?5?$AA?$DM?$AA?$DN?$AA?5?$AAn?$AAu?$AAm?$AA_@ 00000001800c9998     block_splitter.obj
 0002:000709d0       ??_C@_1CO@POMIBJFD@?$AAb?$AAl?$AAo?$AAc?$AAk?$AA_?$AAi?$AAd?$AAx?$AA?5?$AA?$DM?$AA?5?$AAn?$AAu?$AAm@ 00000001800c99d0     block_splitter.obj
 0002:00070a00       ??_C@_1DA@LLDHLABM@?$AAb?$AAl?$AAo?$AAc?$AAk?$AA_?$AAi?$AAd?$AAx?$AA?5?$AA?$DN?$AA?$DN?$AA?5?$AAn?$AAu@ 00000001800c9a00     block_splitter.obj
 0002:00070a30       ??_C@_1EE@KJGBOBN@?$AAn?$AAu?$AAm?$AA_?$AAc?$AAl?$AAu?$AAs?$AAt?$AAe?$AAr?$AAs?$AA?5?$AA?$DN?$AA?$DN@ 00000001800c9a30     block_splitter.obj
 0002:00070a80       ??_C@_1EI@KCLAADDM@?$AAn?$AAu?$AAm?$AA_?$AAc?$AAl?$AAu?$AAs?$AAt?$AAe?$AAr?$AAs?$AA?5?$AA?$DN?$AA?$DN@ 00000001800c9a80     block_splitter.obj
 0002:00070ad0       ??_C@_1IA@ONJBLDHN@?$AAd?$AA?3?$AA?2?$AAb?$AAo?$AAa?$AAr?$AAd?$AAa?$AAc?$AAt?$AAi?$AAv?$AAe?$AA?2@ 00000001800c9ad0     brotli_bit_stream.obj
 0002:00070b50       ??_C@_1CM@EDCOCLJE@?$AA?$CI?$AAb?$AAi?$AAt?$AAs?$AA?5?$AA?$DO?$AA?$DO?$AA?5?$AAn?$AA_?$AAb?$AAi?$AAt?$AAs@ 00000001800c9b50     brotli_bit_stream.obj
 0002:00070b80       ??_C@_1BK@HNNFJADL@?$AAn?$AA_?$AAb?$AAi?$AAt?$AAs?$AA?5?$AA?$DM?$AA?$DN?$AA?5?$AA5?$AA6@ 00000001800c9b80     brotli_bit_stream.obj
 0002:00070ba0       ??_C@_1IO@BMIKLCIO@?$AAd?$AA?3?$AA?2?$AAb?$AAo?$AAa?$AAr?$AAd?$AAa?$AAc?$AAt?$AAi?$AAv?$AAe?$AA?2@ 00000001800c9ba0     brotli_bit_stream.obj
 0002:00070c30       ??_C@_1BG@DLDFFMJC@?$AAl?$AAe?$AAn?$AAg?$AAt?$AAh?$AA?5?$AA?$DO?$AA?5?$AA0@ 00000001800c9c30     brotli_bit_stream.obj
 0002:00070c48       ??_C@_1CI@GMDCJAAD@?$AAl?$AAe?$AAn?$AAg?$AAt?$AAh?$AA?5?$AA?$DM?$AA?$DN?$AA?5?$AA?$CI?$AA1?$AA?5?$AA?$DM?$AA?$DM@ 00000001800c9c48     brotli_bit_stream.obj
 0002:00070c70       ??_C@_1BC@CJKJFFMJ@?$AAl?$AAg?$AA?5?$AA?$DM?$AA?$DN?$AA?5?$AA2?$AA4@ 00000001800c9c70     brotli_bit_stream.obj
 0002:00070c90       ??_C@_1EE@DOFOPLMO@?$AAn?$AAu?$AAm?$AA?5?$AA?$DM?$AA?$DN?$AA?5?$AAB?$AAR?$AAO?$AAT?$AAL?$AAI?$AA_?$AAN@ 00000001800c9c90     brotli_bit_stream.obj
 0002:00070cd8       ??_C@_1CC@DMPIMGIA@?$AAm?$AAa?$AAx?$AA_?$AAv?$AAa?$AAl?$AAu?$AAe?$AA?5?$AA?$DM?$AA?5?$AA2?$AA5?$AA6@ 00000001800c9cd8     brotli_bit_stream.obj
 0002:00070d00       ??_C@_1CC@MMOHIFNO@?$AAi?$AAn?$AAd?$AAe?$AAx?$AA?5?$AA?$DM?$AA?5?$AAm?$AAt?$AAf?$AA_?$AAs?$AAi?$AAz@ 00000001800c9d00     brotli_bit_stream.obj
 0002:00070d28       ??_C@_1BO@DINONKKP@?$AA?$CK?$AAo?$AAu?$AAt?$AA_?$AAs?$AAi?$AAz?$AAe?$AA?5?$AA?$DM?$AA?$DN?$AA?5?$AAi@ 00000001800c9d28     brotli_bit_stream.obj
 0002:00070d50       ??_C@_1IO@FGAIBNMI@?$AAd?$AA?3?$AA?2?$AAb?$AAo?$AAa?$AAr?$AAd?$AAa?$AAc?$AAt?$AAi?$AAv?$AAe?$AA?2@ 00000001800c9d50     compress_fragment.obj
 0002:00070de0       ??_C@_1BO@POBPHOCK@?$AAn?$AAe?$AAx?$AAt?$AA_?$AAe?$AAm?$AAi?$AAt?$AA?5?$AA?$DM?$AA?5?$AAi?$AAp@ 00000001800c9de0     compress_fragment.obj
 0002:00070e00       ??_C@_1DK@GEJLBPCF@?$AAh?$AAa?$AAs?$AAh?$AA?5?$AA?$DN?$AA?$DN?$AA?5?$AAH?$AAa?$AAs?$AAh?$AA?$CI?$AAn?$AAe@ 00000001800c9e00     compress_fragment.obj
 0002:00070e40       ??_C@_1CK@LPFHJPBE@?$AAc?$AAa?$AAn?$AAd?$AAi?$AAd?$AAa?$AAt?$AAe?$AA?5?$AA?$DO?$AA?$DN?$AA?5?$AAb?$AAa@ 00000001800c9e40     compress_fragment.obj
 0002:00070e70       ??_C@_1BO@NJGNGDBA@?$AAc?$AAa?$AAn?$AAd?$AAi?$AAd?$AAa?$AAt?$AAe?$AA?5?$AA?$DM?$AA?5?$AAi?$AAp@ 00000001800c9e70     compress_fragment.obj
 0002:00070e90       ??_C@_1EM@HJJPEPBA@?$AA0?$AA?5?$AA?$DN?$AA?$DN?$AA?5?$AAm?$AAe?$AAm?$AAc?$AAm?$AAp?$AA?$CI?$AAb?$AAa?$AAs@ 00000001800c9e90     compress_fragment.obj
 0002:00070ee0       ??_C@_1CI@GFMJLNDG@?$AAn?$AAe?$AAx?$AAt?$AA_?$AAe?$AAm?$AAi?$AAt?$AA?5?$AA?$DM?$AA?$DN?$AA?5?$AAi?$AAp@ 00000001800c9ee0     compress_fragment.obj
 0002:00070f08       ??_C@_1DK@PINMPNNJ@?$AAt?$AAo?$AAt?$AAa?$AAl?$AA_?$AAb?$AAl?$AAo?$AAc?$AAk?$AA_?$AAs?$AAi?$AAz@ 00000001800c9f08     compress_fragment.obj
 0002:00070f48       ??_C@_1BA@JBOOGIGP@?$AAi?$AAs?$AA_?$AAl?$AAa?$AAs?$AAt@ 00000001800c9f48     compress_fragment.obj
 0002:00070f58       ??_C@_13COJANIEC@?$AA0@    00000001800c9f58     compress_fragment.obj
 0002:00070f60       ??_C@_1KA@DIMPPOHF@?$AAd?$AA?3?$AA?2?$AAb?$AAo?$AAa?$AAr?$AAd?$AAa?$AAc?$AAt?$AAi?$AAv?$AAe?$AA?2@ 00000001800c9f60     compress_fragment_two_pass.obj
 0002:00071000       ??_C@_1DA@JPFPEEHF@?$AAh?$AAa?$AAs?$AAh?$AA?5?$AA?$DN?$AA?$DN?$AA?5?$AAH?$AAa?$AAs?$AAh?$AA?$CI?$AAi?$AAp@ 00000001800ca000     compress_fragment_two_pass.obj
 0002:00071030       ??_C@_1BG@HGMPLICG@?$AAc?$AAo?$AAd?$AAe?$AA?5?$AA?$DM?$AA?5?$AA1?$AA2?$AA8@ 00000001800ca030     compress_fragment_two_pass.obj
 0002:00071050       ??_C@_1HI@DGNPHDMB@?$AAd?$AA?3?$AA?2?$AAb?$AAo?$AAa?$AAr?$AAd?$AAa?$AAc?$AAt?$AAi?$AAv?$AAe?$AA?2@ 00000001800ca050     encode.obj
 0002:000710c8       ??_C@_1BG@BBOKOPBH@?$AAt?$AAo?$AAt?$AAa?$AAl?$AA?5?$AA?$CB?$AA?$DN?$AA?5?$AA0@ 00000001800ca0c8     encode.obj
 0002:000710e0       ??_C@_1DI@OMEJLHDB@?$AAs?$AA?9?$AA?$DO?$AAp?$AAa?$AAr?$AAa?$AAm?$AAs?$AA?4?$AAh?$AAa?$AAs?$AAh?$AAe@ 00000001800ca0e0     encode.obj
 0002:00071120       ??_C@_1EI@HGMGEBIE@?$AAs?$AA?9?$AA?$DO?$AAi?$AAn?$AAp?$AAu?$AAt?$AA_?$AAp?$AAo?$AAs?$AA_?$AA?5?$AA?$DO@ 00000001800ca120     encode.obj
 0002:00071170       ??_C@_1FM@OHHNEIHC@?$AAs?$AA?9?$AA?$DO?$AAi?$AAn?$AAp?$AAu?$AAt?$AA_?$AAp?$AAo?$AAs?$AA_?$AA?5?$AA?$DO@ 00000001800ca170     encode.obj
 0002:000711d0       ??_C@_1FO@GAFHHCDL@?$AAs?$AA?9?$AA?$DO?$AAi?$AAn?$AAp?$AAu?$AAt?$AA_?$AAp?$AAo?$AAs?$AA_?$AA?5?$AA?9@ 00000001800ca1d0     encode.obj
 0002:00071230       ??_C@_1DI@KGGAOPJL@?$AAo?$AAu?$AAt?$AA_?$AAb?$AAy?$AAt?$AAe?$AAs?$AA?5?$AA?$DM?$AA?$DN?$AA?5?$AA?$CK?$AAa@ 00000001800ca230     encode.obj
 0002:00071270       ??_C@_1GI@DLOLGCDM@?$AA?$CI?$AAs?$AAt?$AAo?$AAr?$AAa?$AAg?$AAe?$AA_?$AAi?$AAx?$AA?5?$AA?$CG?$AA?5?$AA7@ 00000001800ca270     encode.obj
 0002:000712e0       ??_C@_1II@LBAGFFDG@?$AAd?$AA?3?$AA?2?$AAb?$AAo?$AAa?$AAr?$AAd?$AAa?$AAc?$AAt?$AAi?$AAv?$AAe?$AA?2@ 00000001800ca2e0     entropy_encode.obj
 0002:00071368       ??_C@_1CA@OOKGFPFO@?$AAm?$AAa?$AAx?$AA_?$AAd?$AAe?$AAp?$AAt?$AAh?$AA?5?$AA?$DM?$AA?$DN?$AA?5?$AA1?$AA5@ 00000001800ca368     entropy_encode.obj
 0002:00071388       ??_C@_1CA@EJMDDGPL@?$AAr?$AAe?$AAp?$AAe?$AAt?$AAi?$AAt?$AAi?$AAo?$AAn?$AAs?$AA?5?$AA?$DO?$AA?5?$AA0@ 00000001800ca388     entropy_encode.obj
 0002:000713b0       ??_C@_1HO@LPDLCCFP@?$AAd?$AA?3?$AA?2?$AAb?$AAo?$AAa?$AAr?$AAd?$AAa?$AAc?$AAt?$AAi?$AAv?$AAe?$AA?2@ 00000001800ca3b0     metablock.obj
 0002:00071430       ??_C@_1DI@DLGKHGEC@?$AAm?$AAb?$AA?9?$AA?$DO?$AAc?$AAo?$AAm?$AAm?$AAa?$AAn?$AAd?$AA_?$AAh?$AAi?$AAs@ 00000001800ca430     metablock.obj
 0002:00071468       ??_C@_1DK@MFPLELFL@?$AAm?$AAb?$AA?9?$AA?$DO?$AAl?$AAi?$AAt?$AAe?$AAr?$AAa?$AAl?$AA_?$AAc?$AAo?$AAn@ 00000001800ca468     metablock.obj
 0002:000714a8       ??_C@_1DI@PBEIPFJ@?$AAm?$AAb?$AA?9?$AA?$DO?$AAl?$AAi?$AAt?$AAe?$AAr?$AAa?$AAl?$AA_?$AAh?$AAi?$AAs@ 00000001800ca4a8     metablock.obj
 0002:000714e0       ??_C@_1DM@MHLCJMNE@?$AAm?$AAb?$AA?9?$AA?$DO?$AAd?$AAi?$AAs?$AAt?$AAa?$AAn?$AAc?$AAe?$AA_?$AAc?$AAo@ 00000001800ca4e0     metablock.obj
 0002:00071520       ??_C@_1DK@PPDCOKKK@?$AAm?$AAb?$AA?9?$AA?$DO?$AAd?$AAi?$AAs?$AAt?$AAa?$AAn?$AAc?$AAe?$AA_?$AAh?$AAi@ 00000001800ca520     metablock.obj
 0002:00071560       ??_C@_1IG@OHCHDDBH@?$AAd?$AA?3?$AA?2?$AAb?$AAo?$AAa?$AAr?$AAd?$AAa?$AAc?$AAt?$AAi?$AAv?$AAe?$AA?2@ 00000001800ca560     metablock.obj
 0002:000715e8       ??_C@_1CC@EADFGHAH@?$AA?$CK?$AAh?$AAi?$AAs?$AAt?$AAo?$AAg?$AAr?$AAa?$AAm?$AAs?$AA?5?$AA?$DN?$AA?$DN?$AA?5@ 00000001800ca5e8     metablock.obj
 0002:00071610       ??_C@_1FG@FGLDKCON@?$AAn?$AAu?$AAm?$AA_?$AAc?$AAo?$AAn?$AAt?$AAe?$AAx?$AAt?$AAs?$AA?5?$AA?$DM?$AA?$DN@ 00000001800ca610     metablock.obj
 0002:00071668       ??_C@_1DG@OKCGPKIB@?$AAp?$AAe?$AAr?$AAs?$AAi?$AAs?$AAt?$AAe?$AAn?$AAt?$AA?$CI?$AA?$CJ?$AA?4?$AAI?$AAs@ 00000001800ca668     stream_coder.obj
 0002:000716a0       ??_C@_1DA@FBGAEOIO@?$AA?$CB?$AAp?$AAe?$AAr?$AAs?$AAi?$AAs?$AAt?$AAe?$AAn?$AAt?$AA?$CI?$AA?$CJ?$AA?4?$AAI@ 00000001800ca6a0     stream_coder.obj
 0002:000716d0       ??_C@_1CO@JCKLEFMA@?$AA?$CB?$AAp?$AAe?$AAr?$AAs?$AAi?$AAs?$AAt?$AAe?$AAn?$AAt?$AA?$CI?$AA?$CJ?$AA?4?$AAI@ 00000001800ca6d0     stream_coder.obj
 0002:00071700       ??_C@_1BE@GMLLOIPJ@?$AAr?$AAe?$AAf?$AAs?$AA_?$AA?5?$AA?$DO?$AA?5?$AA0@ 00000001800ca700     stream_coder.obj
 0002:00071718       ??_C@_1CC@GBFLAAPF@?$AAw?$AAr?$AAa?$AAp?$AA?9?$AA?$DO?$AAr?$AAe?$AAf?$AAs?$AA_?$AA?5?$AA?$DN?$AA?$DN?$AA?5@ 00000001800ca718     stream_coder.obj
 0002:00071740       ??_C@_1FG@CENJGJLN@?$AAd?$AA?3?$AA?2?$AAb?$AAo?$AAa?$AAr?$AAd?$AAa?$AAc?$AAt?$AAi?$AAv?$AAe?$AA?2@ 00000001800ca740     stream_coder.obj
 0002:000717a0       ??_C@_1GA@PFOOBIAG@?$AAl?$AAe?$AAn?$AAg?$AAt?$AAh?$AA?5?$AA?$DM?$AA?$DN?$AA?5?$AAi?$AAm?$AAp?$AA?3?$AA?3@ 00000001800ca7a0     stream_coder.obj
 0002:00071800       ??_C@_1GO@EKDANKFF@?$AAd?$AA?3?$AA?2?$AAb?$AAo?$AAa?$AAr?$AAd?$AAa?$AAc?$AAt?$AAi?$AAv?$AAe?$AA?2@ 00000001800ca800     stream_coder.obj
 0002:00071870       ??_C@_1DI@ELDBKNAK@?$AAw?$AAr?$AAa?$AAp?$AA?9?$AA?$DO?$AAh?$AAa?$AAn?$AAd?$AAl?$AAe?$AA_?$AA?4?$AAI@ 00000001800ca870     stream_coder.obj
 0002:000718a8       ??_7StreamCoder@@6B@       00000001800ca8a8     stream_coder.obj
 0002:000718c0       ??_7ObjectWrap@Nan@@6B@    00000001800ca8c0     stream_coder.obj
 0002:000718d8       ??_C@_1CO@EGNPJLKI@?$AAp?$AAe?$AAr?$AAs?$AAi?$AAs?$AAt?$AAe?$AAn?$AAt?$AA?$CI?$AA?$CJ?$AA?4?$AAI?$AAs@ 00000001800ca8d8     stream_decode.obj
 0002:00071910       ??_C@_1EC@MGGLMBLC@?$AAo?$AAb?$AAj?$AAe?$AAc?$AAt?$AA?9?$AA?$DO?$AAI?$AAn?$AAt?$AAe?$AAr?$AAn?$AAa@ 00000001800ca910     stream_decode.obj
 0002:00071958       ??_C@_0L@PPOPDFGK@dictionary@ 00000001800ca958     stream_decode.obj
 0002:00071968       ??_C@_0N@PAAPIFJH@StreamDecode@ 00000001800ca968     stream_decode.obj
 0002:00071978       ??_C@_09IFONHNKG@transform@ 00000001800ca978     stream_decode.obj
 0002:00071984       ??_C@_05GLCAEPFP@flush@    00000001800ca984     stream_decode.obj
 0002:00071990       ??_C@_1CE@LNAGEONJ@?$AA?$CB?$AAo?$AAb?$AAj?$AAe?$AAc?$AAt?$AA?4?$AAI?$AAs?$AAE?$AAm?$AAp?$AAt?$AAy@ 00000001800ca990     stream_decode.obj
 0002:000719b8       ??_7StreamDecode@@6B@      00000001800ca9b8     stream_decode.obj
 0002:000719d0       ??_C@_0BC@EBHDFLHM@nan?3Callback?3Call@ 00000001800ca9d0     stream_decode_worker.obj
 0002:000719e8       ??_C@_0BA@KEENCHNI@nan?3AsyncWorker@ 00000001800ca9e8     stream_decode_worker.obj
 0002:000719f8       ??_C@_0BN@NBMENEOJ@Brotli?5failed?5to?5decompress?4@ 00000001800ca9f8     stream_decode_worker.obj
 0002:00071a18       ??_C@_0BD@OLBABOEK@vector?$DMT?$DO?5too?5long@ 00000001800caa18     stream_decode_worker.obj
 0002:00071a30       ??_7AsyncWorker@Nan@@6B@   00000001800caa30     stream_decode_worker.obj
 0002:00071a60       ??_7StreamDecodeWorker@@6B@ 00000001800caa60     stream_decode_worker.obj
 0002:00071a90       ??_C@_04GMGOKAFF@mode@     00000001800caa90     stream_encode.obj
 0002:00071a98       ??_C@_07DADGLCBN@quality@  00000001800caa98     stream_encode.obj
 0002:00071aa0       ??_C@_05FAIJBEID@lgwin@    00000001800caaa0     stream_encode.obj
 0002:00071aa8       ??_C@_07OFKLPDFE@lgblock@  00000001800caaa8     stream_encode.obj
 0002:00071ab0       ??_C@_09OHLBEAI@size_hint@ 00000001800caab0     stream_encode.obj
 0002:00071ac0       ??_C@_0CB@HEGLMJFC@disable_literal_context_modelin@ 00000001800caac0     stream_encode.obj
 0002:00071ae8       ??_C@_0N@DMLPHOOA@StreamEncode@ 00000001800caae8     stream_encode.obj
 0002:00071af8       ??_7StreamEncode@@6B@      00000001800caaf8     stream_encode.obj
 0002:00071b10       ??_C@_0BL@BGHFGDBE@Brotli?5failed?5to?5compress?4@ 00000001800cab10     stream_encode_worker.obj
 0002:00071b30       ??_7StreamEncodeWorker@@6B@ 00000001800cab30     stream_encode_worker.obj
 0002:00071b60       ??_C@_0DG@BINAMAHE@d?3?2boardactive?2docs?2node_module@ 00000001800cab60     iltorb.obj
 0002:00071b98       ??_C@_06GMCCPCNH@iltorb@   00000001800cab98     iltorb.obj
 0002:00071ba0       ??_C@_08HCOMDCCD@iojs?4exe@ 00000001800caba0     win_delay_load_hook.obj
 0002:00071bb0       ??_C@_08JDDNMFDB@node?4exe@ 00000001800cabb0     win_delay_load_hook.obj
 0002:00071bbc       __real@3f800000            00000001800cabbc     backward_references_hq.obj
 0002:00071bc0       __real@3f947ae147ae147b    00000001800cabc0     encode.obj
 0002:00071bc8       __real@3f9db22d0e560419    00000001800cabc8     literal_cost.obj
 0002:00071bd0       __real@3f9dbf487fcb923a    00000001800cabd0     literal_cost.obj
 0002:00071bd8       __real@3fb1eb851eb851ec    00000001800cabd8     block_splitter.obj
 0002:00071be0       __real@3fc999999999999a    00000001800cabe0     encode.obj
 0002:00071be8       __real@3fd6666666666666    00000001800cabe8     literal_cost.obj
 0002:00071bf0       __real@3fe0000000000000    00000001800cabf0     compress_fragment.obj
 0002:00071bf8       __real@3fe6666666666666    00000001800cabf8     literal_cost.obj
 0002:00071c00       __real@3fe8000000000000    00000001800cac00     literal_cost.obj
 0002:00071c08       __real@3fe8a3d70a3d70a4    00000001800cac08     block_splitter.obj
 0002:00071c10       __real@3fef5c28f5c28f5c    00000001800cac10     compress_fragment_two_pass.obj
 0002:00071c18       __real@3fefae147ae147ae    00000001800cac18     encode.obj
 0002:00071c20       __real@3ff0000000000000    00000001800cac20     encode.obj
 0002:00071c28       __real@40000000            00000001800cac28     backward_references_hq.obj
 0002:00071c30       __real@4008000000000000    00000001800cac30     encode.obj
 0002:00071c38       __real@401fae147ae147ae    00000001800cac38     encode.obj
 0002:00071c40       __real@4020000000000000    00000001800cac40     compress_fragment_two_pass.obj
 0002:00071c48       __real@4024000000000000    00000001800cac48     encode.obj
 0002:00071c50       __real@4028000000000000    00000001800cac50     bit_cost.obj
 0002:00071c58       __real@402a000000000000    00000001800cac58     encode.obj
 0002:00071c60       __real@402b000000000000    00000001800cac60     block_splitter.obj
 0002:00071c68       __real@402d333333333333    00000001800cac68     block_splitter.obj
 0002:00071c70       __real@4034000000000000    00000001800cac70     bit_cost.obj
 0002:00071c78       __real@403c000000000000    00000001800cac78     bit_cost.obj
 0002:00071c80       __real@403c19999999999a    00000001800cac80     block_splitter.obj
 0002:00071c88       __real@4042800000000000    00000001800cac88     bit_cost.obj
 0002:00071c90       __real@4045800000000000    00000001800cac90     compress_fragment_two_pass.obj
 0002:00071c98       __real@4059000000000000    00000001800cac98     metablock.obj
 0002:00071ca0       __real@4069000000000000    00000001800caca0     compress_fragment.obj
 0002:00071ca8       __real@4079000000000000    00000001800caca8     metablock.obj
 0002:00071cb0       __real@407f400000000000    00000001800cacb0     metablock.obj
 0002:00071cb8       __real@409f400000000000    00000001800cacb8     block_splitter.obj
 0002:00071cc0       __real@43e0000000000000    00000001800cacc0     bit_cost.obj
 0002:00071cc8       __real@43f0000000000000    00000001800cacc8     metablock.obj
 0002:00071cd0       __real@547d42aea2879f2e    00000001800cacd0     block_splitter.obj
 0002:00071cd8       __real@7effc99e            00000001800cacd8     backward_references_hq.obj
 0002:00071ce0       __real@7ff0000000000000    00000001800cace0     block_splitter.obj
 0002:00071ce8       __real@bff0000000000000    00000001800cace8     stream_decode_worker.obj
 0002:00071cf0       __real@c000000000000000    00000001800cacf0     block_splitter.obj
 0002:00071d00       __xmm@00000001000000010000000100000001 00000001800cad00     compress_fragment.obj
 0002:00071d10       __xmm@0000000b0000000b0000000b0000000b 00000001800cad10     compress_fragment.obj
 0002:00071d90       ??_R4exception@std@@6B@    00000001800cad90     LIBCMT:throw_bad_alloc.obj
 0002:00071db8       ??_R3exception@std@@8      00000001800cadb8     LIBCMT:throw_bad_alloc.obj
 0002:00071dd0       ??_R2exception@std@@8      00000001800cadd0     LIBCMT:throw_bad_alloc.obj
 0002:00071de0       ??_R1A@?0A@EA@exception@std@@8 00000001800cade0     LIBCMT:throw_bad_alloc.obj
 0002:00071e08       ??_R4bad_alloc@std@@6B@    00000001800cae08     LIBCMT:throw_bad_alloc.obj
 0002:00071e30       ??_R3bad_alloc@std@@8      00000001800cae30     LIBCMT:throw_bad_alloc.obj
 0002:00071e48       ??_R2bad_alloc@std@@8      00000001800cae48     LIBCMT:throw_bad_alloc.obj
 0002:00071e60       ??_R1A@?0A@EA@bad_alloc@std@@8 00000001800cae60     LIBCMT:throw_bad_alloc.obj
 0002:00071e88       ??_R4bad_array_new_length@std@@6B@ 00000001800cae88     LIBCMT:throw_bad_alloc.obj
 0002:00071eb0       ??_R3bad_array_new_length@std@@8 00000001800caeb0     LIBCMT:throw_bad_alloc.obj
 0002:00071ec8       ??_R2bad_array_new_length@std@@8 00000001800caec8     LIBCMT:throw_bad_alloc.obj
 0002:00071ee8       ??_R1A@?0A@EA@bad_array_new_length@std@@8 00000001800caee8     LIBCMT:throw_bad_alloc.obj
 0002:00071f10       ??_R4type_info@@6B@        00000001800caf10     LIBCMT:std_type_info_static.obj
 0002:00071f38       ??_R3type_info@@8          00000001800caf38     LIBCMT:std_type_info_static.obj
 0002:00071f50       ??_R2type_info@@8          00000001800caf50     LIBCMT:std_type_info_static.obj
 0002:00071f60       ??_R1A@?0A@EA@type_info@@8 00000001800caf60     LIBCMT:std_type_info_static.obj
 0002:00071f88       ??_R4logic_error@std@@6B@  00000001800caf88     libcpmt:xthrow.obj
 0002:00071fb0       ??_R3logic_error@std@@8    00000001800cafb0     libcpmt:xthrow.obj
 0002:00071fc8       ??_R2logic_error@std@@8    00000001800cafc8     libcpmt:xthrow.obj
 0002:00071fe0       ??_R1A@?0A@EA@logic_error@std@@8 00000001800cafe0     libcpmt:xthrow.obj
 0002:00072008       ??_R4length_error@std@@6B@ 00000001800cb008     libcpmt:xthrow.obj
 0002:00072030       ??_R3length_error@std@@8   00000001800cb030     libcpmt:xthrow.obj
 0002:00072048       ??_R2length_error@std@@8   00000001800cb048     libcpmt:xthrow.obj
 0002:00072068       ??_R1A@?0A@EA@length_error@std@@8 00000001800cb068     libcpmt:xthrow.obj
 0002:00072468       __rtc_iaa                  00000001800cb468     LIBCMT:initsect.obj
 0002:00072470       __rtc_izz                  00000001800cb470     LIBCMT:initsect.obj
 0002:00072478       __rtc_taa                  00000001800cb478     LIBCMT:initsect.obj
 0002:00072480       __rtc_tzz                  00000001800cb480     LIBCMT:initsect.obj
 0002:000758c8       _TI2?AVbad_alloc@std@@     00000001800ce8c8     LIBCMT:throw_bad_alloc.obj
 0002:000758e8       _CTA2?AVbad_alloc@std@@    00000001800ce8e8     LIBCMT:throw_bad_alloc.obj
 0002:00075900       _CT??_R0?AVbad_alloc@std@@@8??0bad_alloc@std@@QEAA@AEBV01@@Z24 00000001800ce900     LIBCMT:throw_bad_alloc.obj
 0002:00075928       _CT??_R0?AVexception@std@@@8??0exception@std@@QEAA@AEBV01@@Z24 00000001800ce928     LIBCMT:throw_bad_alloc.obj
 0002:00075950       _TI3?AVbad_array_new_length@std@@ 00000001800ce950     LIBCMT:throw_bad_alloc.obj
 0002:00075970       _CTA3?AVbad_array_new_length@std@@ 00000001800ce970     LIBCMT:throw_bad_alloc.obj
 0002:00075990       _CT??_R0?AVbad_array_new_length@std@@@8??0bad_array_new_length@std@@QEAA@AEBV01@@Z24 00000001800ce990     LIBCMT:throw_bad_alloc.obj
 0002:000759b8       _CT??_R0?AVlogic_error@std@@@8??0logic_error@std@@QEAA@AEBV01@@Z24 00000001800ce9b8     libcpmt:xthrow.obj
 0002:000759e0       _TI3?AVlength_error@std@@  00000001800ce9e0     libcpmt:xthrow.obj
 0002:00075a00       _CTA3?AVlength_error@std@@ 00000001800cea00     libcpmt:xthrow.obj
 0002:00075a20       _CT??_R0?AVlength_error@std@@@8??0length_error@std@@QEAA@AEBV01@@Z24 00000001800cea20     libcpmt:xthrow.obj
 0002:00075a44       __DELAY_IMPORT_DESCRIPTOR_node_exe 00000001800cea44     node:node.exe
 0002:00075a64       __NULL_DELAY_IMPORT_DESCRIPTOR 00000001800cea64     node:node.exe
 0002:00075c38       \177node_NULL_THUNK_DATA_DLN 00000001800cec38     node:node.exe
 0002:00076b78       \177node_NULL_THUNK_DATA_DLB 00000001800cfb78     node:node.exe
 0002:00076d80       __IMPORT_DESCRIPTOR_KERNEL32 00000001800cfd80     kernel32:KERNEL32.dll
 0002:00076d94       __NULL_IMPORT_DESCRIPTOR   00000001800cfd94     kernel32:KERNEL32.dll
 0003:00000000       __scrt_native_dllmain_reason 00000001800d1000     LIBCMT:utility.obj
 0003:00000008       __security_cookie_complement 00000001800d1008     LIBCMT:gs_cookie.obj
 0003:00000010       __security_cookie          00000001800d1010     LIBCMT:gs_cookie.obj
 0003:00000018       __isa_available            00000001800d1018     LIBCMT:cpu_disp.obj
 0003:0000001c       __isa_enabled              00000001800d101c     LIBCMT:cpu_disp.obj
 0003:00000020       __memcpy_nt_iters          00000001800d1020     LIBCMT:cpu_disp.obj
 0003:00000040       __abort_behavior           00000001800d1040     libucrt:abort.obj
 0003:00000060       _iob                       00000001800d1060     libucrt:_file.obj
 0003:00000170       __acrt_initial_locale_data 00000001800d1170     libucrt:nlsdata.obj
 0003:000002c8       __acrt_initial_locale_pointers 00000001800d12c8     libucrt:nlsdata.obj
 0003:000002d8       __acrt_wide_c_locale_string 00000001800d12d8     libucrt:nlsdata.obj
 0003:000005f0       __acrt_initial_multibyte_data 00000001800d15f0     libucrt:mbctype.obj
 0003:00000820       __badioinfo                00000001800d1820     libucrt:ioinit.obj
 0003:00000868       _pwctype                   00000001800d1868     libucrt:ctype.obj
 0003:00000874       __globallocalestatus       00000001800d1874     libucrt:glstatus.obj
 0003:00000880       __acrt_lconv_c             00000001800d1880     libucrt:localeconv.obj
 0003:00000918       __acrt_lconv_static_decimal 00000001800d1918     libucrt:localeconv.obj
 0003:0000091c       __acrt_lconv_static_W_decimal 00000001800d191c     libucrt:localeconv.obj
 0003:00000920       _lookuptrailbytes          00000001800d1920     libucrt:read.obj
 0003:00000a30       _fltused                   00000001800d1a30     LIBCMT:fltused.obj
 0003:00000c80       ??_R0?AVbad_alloc@std@@@8  00000001800d1c80     LIBCMT:throw_bad_alloc.obj
 0003:00000ca8       ??_R0?AVexception@std@@@8  00000001800d1ca8     LIBCMT:throw_bad_alloc.obj
 0003:00000cd0       ??_R0?AVbad_array_new_length@std@@@8 00000001800d1cd0     LIBCMT:throw_bad_alloc.obj
 0003:00000d00       ??_R0?AVtype_info@@@8      00000001800d1d00     LIBCMT:std_type_info_static.obj
 0003:00000d20       ??_R0?AVlogic_error@std@@@8 00000001800d1d20     libcpmt:xthrow.obj
 0003:00000d48       ??_R0?AVlength_error@std@@@8 00000001800d1d48     libcpmt:xthrow.obj
 0003:00000d70       __imp_?CheckMemoryPressure@Isolate@v8@@AEAAXXZ 00000001800d1d70     node:node.exe
 0003:00000d78       __imp_?Int32Value@Value@v8@@QEBAHXZ 00000001800d1d78     node:node.exe
 0003:00000d80       __imp_?ReportExternalAllocationLimitReached@Isolate@v8@@AEAAXXZ 00000001800d1d80     node:node.exe
 0003:00000d88       __imp_?GetCurrent@Isolate@v8@@SAPEAV12@XZ 00000001800d1d88     node:node.exe
 0003:00000d90       __imp_?GetCurrentContext@Isolate@v8@@QEAA?AV?$Local@VContext@v8@@@2@XZ 00000001800d1d90     node:node.exe
 0003:00000d98       __imp_??1HandleScope@v8@@QEAA@XZ 00000001800d1d98     node:node.exe
 0003:00000da0       __imp_??0HandleScope@v8@@QEAA@PEAVIsolate@1@@Z 00000001800d1da0     node:node.exe
 0003:00000da8       __imp_?New@Array@v8@@SA?AV?$Local@VArray@v8@@@2@PEAVIsolate@2@H@Z 00000001800d1da8     node:node.exe
 0003:00000db0       __imp_?ToLocalEmpty@V8@v8@@CAXXZ 00000001800d1db0     node:node.exe
 0003:00000db8       __imp_?ClearWeak@V8@v8@@CAPEAXPEAPEAVObject@internal@2@@Z 00000001800d1db8     node:node.exe
 0003:00000dc0       __imp_?MakeWeak@V8@v8@@CAXPEAPEAVObject@internal@2@PEAXP6AXAEBV?$WeakCallbackInfo@X@2@@ZW4WeakCallbackType@2@@Z 00000001800d1dc0     node:node.exe
 0003:00000dc8       __imp_?DisposeGlobal@V8@v8@@CAXPEAPEAVObject@internal@2@@Z 00000001800d1dc8     node:node.exe
 0003:00000dd0       __imp_?Set@Object@v8@@QEAA?AV?$Maybe@_N@2@V?$Local@VContext@v8@@@2@IV?$Local@VValue@v8@@@2@@Z 00000001800d1dd0     node:node.exe
 0003:00000dd8       __imp_?New@Buffer@node@@YA?AV?$MaybeLocal@VObject@v8@@@v8@@PEAVIsolate@4@PEAD_KP6AX1PEAX@Z3@Z 00000001800d1dd8     node:node.exe
 0003:00000de0       __imp_uv_queue_work        00000001800d1de0     node:node.exe
 0003:00000de8       __imp_?Value@External@v8@@QEBAPEAXXZ 00000001800d1de8     node:node.exe
 0003:00000df0       __imp_?New@External@v8@@SA?AV?$Local@VExternal@v8@@@2@PEAVIsolate@2@PEAX@Z 00000001800d1df0     node:node.exe
 0003:00000df8       __imp_?New@Signature@v8@@SA?AV?$Local@VSignature@v8@@@2@PEAVIsolate@2@V?$Local@VFunctionTemplate@v8@@@2@@Z 00000001800d1df8     node:node.exe
 0003:00000e00       __imp_?CreateHandle@HandleScope@v8@@KAPEAPEAVObject@internal@2@PEAVIsolate@42@PEAV342@@Z 00000001800d1e00     node:node.exe
 0003:00000e08       __imp_?CreateHandle@HandleScope@v8@@CAPEAPEAVObject@internal@2@PEAVHeapObject@42@PEAV342@@Z 00000001800d1e08     node:node.exe
 0003:00000e10       __imp_?Set@Template@v8@@QEAAXV?$Local@VName@v8@@@2@V?$Local@VData@v8@@@2@W4PropertyAttribute@2@@Z 00000001800d1e10     node:node.exe
 0003:00000e18       __imp_?SetClassName@FunctionTemplate@v8@@QEAAXV?$Local@VString@v8@@@2@@Z 00000001800d1e18     node:node.exe
 0003:00000e20       __imp_?PrototypeTemplate@FunctionTemplate@v8@@QEAA?AV?$Local@VObjectTemplate@v8@@@2@XZ 00000001800d1e20     node:node.exe
 0003:00000e28       __imp_?InstanceTemplate@FunctionTemplate@v8@@QEAA?AV?$Local@VObjectTemplate@v8@@@2@XZ 00000001800d1e28     node:node.exe
 0003:00000e30       __imp_?GetFunction@FunctionTemplate@v8@@QEAA?AV?$MaybeLocal@VFunction@v8@@@2@V?$Local@VContext@v8@@@2@@Z 00000001800d1e30     node:node.exe
 0003:00000e38       __imp_?New@FunctionTemplate@v8@@SA?AV?$Local@VFunctionTemplate@v8@@@2@PEAVIsolate@2@P6AXAEBV?$FunctionCallbackInfo@VValue@v8@@@2@@ZV?$Local@VValue@v8@@@2@V?$Local@VSignature@v8@@@2@HW4ConstructorBehavior@2@@Z 00000001800d1e38     node:node.exe
 0003:00000e40       __imp_?FromJustIsNothing@V8@v8@@CAXXZ 00000001800d1e40     node:node.exe
 0003:00000e48       __imp_?GlobalizeReference@V8@v8@@CAPEAPEAVObject@internal@2@PEAVIsolate@42@PEAPEAV342@@Z 00000001800d1e48     node:node.exe
 0003:00000e50       __imp_?BooleanValue@Value@v8@@QEBA_NXZ 00000001800d1e50     node:node.exe
 0003:00000e58       __imp_?Escape@EscapableHandleScope@v8@@AEAAPEAPEAVObject@internal@2@PEAPEAV342@@Z 00000001800d1e58     node:node.exe
 0003:00000e60       __imp_??0EscapableHandleScope@v8@@QEAA@PEAVIsolate@1@@Z 00000001800d1e60     node:node.exe
 0003:00000e68       __imp_?NewFromUtf8@String@v8@@SA?AV?$MaybeLocal@VString@v8@@@2@PEAVIsolate@2@PEBDW4NewStringType@2@H@Z 00000001800d1e68     node:node.exe
 0003:00000e70       __imp_?SlowGetAlignedPointerFromInternalField@Object@v8@@AEAAPEAXH@Z 00000001800d1e70     node:node.exe
 0003:00000e78       __imp_?SlowGetInternalField@Object@v8@@AEAA?AV?$Local@VValue@v8@@@2@H@Z 00000001800d1e78     node:node.exe
 0003:00000e80       __imp_?SetAlignedPointerInInternalField@Object@v8@@QEAAXHPEAX@Z 00000001800d1e80     node:node.exe
 0003:00000e88       __imp_?SetInternalField@Object@v8@@QEAAXHV?$Local@VValue@v8@@@2@@Z 00000001800d1e88     node:node.exe
 0003:00000e90       __imp_?InternalFieldCount@Object@v8@@QEAAHXZ 00000001800d1e90     node:node.exe
 0003:00000e98       __imp_?Has@Object@v8@@QEAA?AV?$Maybe@_N@2@V?$Local@VContext@v8@@@2@V?$Local@VValue@v8@@@2@@Z 00000001800d1e98     node:node.exe
 0003:00000ea0       __imp_?Get@Object@v8@@QEAA?AV?$MaybeLocal@VValue@v8@@@2@V?$Local@VContext@v8@@@2@V?$Local@VValue@v8@@@2@@Z 00000001800d1ea0     node:node.exe
 0003:00000ea8       __imp_?Set@Object@v8@@QEAA?AV?$Maybe@_N@2@V?$Local@VContext@v8@@@2@V?$Local@VValue@v8@@@2@1@Z 00000001800d1ea8     node:node.exe
 0003:00000eb0       __imp_?SetInternalFieldCount@ObjectTemplate@v8@@QEAAXH@Z 00000001800d1eb0     node:node.exe
 0003:00000eb8       __imp_?NewInstance@ObjectTemplate@v8@@QEAA?AV?$MaybeLocal@VObject@v8@@@2@V?$Local@VContext@v8@@@2@@Z 00000001800d1eb8     node:node.exe
 0003:00000ec0       __imp_?New@ObjectTemplate@v8@@SA?AV?$Local@VObjectTemplate@v8@@@2@PEAVIsolate@2@V?$Local@VFunctionTemplate@v8@@@2@@Z 00000001800d1ec0     node:node.exe
 0003:00000ec8       __imp_?Data@Buffer@node@@YAPEADV?$Local@VObject@v8@@@v8@@@Z 00000001800d1ec8     node:node.exe
 0003:00000ed0       __imp_?Length@Buffer@node@@YA_KV?$Local@VObject@v8@@@v8@@@Z 00000001800d1ed0     node:node.exe
 0003:00000ed8       __imp_?GetCurrentEventLoop@node@@YAPEAUuv_loop_s@@PEAVIsolate@v8@@@Z 00000001800d1ed8     node:node.exe
 0003:00000ee0       __imp_?ToObject@Value@v8@@QEBA?AV?$Local@VObject@v8@@@2@XZ 00000001800d1ee0     node:node.exe
 0003:00000ee8       __imp_?Global@Context@v8@@QEAA?AV?$Local@VObject@v8@@@2@XZ 00000001800d1ee8     node:node.exe
 0003:00000ef0       __imp_?Error@Exception@v8@@SA?AV?$Local@VValue@v8@@@2@V?$Local@VString@v8@@@2@@Z 00000001800d1ef0     node:node.exe
 0003:00000ef8       __imp_?New@Object@v8@@SA?AV?$Local@VObject@v8@@@2@PEAVIsolate@2@@Z 00000001800d1ef8     node:node.exe
 0003:00000f00       __imp_?EmitAsyncDestroy@node@@YAXPEAVIsolate@v8@@Uasync_context@1@@Z 00000001800d1f00     node:node.exe
 0003:00000f08       __imp_?MakeCallback@node@@YA?AV?$MaybeLocal@VValue@v8@@@v8@@PEAVIsolate@3@V?$Local@VObject@v8@@@3@V?$Local@VFunction@v8@@@3@HPEAV?$Local@VValue@v8@@@3@Uasync_context@1@@Z 00000001800d1f08     node:node.exe
 0003:00000f10       __imp_?EmitAsyncInit@node@@YA?AUasync_context@1@PEAVIsolate@v8@@V?$Local@VObject@v8@@@4@V?$Local@VString@v8@@@4@N@Z 00000001800d1f10     node:node.exe
 0003:00000f18       __imp_node_module_register 00000001800d1f18     node:node.exe
 0003:00000f20       \177node_NULL_THUNK_DATA_DLA 00000001800d1f20     node:node.exe
 0003:00000f30       __hmod__node_exe           00000001800d1f30     node:node.exe
 0003:000014b0       __scrt_current_native_startup_state 00000001800d24b0     LIBCMT:utility.obj
 0003:000014b8       __scrt_native_startup_lock 00000001800d24b8     LIBCMT:utility.obj
 0003:000014fc       __favor                    00000001800d24fc     LIBCMT:cpu_disp.obj
 0003:00001500       __scrt_debugger_hook_flag  00000001800d2500     LIBCMT:utility_desktop.obj
 0003:00001510       ?__type_info_root_node@@3U__type_info_node@@A 00000001800d2510     LIBCMT:tncleanup.obj
 0003:00001520       ?_OptionsStorage@?1??__local_stdio_printf_options@@9@4_KA 00000001800d2520     LIBCMT:default_local_stdio_options.obj
 0003:00001528       ?_OptionsStorage@?1??__local_stdio_scanf_options@@9@4_KA 00000001800d2528     LIBCMT:default_local_stdio_options.obj
 0003:00001530       __pPurecall                00000001800d2530     libvcruntime:purevirt_data.obj
 0003:00001640       ?__WinRTOutOfMemoryExceptionCallback@@3P6APEAXXZEA 00000001800d2640     libvcruntime:ehhelpers.obj
 0003:00001648       ?pArgList@UnDecorator@@0PEAVReplicator@@EA 00000001800d2648     libvcruntime:undname.obj
 0003:00001650       ?pZNameList@UnDecorator@@0PEAVReplicator@@EA 00000001800d2650     libvcruntime:undname.obj
 0003:00001658       ?pTemplateArgList@UnDecorator@@0PEAVReplicator@@EA 00000001800d2658     libvcruntime:undname.obj
 0003:00001660       ?gName@UnDecorator@@0PEBDEB 00000001800d2660     libvcruntime:undname.obj
 0003:00001668       ?name@UnDecorator@@0PEBDEB 00000001800d2668     libvcruntime:undname.obj
 0003:00001670       ?disableFlags@UnDecorator@@0KA 00000001800d2670     libvcruntime:undname.obj
 0003:00001674       ?fExplicitTemplateParams@UnDecorator@@0_NA 00000001800d2674     libvcruntime:undname.obj
 0003:00001675       ?fGetTemplateArgumentList@UnDecorator@@0_NA 00000001800d2675     libvcruntime:undname.obj
 0003:00001678       ?m_pGetParameter@UnDecorator@@0P6APEADJ@ZEA 00000001800d2678     libvcruntime:undname.obj
 0003:00001680       ?m_CHPENameOffset@UnDecorator@@0KA 00000001800d2680     libvcruntime:undname.obj
 0003:00001684       ?m_recursionLevel@UnDecorator@@0KA 00000001800d2684     libvcruntime:undname.obj
 0003:000016c0       ?c_exit_complete@?1???R<lambda_6e4b09c48022b2350581041d5f6b0c4c>@@QEBA@XZ@4_NA 00000001800d26c0     libucrt:exit.obj
 0003:000017e8       _environ_table             00000001800d27e8     libucrt:environment_initialization.obj
 0003:000017f0       _wenviron_table            00000001800d27f0     libucrt:environment_initialization.obj
 0003:000017f8       __dcrt_initial_wide_environment 00000001800d27f8     libucrt:environment_initialization.obj
 0003:00001800       __dcrt_initial_narrow_environment 00000001800d2800     libucrt:environment_initialization.obj
 0003:00001808       __acrt_atexit_table        00000001800d2808     libucrt:onexit.obj
 0003:00001820       __acrt_at_quick_exit_table 00000001800d2820     libucrt:onexit.obj
 0003:00001840       _nstream                   00000001800d2840     libucrt:_file.obj
 0003:00001848       __piob                     00000001800d2848     libucrt:_file.obj
 0003:00001850       _cflush                    00000001800d2850     libucrt:_file.obj
 0003:00001abc       __acrt_locale_changed_data 00000001800d2abc     libucrt:wsetlocale.obj
 0003:00001ac0       __acrt_current_locale_data 00000001800d2ac0     libucrt:nlsdata.obj
 0003:00001ac8       _mbctype                   00000001800d2ac8     libucrt:mbctype.obj
 0003:00001ad0       _mbcasemap                 00000001800d2ad0     libucrt:mbctype.obj
 0003:00001ad8       __acrt_current_multibyte_data 00000001800d2ad8     libucrt:mbctype.obj
 0003:00001ae8       _pgmptr                    00000001800d2ae8     libucrt:argv_data.obj
 0003:00001af0       __argc                     00000001800d2af0     libucrt:argv_data.obj
 0003:00001af8       __argv                     00000001800d2af8     libucrt:argv_data.obj
 0003:00001b00       __wargv                    00000001800d2b00     libucrt:argv_data.obj
 0003:00001b08       _acmdln                    00000001800d2b08     libucrt:argv_data.obj
 0003:00001b10       _wcmdln                    00000001800d2b10     libucrt:argv_data.obj
 0003:00001cd0       __acrt_heap                00000001800d2cd0     libucrt:heap_handle.obj
 0003:00001ce0       __pioinfo                  00000001800d2ce0     libucrt:ioinit.obj
 0003:000020e0       _nhandle                   00000001800d30e0     libucrt:ioinit.obj
 0003:000020f0       __acrt_stdout_buffer       00000001800d30f0     libucrt:_sftbuf.obj
 0003:000020f8       __acrt_stderr_buffer       00000001800d30f8     libucrt:_sftbuf.obj
 0003:00002114       __acrt_lconv_static_null   00000001800d3114     libucrt:localeconv.obj
 0003:00002118       __acrt_lconv_static_W_null 00000001800d3118     libucrt:localeconv.obj
 0003:00002128       __fma3_is_available        00000001800d3128     libucrt:fma3_available.obj
 0003:0000212c       __use_fma3_lib             00000001800d312c     libucrt:fma3_available.obj
 0003:00002130       ?DloadKernel32@@3PEAUHINSTANCE__@@EA 00000001800d3130     DelayImp:delayhlp.obj
 0003:00002138       ?DloadAcquireSRWLockExclusive@@3P6AXPEA_K@ZEA 00000001800d3138     DelayImp:delayhlp.obj
 0003:00002140       ?DloadReleaseSRWLockExclusive@@3P6AXPEA_K@ZEA 00000001800d3140     DelayImp:delayhlp.obj
 0003:00002148       ?DloadSrwLock@@3_KA        00000001800d3148     DelayImp:delayhlp.obj
 0003:00002150       ?DloadSectionLockCount@@3KA 00000001800d3150     DelayImp:delayhlp.obj
 0003:00002154       ?DloadSectionOldProtection@@3KA 00000001800d3154     DelayImp:delayhlp.obj
 0003:00002158       ?DloadSectionCommitPermanent@@3KA 00000001800d3158     DelayImp:delayhlp.obj
 0003:00002160       ?constructor@StreamDecode@@0V?$Persistent@VFunction@v8@@V?$NonCopyablePersistentTraits@VFunction@v8@@@2@@Nan@@A 00000001800d3160     stream_decode.obj
 0003:00002168       ?constructor@StreamEncode@@0V?$Persistent@VFunction@v8@@V?$NonCopyablePersistentTraits@VFunction@v8@@@2@@Nan@@A 00000001800d3168     stream_encode.obj
 0003:00002170       __dyn_tls_init_callback    00000001800d3170     <common>
 0003:00002178       __scrt_ucrt_dll_is_in_use  00000001800d3178     <common>

 entry point at        0001:00045208

 Static symbols

 0000:fff27000       .debug$S                   0000000180000000     kernel32:KERNEL32.dll
 0000:fff27000       .debug$S                   0000000180000000     node:node.exe
 0000:fff27000       .debug$S                   0000000180000000     node:node.exe
 0000:fff27000       .debug$S                   0000000180000000     kernel32:KERNEL32.dll
 0000:fff27000       .debug$S                   0000000180000000     node:node.exe
 0000:fff27000       .debug$S                   0000000180000000     node:node.exe
 0000:fff27000       .debug$S                   0000000180000000     node:node.exe
 0000:fff27000       .debug$S                   0000000180000000     kernel32:KERNEL32.dll
 0000:fff27000       .debug$S                   0000000180000000     node:node.exe
 0000:fff27000       .debug$S                   0000000180000000     node:node.exe
 0000:fff27000       .debug$S                   0000000180000000     node:node.exe
 0000:fff27000       .debug$S                   0000000180000000     node:node.exe
 0000:fff27000       .debug$S                   0000000180000000     node:node.exe
 0000:fff27000       .debug$S                   0000000180000000     node:node.exe
 0000:fff27000       .debug$S                   0000000180000000     node:node.exe
 0000:fff27000       .debug$S                   0000000180000000     node:node.exe
 0000:fff27000       .debug$S                   0000000180000000     node:node.exe
 0000:fff27000       .debug$S                   0000000180000000     node:node.exe
 0000:fff27000       .debug$S                   0000000180000000     node:node.exe
 0000:fff27000       .debug$S                   0000000180000000     node:node.exe
 0000:fff27000       .debug$S                   0000000180000000     node:node.exe
 0000:fff27000       .debug$S                   0000000180000000     node:node.exe
 0000:fff27000       .debug$S                   0000000180000000     node:node.exe
 0000:fff27000       .debug$S                   0000000180000000     node:node.exe
 0000:fff27000       .debug$S                   0000000180000000     node:node.exe
 0000:fff27000       .debug$S                   0000000180000000     node:node.exe
 0000:fff27000       .debug$S                   0000000180000000     node:node.exe
 0000:fff27000       .debug$S                   0000000180000000     node:node.exe
 0000:fff27000       .debug$S                   0000000180000000     node:node.exe
 0000:fff27000       .debug$S                   0000000180000000     node:node.exe
 0000:fff27000       .debug$S                   0000000180000000     node:node.exe
 0000:fff27000       .debug$S                   0000000180000000     node:node.exe
 0000:fff27000       .debug$S                   0000000180000000     kernel32:KERNEL32.dll
 0000:fff27000       .debug$S                   0000000180000000     kernel32:KERNEL32.dll
 0000:fff27000       .debug$S                   0000000180000000     node:node.exe
 0000:fff27000       .debug$S                   0000000180000000     node:node.exe
 0000:fff27000       .debug$S                   0000000180000000     node:node.exe
 0000:fff27000       .debug$S                   0000000180000000     node:node.exe
 0000:fff27000       .debug$S                   0000000180000000     node:node.exe
 0000:fff27000       .debug$S                   0000000180000000     node:node.exe
 0000:fff27000       .debug$S                   0000000180000000     node:node.exe
 0000:fff27000       .debug$S                   0000000180000000     node:node.exe
 0000:fff27000       .debug$S                   0000000180000000     node:node.exe
 0000:fff27000       .debug$S                   0000000180000000     node:node.exe
 0000:fff27000       .debug$S                   0000000180000000     node:node.exe
 0000:fff27000       .debug$S                   0000000180000000     node:node.exe
 0000:fff27000       .debug$S                   0000000180000000     node:node.exe
 0000:fff27000       .debug$S                   0000000180000000     node:node.exe
 0000:fff27000       .debug$S                   0000000180000000     node:node.exe
 0000:fff27000       .debug$S                   0000000180000000     node:node.exe
 0000:fff27000       .debug$S                   0000000180000000     node:node.exe
 0000:fff27000       .debug$S                   0000000180000000     node:node.exe
 0000:fff27000       .debug$S                   0000000180000000     node:node.exe
 0000:fff27000       .debug$S                   0000000180000000     node:node.exe
 0000:fff27000       .debug$S                   0000000180000000     node:node.exe
 0000:fff27000       .debug$S                   0000000180000000     node:node.exe
 0000:fff27000       .debug$S                   0000000180000000     node:node.exe
 0000:fff27000       .debug$S                   0000000180000000     node:node.exe
 0000:fff27000       .debug$S                   0000000180000000     node:node.exe
 0000:fff27000       .debug$S                   0000000180000000     node:node.exe
 0000:fff27000       .debug$S                   0000000180000000     node:node.exe
 0000:fff27000       .debug$S                   0000000180000000     node:node.exe
 0000:fff27000       .debug$S                   0000000180000000     node:node.exe
 0000:fff27000       .debug$S                   0000000180000000     node:node.exe
 0000:fff27000       .debug$S                   0000000180000000     node:node.exe
 0000:fff27000       .debug$S                   0000000180000000     node:node.exe
 0000:fff27000       .debug$S                   0000000180000000     kernel32:KERNEL32.dll
 0000:fff27000       .debug$S                   0000000180000000     kernel32:KERNEL32.dll
 0000:fff27000       .debug$S                   0000000180000000     kernel32:KERNEL32.dll
 0000:fff27000       .debug$S                   0000000180000000     kernel32:KERNEL32.dll
 0000:fff27000       .debug$S                   0000000180000000     kernel32:KERNEL32.dll
 0000:fff27000       .debug$S                   0000000180000000     kernel32:KERNEL32.dll
 0000:fff27000       .debug$S                   0000000180000000     kernel32:KERNEL32.dll
 0000:fff27000       .debug$S                   0000000180000000     kernel32:KERNEL32.dll
 0000:fff27000       .debug$S                   0000000180000000     kernel32:KERNEL32.dll
 0000:fff27000       .debug$S                   0000000180000000     kernel32:KERNEL32.dll
 0000:fff27000       .debug$S                   0000000180000000     kernel32:KERNEL32.dll
 0000:fff27000       .debug$S                   0000000180000000     kernel32:KERNEL32.dll
 0000:fff27000       .debug$S                   0000000180000000     kernel32:KERNEL32.dll
 0000:fff27000       .debug$S                   0000000180000000     kernel32:KERNEL32.dll
 0000:fff27000       .debug$S                   0000000180000000     kernel32:KERNEL32.dll
 0000:fff27000       .debug$S                   0000000180000000     kernel32:KERNEL32.dll
 0000:fff27000       .debug$S                   0000000180000000     kernel32:KERNEL32.dll
 0000:fff27000       .debug$S                   0000000180000000     kernel32:KERNEL32.dll
 0000:fff27000       .debug$S                   0000000180000000     kernel32:KERNEL32.dll
 0000:fff27000       .debug$S                   0000000180000000     kernel32:KERNEL32.dll
 0000:fff27000       .debug$S                   0000000180000000     kernel32:KERNEL32.dll
 0000:fff27000       .debug$S                   0000000180000000     kernel32:KERNEL32.dll
 0000:fff27000       .debug$S                   0000000180000000     kernel32:KERNEL32.dll
 0000:fff27000       .debug$S                   0000000180000000     kernel32:KERNEL32.dll
 0000:fff27000       .debug$S                   0000000180000000     kernel32:KERNEL32.dll
 0000:fff27000       .debug$S                   0000000180000000     kernel32:KERNEL32.dll
 0000:fff27000       .debug$S                   0000000180000000     kernel32:KERNEL32.dll
 0000:fff27000       .debug$S                   0000000180000000     kernel32:KERNEL32.dll
 0000:fff27000       .debug$S                   0000000180000000     kernel32:KERNEL32.dll
 0000:fff27000       .debug$S                   0000000180000000     kernel32:KERNEL32.dll
 0000:fff27000       .debug$S                   0000000180000000     kernel32:KERNEL32.dll
 0000:fff27000       .debug$S                   0000000180000000     kernel32:KERNEL32.dll
 0000:fff27000       .debug$S                   0000000180000000     kernel32:KERNEL32.dll
 0000:fff27000       .debug$S                   0000000180000000     kernel32:KERNEL32.dll
 0000:fff27000       .debug$S                   0000000180000000     kernel32:KERNEL32.dll
 0000:fff27000       .debug$S                   0000000180000000     kernel32:KERNEL32.dll
 0000:fff27000       .debug$S                   0000000180000000     kernel32:KERNEL32.dll
 0000:fff27000       .debug$S                   0000000180000000     kernel32:KERNEL32.dll
 0000:fff27000       .debug$S                   0000000180000000     kernel32:KERNEL32.dll
 0000:fff27000       .debug$S                   0000000180000000     kernel32:KERNEL32.dll
 0000:fff27000       .debug$S                   0000000180000000     kernel32:KERNEL32.dll
 0000:fff27000       .debug$S                   0000000180000000     kernel32:KERNEL32.dll
 0000:fff27000       .debug$S                   0000000180000000     kernel32:KERNEL32.dll
 0000:fff27000       .debug$S                   0000000180000000     kernel32:KERNEL32.dll
 0000:fff27000       .debug$S                   0000000180000000     kernel32:KERNEL32.dll
 0000:fff27000       .debug$S                   0000000180000000     kernel32:KERNEL32.dll
 0000:fff27000       .debug$S                   0000000180000000     kernel32:KERNEL32.dll
 0000:fff27000       .debug$S                   0000000180000000     kernel32:KERNEL32.dll
 0000:fff27000       .debug$S                   0000000180000000     kernel32:KERNEL32.dll
 0000:fff27000       .debug$S                   0000000180000000     kernel32:KERNEL32.dll
 0000:fff27000       .debug$S                   0000000180000000     kernel32:KERNEL32.dll
 0000:fff27000       .debug$S                   0000000180000000     kernel32:KERNEL32.dll
 0000:fff27000       .debug$S                   0000000180000000     kernel32:KERNEL32.dll
 0000:fff27000       .debug$S                   0000000180000000     kernel32:KERNEL32.dll
 0000:fff27000       .debug$S                   0000000180000000     kernel32:KERNEL32.dll
 0000:fff27000       .debug$S                   0000000180000000     kernel32:KERNEL32.dll
 0000:fff27000       .debug$S                   0000000180000000     kernel32:KERNEL32.dll
 0000:fff27000       .debug$S                   0000000180000000     kernel32:KERNEL32.dll
 0000:fff27000       .debug$S                   0000000180000000     kernel32:KERNEL32.dll
 0000:fff27000       .debug$S                   0000000180000000     kernel32:KERNEL32.dll
 0000:fff27000       .debug$S                   0000000180000000     kernel32:KERNEL32.dll
 0000:fff27000       .debug$S                   0000000180000000     kernel32:KERNEL32.dll
 0000:fff27000       .debug$S                   0000000180000000     kernel32:KERNEL32.dll
 0000:fff27000       .debug$S                   0000000180000000     kernel32:KERNEL32.dll
 0000:fff27000       .debug$S                   0000000180000000     kernel32:KERNEL32.dll
 0000:fff27000       .debug$S                   0000000180000000     kernel32:KERNEL32.dll
 0000:fff27000       .debug$S                   0000000180000000     iltorb.exp
 0000:fff27000       .debug$S                   0000000180000000     kernel32:KERNEL32.dll
 0000:fff27000       .debug$S                   0000000180000000     kernel32:KERNEL32.dll
 0000:fff27000       .debug$S                   0000000180000000     kernel32:KERNEL32.dll
 0000:fff27000       .debug$S                   0000000180000000     kernel32:KERNEL32.dll
 0000:fff27000       .debug$S                   0000000180000000     kernel32:KERNEL32.dll
 0000:fff27000       .debug$S                   0000000180000000     kernel32:KERNEL32.dll
 0000:fff27000       .debug$S                   0000000180000000     kernel32:KERNEL32.dll
 0000:fff27000       .debug$S                   0000000180000000     kernel32:KERNEL32.dll
 0000:fff27000       .debug$S                   0000000180000000     kernel32:KERNEL32.dll
 0000:fff27000       .debug$S                   0000000180000000     kernel32:KERNEL32.dll
 0000:fff27000       .debug$S                   0000000180000000     kernel32:KERNEL32.dll
 0000:fff27000       .debug$S                   0000000180000000     kernel32:KERNEL32.dll
 0000:fff27000       .debug$S                   0000000180000000     kernel32:KERNEL32.dll
 0000:fff27000       .debug$S                   0000000180000000     kernel32:KERNEL32.dll
 0000:fff27000       .debug$S                   0000000180000000     kernel32:KERNEL32.dll
 0000:fff27000       .debug$S                   0000000180000000     kernel32:KERNEL32.dll
 0000:fff27000       .debug$S                   0000000180000000     kernel32:KERNEL32.dll
 0000:fff27000       .debug$S                   0000000180000000     kernel32:KERNEL32.dll
 0001:00000000       ??__E?constructor@StreamDecode@@0V?$Persistent@VFunction@v8@@V?$NonCopyablePersistentTraits@VFunction@v8@@@2@@Nan@@A@@YAXXZ 0000000180001000 f   stream_decode.obj
 0001:00000020       ??__E?constructor@StreamEncode@@0V?$Persistent@VFunction@v8@@V?$NonCopyablePersistentTraits@VFunction@v8@@@2@@Nan@@A@@YAXXZ 0000000180001020 f   stream_encode.obj
 0001:00000090       TransformDictionaryWord    0000000180001090 f   decode.obj
 0001:00000220       DecodeVarLenUint8          0000000180001220 f   decode.obj
 0001:00000430       DecodeMetaBlockLength      0000000180001430 f   decode.obj
 0001:00000a24       $LN298                     0000000180001a24     decode.obj
 0001:00000a50       SafeDecodeSymbol           0000000180001a50 f   decode.obj
 0001:00000b20       ReadSymbolCodeLengths      0000000180001b20 f   decode.obj
 0001:00000db0       SafeReadSymbolCodeLengths  0000000180001db0 f   decode.obj
 0001:00001020       ReadCodeLengthCodeLengths  0000000180002020 f   decode.obj
 0001:000011b0       ReadHuffmanCode            00000001800021b0 f   decode.obj
 0001:0000175c       $LN210                     000000018000275c     decode.obj
 0001:00001780       DecodeContextMap           0000000180002780 f   decode.obj
 0001:00001ca0       DecodeLiteralBlockSwitch   0000000180002ca0 f   decode.obj
 0001:00001f50       SafeDecodeLiteralBlockSwitch 0000000180002f50 f   decode.obj
 0001:00002310       DecodeCommandBlockSwitch   0000000180003310 f   decode.obj
 0001:00002560       SafeDecodeCommandBlockSwitch 0000000180003560 f   decode.obj
 0001:000028b0       DecodeDistanceBlockSwitch  00000001800038b0 f   decode.obj
 0001:00002b10       SafeDecodeDistanceBlockSwitch 0000000180003b10 f   decode.obj
 0001:00002e70       WriteRingBuffer            0000000180003e70 f   decode.obj
 0001:00002f90       BrotliEnsureRingBuffer     0000000180003f90 f   decode.obj
 0001:00003090       ProcessCommands            0000000180004090 f   decode.obj
 0001:00003a70       SafeProcessCommands        0000000180004a70 f   decode.obj
 0001:00005744       $LN671                     0000000180006744     decode.obj
 0001:00006090       CreateBackwardReferencesH2 0000000180007090 f   backward_references.obj
 0001:00006db0       CreateBackwardReferencesH3 0000000180007db0 f   backward_references.obj
 0001:00007a30       CreateBackwardReferencesH4 0000000180008a30 f   backward_references.obj
 0001:00008db0       CreateBackwardReferencesH5 0000000180009db0 f   backward_references.obj
 0001:0000a220       CreateBackwardReferencesH6 000000018000b220 f   backward_references.obj
 0001:0000b6f0       CreateBackwardReferencesH40 000000018000c6f0 f   backward_references.obj
 0001:0000ce10       CreateBackwardReferencesH41 000000018000de10 f   backward_references.obj
 0001:0000ea80       CreateBackwardReferencesH42 000000018000fa80 f   backward_references.obj
 0001:00010620       CreateBackwardReferencesH54 0000000180011620 f   backward_references.obj
 0001:00011af4       $LN16                      0000000180012af4     backward_references.obj
 0001:00011b1c       $LN15                      0000000180012b1c     backward_references.obj
 0001:00011b60       SetCost                    0000000180012b60 f   backward_references_hq.obj
 0001:00011d30       ZopfliCostModelSetFromCommands 0000000180012d30 f   backward_references_hq.obj
 0001:00011fe0       ZopfliCostModelSetFromLiteralCosts 0000000180012fe0 f   backward_references_hq.obj
 0001:00012140       StartPosQueuePush          0000000180013140 f   backward_references_hq.obj
 0001:00012340       EvaluateNode               0000000180013340 f   backward_references_hq.obj
 0001:000124e0       UpdateNodes                00000001800134e0 f   backward_references_hq.obj
 0001:000130a0       ZopfliIterate              00000001800140a0 f   backward_references_hq.obj
 0001:000166e0       InitialEntropyCodesLiteral 00000001800176e0 f   block_splitter.obj
 0001:00016910       RefineEntropyCodesLiteral  0000000180017910 f   block_splitter.obj
 0001:00016b20       FindBlocksLiteral          0000000180017b20 f   block_splitter.obj
 0001:00017040       ClusterBlocksLiteral       0000000180018040 f   block_splitter.obj
 0001:00017b00       SplitByteVectorLiteral     0000000180018b00 f   block_splitter.obj
 0001:000180b0       InitialEntropyCodesCommand 00000001800190b0 f   block_splitter.obj
 0001:00018330       RefineEntropyCodesCommand  0000000180019330 f   block_splitter.obj
 0001:00018540       FindBlocksCommand          0000000180019540 f   block_splitter.obj
 0001:00018a40       ClusterBlocksCommand       0000000180019a40 f   block_splitter.obj
 0001:000194f0       SplitByteVectorCommand     000000018001a4f0 f   block_splitter.obj
 0001:00019aa0       InitialEntropyCodesDistance 000000018001aaa0 f   block_splitter.obj
 0001:00019d20       RefineEntropyCodesDistance 000000018001ad20 f   block_splitter.obj
 0001:00019f40       FindBlocksDistance         000000018001af40 f   block_splitter.obj
 0001:0001a440       ClusterBlocksDistance      000000018001b440 f   block_splitter.obj
 0001:0001aef0       SplitByteVectorDistance    000000018001bef0 f   block_splitter.obj
 0001:0001b7b0       StoreVarLenUint8           000000018001c7b0 f   brotli_bit_stream.obj
 0001:0001b910       StoreCompressedMetaBlockHeader 000000018001c910 f   brotli_bit_stream.obj
 0001:0001bb30       BrotliStoreUncompressedMetaBlockHeader 000000018001cb30 f   brotli_bit_stream.obj
 0001:0001bd00       BrotliStoreHuffmanTreeOfHuffmanTreeToBitMask 000000018001cd00 f   brotli_bit_stream.obj
 0001:0001bed0       StoreSimpleHuffmanTree     000000018001ced0 f   brotli_bit_stream.obj
 0001:0001c6e0       BuildAndStoreHuffmanTree   000000018001d6e0 f   brotli_bit_stream.obj
 0001:0001d5d0       RunLengthCodeZeros         000000018001e5d0 f   brotli_bit_stream.obj
 0001:0001d770       EncodeContextMap           000000018001e770 f   brotli_bit_stream.obj
 0001:0001dc10       BuildAndStoreBlockSplitCode 000000018001ec10 f   brotli_bit_stream.obj
 0001:0001df60       StoreTrivialContextMap     000000018001ef60 f   brotli_bit_stream.obj
 0001:0001e2c0       StoreSymbol                000000018001f2c0 f   brotli_bit_stream.obj
 0001:0001e5e0       StoreSymbolWithContext     000000018001f5e0 f   brotli_bit_stream.obj
 0001:0001f600       StoreDataWithHuffmanCodes  0000000180020600 f   brotli_bit_stream.obj
 0001:00022ed0       BuildAndStoreLiteralPrefixCode 0000000180023ed0 f   compress_fragment.obj
 0001:00023220       BuildAndStoreCommandPrefixCode 0000000180024220 f   compress_fragment.obj
 0001:00023550       BrotliStoreMetaBlockHeader 0000000180024550 f   compress_fragment.obj
 0001:00023550       BrotliStoreMetaBlockHeader 0000000180024550 f   compress_fragment_two_pass.obj
 0001:000236a0       UpdateBits                 00000001800246a0 f   compress_fragment.obj
 0001:00023740       ShouldMergeBlock           0000000180024740 f   compress_fragment.obj
 0001:000238c0       EmitUncompressedMetaBlock  00000001800248c0 f   compress_fragment.obj
 0001:00023970       BrotliCompressFragmentFastImpl9 0000000180024970 f   compress_fragment.obj
 0001:00025d80       BrotliCompressFragmentFastImpl11 0000000180026d80 f   compress_fragment.obj
 0001:00028190       BrotliCompressFragmentFastImpl13 0000000180029190 f   compress_fragment.obj
 0001:0002a5a0       BrotliCompressFragmentFastImpl15 000000018002b5a0 f   compress_fragment.obj
 0001:0002cc90       BuildAndStoreCommandPrefixCode 000000018002dc90 f   compress_fragment_two_pass.obj
 0001:0002cfc0       StoreCommands              000000018002dfc0 f   compress_fragment_two_pass.obj
 0001:0002d390       ShouldCompress             000000018002e390 f   compress_fragment_two_pass.obj
 0001:0002d5b0       BrotliCompressFragmentTwoPassImpl8 000000018002e5b0 f   compress_fragment_two_pass.obj
 0001:0002e0c0       BrotliCompressFragmentTwoPassImpl9 000000018002f0c0 f   compress_fragment_two_pass.obj
 0001:0002ebd0       BrotliCompressFragmentTwoPassImpl10 000000018002fbd0 f   compress_fragment_two_pass.obj
 0001:0002f6e0       BrotliCompressFragmentTwoPassImpl11 00000001800306e0 f   compress_fragment_two_pass.obj
 0001:000301f0       BrotliCompressFragmentTwoPassImpl12 00000001800311f0 f   compress_fragment_two_pass.obj
 0001:00030d00       BrotliCompressFragmentTwoPassImpl13 0000000180031d00 f   compress_fragment_two_pass.obj
 0001:00031810       BrotliCompressFragmentTwoPassImpl14 0000000180032810 f   compress_fragment_two_pass.obj
 0001:00032320       BrotliCompressFragmentTwoPassImpl15 0000000180033320 f   compress_fragment_two_pass.obj
 0001:00032e30       BrotliCompressFragmentTwoPassImpl16 0000000180033e30 f   compress_fragment_two_pass.obj
 0001:00033940       BrotliCompressFragmentTwoPassImpl17 0000000180034940 f   compress_fragment_two_pass.obj
 0001:00034848       $LN43                      0000000180035848     compress_fragment_two_pass.obj
 0001:00034870       PrepareH10                 0000000180035870 f   encode.obj
 0001:00034890       PrepareH2                  0000000180035890 f   encode.obj
 0001:000348e0       PrepareH3                  00000001800358e0 f   encode.obj
 0001:00034930       PrepareH4                  0000000180035930 f   encode.obj
 0001:00034990       InitializeH5               0000000180035990 f   encode.obj
 0001:000349d0       PrepareH5                  00000001800359d0 f   encode.obj
 0001:00034a40       InitializeH6               0000000180035a40 f   encode.obj
 0001:00034a90       PrepareH6                  0000000180035a90 f   encode.obj
 0001:00034b20       PrepareH41                 0000000180035b20 f   encode.obj
 0001:00034b20       PrepareH40                 0000000180035b20 f   encode.obj
 0001:00034bc0       PrepareH42                 0000000180035bc0 f   encode.obj
 0001:00034c70       PrepareH54                 0000000180035c70 f   encode.obj
 0001:00034cd0       GetBrotliStorage           0000000180035cd0 f   encode.obj
 0001:00034d50       GetHashTable               0000000180035d50 f   encode.obj
 0001:00034e30       ChooseContextMap           0000000180035e30 f   encode.obj
 0001:00035420       ShouldUseComplexStaticContextMap 0000000180036420 f   encode.obj
 0001:000358a0       ShouldCompress             00000001800368a0 f   encode.obj
 0001:00035ae0       WriteMetaBlockInternal     0000000180036ae0 f   encode.obj
 0001:00036280       EnsureInitialized          0000000180037280 f   encode.obj
 0001:00036720       CopyInputToRingBuffer      0000000180037720 f   encode.obj
 0001:000375dc       $LN575                     00000001800385dc     encode.obj
 0001:00037600       $LN574                     0000000180038600     encode.obj
 0001:00037638       $LN573                     0000000180038638     encode.obj
 0001:00037654       $LN572                     0000000180038654     encode.obj
 0001:0003768c       $LN571                     000000018003868c     encode.obj
 0001:000376b8       $LN570                     00000001800386b8     encode.obj
 0001:000376f0       $LN569                     00000001800386f0     encode.obj
 0001:0003771c       $LN568                     000000018003871c     encode.obj
 0001:00037760       UpdateLastProcessedPos     0000000180038760 f   encode.obj
 0001:000377d0       EncodeData                 00000001800387d0 f   encode.obj
 0001:00039134       $LN4961                    000000018003a134     encode.obj
 0001:00039158       $LN4960                    000000018003a158     encode.obj
 0001:00039190       $LN4959                    000000018003a190     encode.obj
 0001:000391ac       $LN4958                    000000018003a1ac     encode.obj
 0001:000391e4       $LN4957                    000000018003a1e4     encode.obj
 0001:00039210       $LN4956                    000000018003a210     encode.obj
 0001:00039248       $LN4955                    000000018003a248     encode.obj
 0001:00039274       $LN4954                    000000018003a274     encode.obj
 0001:000392b0       WriteMetadataHeader        000000018003a2b0 f   encode.obj
 0001:00039460       InjectFlushOrPushOutput    000000018003a460 f   encode.obj
 0001:00039590       BrotliEncoderCompressStreamFast 000000018003a590 f   encode.obj
 0001:0003ae20       EstimateBitCostsForLiteralsUTF8 000000018003be20 f   literal_cost.obj
 0001:0003bf10       InitBlockSplitterLiteral   000000018003cf10 f   metablock.obj
 0001:0003c130       BlockSplitterFinishBlockLiteral 000000018003d130 f   metablock.obj
 0001:0003c9b0       InitBlockSplitterCommand   000000018003d9b0 f   metablock.obj
 0001:0003cbd0       BlockSplitterFinishBlockCommand 000000018003dbd0 f   metablock.obj
 0001:0003d380       InitBlockSplitterDistance  000000018003e380 f   metablock.obj
 0001:0003d5a0       BlockSplitterFinishBlockDistance 000000018003e5a0 f   metablock.obj
 0001:0003dd50       InitContextBlockSplitter   000000018003ed50 f   metablock.obj
 0001:0003dfe0       ContextBlockSplitterFinishBlock 000000018003efe0 f   metablock.obj
 0001:0003eae0       MapStaticContexts          000000018003fae0 f   metablock.obj
 0001:00040f90       BrotliParseAsUTF8          0000000180041f90 f   utf8_util.obj
 0001:00041860       ?FunctionCallbackWrapper@imp@Nan@@YAXAEBV?$FunctionCallbackInfo@VValue@v8@@@v8@@@Z 0000000180042860 f   stream_decode.obj
 0001:00044480       _register_iltorb           0000000180045480 f   iltorb.obj
 0001:00044490       ?load_exe_hook@@YAP6A_JXZIPEAUDelayLoadInfo@@@Z 0000000180045490 f   win_delay_load_hook.obj
 0001:000447e0       $$000000                   00000001800457e0     LIBCMT:amdsecgs.obj
 0001:000449cc       capture_current_context    00000001800459cc f   LIBCMT:gs_report.obj
 0001:00044a3c       capture_previous_context   0000000180045a3c f   LIBCMT:gs_report.obj
 0001:00044ed8       ?dllmain_crt_dispatch@@YAHQEAUHINSTANCE__@@KQEAX@Z 0000000180045ed8 f   LIBCMT:dll_dllmain.obj
 0001:00044f28       ?dllmain_crt_process_attach@@YAHQEAUHINSTANCE__@@QEAX@Z 0000000180045f28 f   LIBCMT:dll_dllmain.obj
 0001:00045044       ?dllmain_crt_process_detach@@YAH_N@Z 0000000180046044 f   LIBCMT:dll_dllmain.obj
 0001:000450d4       ?dllmain_dispatch@@YAHQEAUHINSTANCE__@@KQEAX@Z 00000001800460d4 f   LIBCMT:dll_dllmain.obj
 0001:00045db0       $$000000                   0000000180046db0     libvcruntime:memset.obj
 0001:00045eac       MsetTab                    0000000180046eac     libvcruntime:memset.obj
 0001:000461e0       ?try_get_function@@YAPEAXW4function_id@?A0x14c33c87@@QEBDQEBW4module_id@2@2@Z 00000001800471e0 f   libvcruntime:winapi_downlevel.obj
 0001:000465c0       $$000000                   00000001800475c0     libvcruntime:notify.obj
 0001:000466c0       $$000000                   00000001800476c0     libvcruntime:memcpy.obj
 0001:00046777       MoveSmall                  0000000180047777     libvcruntime:memcpy.obj
 0001:00046b20       $$000000                   0000000180047b20     libvcruntime:handlers.obj
 0001:00046f0c       ??$common_assert_to_message_box@_W@@YAXQEB_W0IQEAX@Z 0000000180047f0c f   libucrt:assert.obj
 0001:00046fd0       ??$common_assert_to_message_box_build_string@_W@@YAXQEA_W_KQEB_W2IQEAX@Z 0000000180047fd0 f   libucrt:assert.obj
 0001:000474d4       ??$common_assert_to_stderr@_W@@YAXQEB_W0I@Z 00000001800484d4 f   libucrt:assert.obj
 0001:00047644       ?get_assert_format@@YAPEB_W_W@Z 0000000180048644 f   libucrt:assert.obj
 0001:00047758       ??$?RV<lambda_d80eeec6fff315bfe5c115232f3240e3>@@AEAV<lambda_6e4b09c48022b2350581041d5f6b0c4c>@@V<lambda_2358e3775559c9db80273638284d5e45>@@@?$__crt_seh_guarded_call@X@@QEAAX$$QEAV<lambda_d80eeec6fff315bfe5c115232f3240e3>@@AEAV<lambda_6e4b09c48022b2350581041d5f6b0c4c>@@$$QEAV<lambda_2358e3775559c9db80273638284d5e45>@@@Z 0000000180048758 f   libucrt:exit.obj
 0001:00047790       ??R<lambda_6e4b09c48022b2350581041d5f6b0c4c>@@QEBA@XZ 0000000180048790 f   libucrt:exit.obj
 0001:00047854       ?atexit_exception_filter@@YAHK@Z 0000000180048854 f   libucrt:exit.obj
 0001:00047860       ?common_exit@@YAXHW4_crt_exit_cleanup_mode@@W4_crt_exit_return_mode@@@Z 0000000180048860 f   libucrt:exit.obj
 0001:0004791c       ?exit_or_terminate_process@@YAXI@Z 000000018004891c f   libucrt:exit.obj
 0001:00047968       ?try_cor_exit_process@@YAXI@Z 0000000180048968 f   libucrt:exit.obj
 0001:00048084       ??$parse_command_line@D@@YAXPEADPEAPEAD0PEA_K2@Z 0000000180049084 f   libucrt:argv_parsing.obj
 0001:00048430       ??$common_initialize_environment_nolock@D@@YAHXZ 0000000180049430 f   libucrt:environment_initialization.obj
 0001:0004849c       ??$create_environment@D@@YAQEAPEADQEAD@Z 000000018004949c f   libucrt:environment_initialization.obj
 0001:000485a4       ??$free_environment@_W@@YAXQEAPEA_W@Z 00000001800495a4 f   libucrt:environment_initialization.obj
 0001:000485a4       ??$free_environment@D@@YAXQEAPEAD@Z 00000001800495a4 f   libucrt:environment_initialization.obj
 0001:000485e8       ??$uninitialize_environment_internal@D@@YAXAEAPEAPEAD@Z 00000001800495e8 f   libucrt:environment_initialization.obj
 0001:00048604       ??$uninitialize_environment_internal@_W@@YAXAEAPEAPEA_W@Z 0000000180049604 f   libucrt:environment_initialization.obj
 0001:00048660       ??$?RV<lambda_638799b9deba96c50f710eeac98168cd>@@AEAV<lambda_22ebabd17bc4fa466a2aca6d8deb888d>@@V<lambda_a6f7d7db0129f75315ebf26d50c089f1>@@@?$__crt_seh_guarded_call@H@@QEAAH$$QEAV<lambda_638799b9deba96c50f710eeac98168cd>@@AEAV<lambda_22ebabd17bc4fa466a2aca6d8deb888d>@@$$QEAV<lambda_a6f7d7db0129f75315ebf26d50c089f1>@@@Z 0000000180049660 f   libucrt:onexit.obj
 0001:0004869c       ??$?RV<lambda_7777bce6b2f8c936911f934f8298dc43>@@AEAV<lambda_f03950bc5685219e0bcd2087efbe011e>@@V<lambda_3883c3dff614d5e0c5f61bb1ac94921c>@@@?$__crt_seh_guarded_call@H@@QEAAH$$QEAV<lambda_7777bce6b2f8c936911f934f8298dc43>@@AEAV<lambda_f03950bc5685219e0bcd2087efbe011e>@@$$QEAV<lambda_3883c3dff614d5e0c5f61bb1ac94921c>@@@Z 000000018004969c f   libucrt:onexit.obj
 0001:000486d8       ??R<lambda_22ebabd17bc4fa466a2aca6d8deb888d>@@QEBAHXZ 00000001800496d8 f   libucrt:onexit.obj
 0001:00048888       ??R<lambda_f03950bc5685219e0bcd2087efbe011e>@@QEBAHXZ 0000000180049888 f   libucrt:onexit.obj
 0001:00048a5c       initialize_global_variables 0000000180049a5c f   libucrt:initialization.obj
 0001:00048a70       initialize_c               0000000180049a70 f   libucrt:initialization.obj
 0001:00048a94       uninitialize_global_state_isolation 0000000180049a94 f   libucrt:initialization.obj
 0001:00048a94       report_memory_leaks        0000000180049a94 f   libucrt:initialization.obj
 0001:00048a94       uninitialize_c             0000000180049a94 f   libucrt:initialization.obj
 0001:00048a94       initialize_environment     0000000180049a94 f   libucrt:initialization.obj
 0001:00048a94       initialize_global_state_isolation 0000000180049a94 f   libucrt:initialization.obj
 0001:00048a98       uninitialize_environment   0000000180049a98 f   libucrt:initialization.obj
 0001:00048aa8       initialize_pointers        0000000180049aa8 f   libucrt:initialization.obj
 0001:00048ae8       uninitialize_vcruntime     0000000180049ae8 f   libucrt:initialization.obj
 0001:00048af0       uninitialize_allocated_memory 0000000180049af0 f   libucrt:initialization.obj
 0001:00048b30       uninitialize_allocated_io_buffers 0000000180049b30 f   libucrt:initialization.obj
 0001:00048dbc       ??$?RV<lambda_0d412022a4b28cc8a401ea49574e8ae6>@@AEAV<lambda_a775ed57af18ba8e4d5dc780aa9068fe>@@V<lambda_975a71a6baa488a08f4e15f6b0339b9e>@@@?$__crt_seh_guarded_call@H@@QEAAH$$QEAV<lambda_0d412022a4b28cc8a401ea49574e8ae6>@@AEAV<lambda_a775ed57af18ba8e4d5dc780aa9068fe>@@$$QEAV<lambda_975a71a6baa488a08f4e15f6b0339b9e>@@@Z 0000000180049dbc f   libucrt:output.obj
 0001:00048dfc       ??$common_vsprintf@Vstandard_base@__crt_stdio_output@@_W@@YAH_KQEA_W0QEB_WQEAU__crt_locale_pointers@@QEAD@Z 0000000180049dfc f   libucrt:output.obj
 0001:000493bc       ??R<lambda_a775ed57af18ba8e4d5dc780aa9068fe>@@QEBAHXZ 000000018004a3bc f   libucrt:output.obj
 0001:0004b590       $$000000                   000000018004c590     libucrt:strncmp.obj
 0001:0004b6c0       _call_matherr              000000018004c6c0 f   libucrt:libm_error.obj
 0001:0004b728       _exception_enabled         000000018004c728 f   libucrt:libm_error.obj
 0001:0004ba08       ??$common_xtox@K_W@@YAHKQEA_W_KI_N@Z 000000018004ca08 f   libucrt:xtoa.obj
 0001:0004badc       ??$common_xtox_s@K_W@@YAHKQEA_W_KI_N@Z 000000018004cadc f   libucrt:xtoa.obj
 0001:0004c210       ??$?RV<lambda_842d9ff0dc9ef11c61343bbaebe7f885>@@AEAV<lambda_c5860995281e5c4ce005b3de8f5874ee>@@V<lambda_d90129c13df834fdcbf8d2b88dafcf2d>@@@?$__crt_seh_guarded_call@X@@QEAAX$$QEAV<lambda_842d9ff0dc9ef11c61343bbaebe7f885>@@AEAV<lambda_c5860995281e5c4ce005b3de8f5874ee>@@$$QEAV<lambda_d90129c13df834fdcbf8d2b88dafcf2d>@@@Z 000000018004d210 f   libucrt:fflush.obj
 0001:0004c2ac       ??$?RV<lambda_886d6c58226a84441f68b9f2b8217b83>@@AEAV<lambda_ab61a845afdef5b7c387490eaf3616ee>@@V<lambda_f7f22ab5edc0698d5f6905b0d3f44752>@@@?$__crt_seh_guarded_call@X@@QEAAX$$QEAV<lambda_886d6c58226a84441f68b9f2b8217b83>@@AEAV<lambda_ab61a845afdef5b7c387490eaf3616ee>@@$$QEAV<lambda_f7f22ab5edc0698d5f6905b0d3f44752>@@@Z 000000018004d2ac f   libucrt:fflush.obj
 0001:0004c38c       ??$?RV<lambda_c376a267cfb53b6959b3b692ec76b120>@@AEAV<lambda_9a32fed5bf61b6b509b2d3f6003082a1>@@V<lambda_572fbb9fa0ab338edf41edfd4b5fcc8d>@@@?$__crt_seh_guarded_call@H@@QEAAH$$QEAV<lambda_c376a267cfb53b6959b3b692ec76b120>@@AEAV<lambda_9a32fed5bf61b6b509b2d3f6003082a1>@@$$QEAV<lambda_572fbb9fa0ab338edf41edfd4b5fcc8d>@@@Z 000000018004d38c f   libucrt:fflush.obj
 0001:0004c3cc       ?common_flush_all@@YAH_N@Z 000000018004d3cc f   libucrt:fflush.obj
 0001:0004c564       ??$?RV<lambda_84ec643ea9557e2f7dc01bb0e9624395>@@AEAV<lambda_ca71763b3c0644891230e4f79ea54fa6>@@V<lambda_439a761618c59b0600e24586724d733b>@@@?$__crt_seh_guarded_call@H@@QEAAH$$QEAV<lambda_84ec643ea9557e2f7dc01bb0e9624395>@@AEAV<lambda_ca71763b3c0644891230e4f79ea54fa6>@@$$QEAV<lambda_439a761618c59b0600e24586724d733b>@@@Z 000000018004d564 f   libucrt:setvbuf.obj
 0001:0004c5a4       ??R<lambda_ca71763b3c0644891230e4f79ea54fa6>@@QEBAHXZ 000000018004d5a4 f   libucrt:setvbuf.obj
 0001:0004c720       ??$?RV<lambda_450d765d439847d4c735a33c368b5fc0>@@AEAV<lambda_44731a7d0e6d81c3e6aa82d741081786>@@V<lambda_601a2a7da3b7a96e9554ac7215c4b07c>@@@?$__crt_seh_guarded_call@P6AXH@Z@@QEAAP6AXH@Z$$QEAV<lambda_450d765d439847d4c735a33c368b5fc0>@@AEAV<lambda_44731a7d0e6d81c3e6aa82d741081786>@@$$QEAV<lambda_601a2a7da3b7a96e9554ac7215c4b07c>@@@Z 000000018004d720 f   libucrt:signal.obj
 0001:0004cbd8       ??$?RV<lambda_0ae27a3a962d80f24befdcbee591983d>@@AEAV<lambda_8d0ee55de4b1038c4002e0adecdf1839>@@V<lambda_dc504788e8f1664fe9b84e20bfb512f2>@@@?$__crt_seh_guarded_call@X@@QEAAX$$QEAV<lambda_0ae27a3a962d80f24befdcbee591983d>@@AEAV<lambda_8d0ee55de4b1038c4002e0adecdf1839>@@$$QEAV<lambda_dc504788e8f1664fe9b84e20bfb512f2>@@@Z 000000018004dbd8 f   libucrt:per_thread_data.obj
 0001:0004cc18       ??$?RV<lambda_2d41944a1d46af3157314b8a01080d33>@@AEAV<lambda_8f455de75cd7d7f24b4096f044d8b9e6>@@V<lambda_aa500f224e6afead328df44964fe2772>@@@?$__crt_seh_guarded_call@X@@QEAAX$$QEAV<lambda_2d41944a1d46af3157314b8a01080d33>@@AEAV<lambda_8f455de75cd7d7f24b4096f044d8b9e6>@@$$QEAV<lambda_aa500f224e6afead328df44964fe2772>@@@Z 000000018004dc18 f   libucrt:per_thread_data.obj
 0001:0004cc58       ??$?RV<lambda_aa87e3671a710a21b5dc78c0bdf72e11>@@AEAV<lambda_92619d2358a28f41a33ba319515a20b9>@@V<lambda_6992ecaafeb10aed2b74cb1fae11a551>@@@?$__crt_seh_guarded_call@X@@QEAAX$$QEAV<lambda_aa87e3671a710a21b5dc78c0bdf72e11>@@AEAV<lambda_92619d2358a28f41a33ba319515a20b9>@@$$QEAV<lambda_6992ecaafeb10aed2b74cb1fae11a551>@@@Z 000000018004dc58 f   libucrt:per_thread_data.obj
 0001:0004cca0       ??$?RV<lambda_f2e299630e499de9f9a165e60fcd3db5>@@AEAV<lambda_2ae9d31cdba2644fcbeaf08da7c24588>@@V<lambda_40d01ff24d0e7b3814fdbdcee8eab3c7>@@@?$__crt_seh_guarded_call@X@@QEAAX$$QEAV<lambda_f2e299630e499de9f9a165e60fcd3db5>@@AEAV<lambda_2ae9d31cdba2644fcbeaf08da7c24588>@@$$QEAV<lambda_40d01ff24d0e7b3814fdbdcee8eab3c7>@@@Z 000000018004dca0 f   libucrt:per_thread_data.obj
 0001:0004cd00       ?construct_ptd_array@@YAXQEAU__acrt_ptd@@@Z 000000018004dd00 f   libucrt:per_thread_data.obj
 0001:0004cdd0       ?destroy_fls@@YAXPEAX@Z    000000018004ddd0 f   libucrt:per_thread_data.obj
 0001:0004cdf0       ?destroy_ptd_array@@YAXQEAU__acrt_ptd@@@Z 000000018004ddf0 f   libucrt:per_thread_data.obj
 0001:0004cee8       ?replace_current_thread_locale_nolock@@YAXQEAU__acrt_ptd@@QEAU__crt_locale_data@@@Z 000000018004dee8 f   libucrt:per_thread_data.obj
 0001:0004d23c       ?internal_isupper_l@@YA_NHQEAU__crt_locale_pointers@@@Z 000000018004e23c f   libucrt:tolower_toupper.obj
 0001:0004d470       ??$?RV<lambda_410d79af7f07d98d83a3f525b3859a53>@@AEAV<lambda_3e16ef9562a7dcce91392c22ab16ea36>@@V<lambda_38119f0e861e05405d8a144b9b982f0a>@@@?$__crt_seh_guarded_call@X@@QEAAX$$QEAV<lambda_410d79af7f07d98d83a3f525b3859a53>@@AEAV<lambda_3e16ef9562a7dcce91392c22ab16ea36>@@$$QEAV<lambda_38119f0e861e05405d8a144b9b982f0a>@@@Z 000000018004e470 f   libucrt:wsetlocale.obj
 0001:0004d594       ?<lambda_invoker_cdecl>@<lambda_c2303d2482d7c3675ea2e24c4cfb6115>@@CAHPEBX0@Z 000000018004e594 f   libucrt:argv_wildcards.obj
 0001:0004d8ac       ??$common_expand_argv_wildcards@D@@YAHQEAPEADQEAPEAPEAD@Z 000000018004e8ac f   libucrt:argv_wildcards.obj
 0001:0004dab8       ??$copy_and_add_argument_to_buffer@D@@YAHQEBD0_KAEAV?$argument_list@D@?A0x5f5c8891@@@Z 000000018004eab8 f   libucrt:argv_wildcards.obj
 0001:0004dc40       ??$expand_argument_wildcards@D@@YAHQEAD0AEAV?$argument_list@D@?A0x5f5c8891@@@Z 000000018004ec40 f   libucrt:argv_wildcards.obj
 0001:0004df58       ??$?RV<lambda_efdfa57d1f175319df784efa44bb7b81>@@AEAV<lambda_5f0a4c1567f8adc6734073e5d1e1b35c>@@V<lambda_2e8a7d3640ea6ccb4c2413664c2db6fd>@@@?$__crt_seh_guarded_call@X@@QEAAX$$QEAV<lambda_efdfa57d1f175319df784efa44bb7b81>@@AEAV<lambda_5f0a4c1567f8adc6734073e5d1e1b35c>@@$$QEAV<lambda_2e8a7d3640ea6ccb4c2413664c2db6fd>@@@Z 000000018004ef58 f   libucrt:mbctype.obj
 0001:0004e114       ?getSystemCP@@YAHH@Z       000000018004f114 f   libucrt:mbctype.obj
 0001:0004e194       ?setSBCS@@YAXPEAU__crt_multibyte_data@@@Z 000000018004f194 f   libucrt:mbctype.obj
 0001:0004e224       ?setSBUpLow@@YAXPEAU__crt_multibyte_data@@@Z 000000018004f224 f   libucrt:mbctype.obj
 0001:0004e408       ?setmbcp_internal@@YAHH_NQEAU__acrt_ptd@@QEAPEAU__crt_multibyte_data@@@Z 000000018004f408 f   libucrt:mbctype.obj
 0001:0004e5cc       ?update_thread_multibyte_data_internal@@YAPEAU__crt_multibyte_data@@QEAU__acrt_ptd@@QEAPEAU1@@Z 000000018004f5cc f   libucrt:mbctype.obj
 0001:0004e9bc       ?x_ismbbtype_l@@YAHPEAU__crt_locale_pointers@@IHH@Z 000000018004f9bc f   libucrt:ismbbyte.obj
 0001:0004ed00       ?try_get_function@@YAPEAXW4function_id@?A0x391cf84c@@QEBDQEBW4module_id@2@2@Z 000000018004fd00 f   libucrt:winapi_thunks.obj
 0001:0004f584       ?initialize_inherited_file_handles_nolock@@YAXXZ 0000000180050584 f   libucrt:ioinit.obj
 0001:0004f674       ?initialize_stdio_handles_nolock@@YAXXZ 0000000180050674 f   libucrt:ioinit.obj
 0001:0004ffec       ?fp_format_a@@YAHQEBNPEAD_KQEAD2H_NIQEAU__crt_locale_pointers@@@Z 0000000180050fec f   libucrt:cvt.obj
 0001:0005035c       ?fp_format_e@@YAHQEBNQEAD_K12H_NIQEAU__crt_locale_pointers@@@Z 000000018005135c f   libucrt:cvt.obj
 0001:00050438       ?fp_format_e_internal@@YAHQEAD_KH_NIQEAU_strflt@@2QEAU__crt_locale_pointers@@@Z 0000000180051438 f   libucrt:cvt.obj
 0001:0005060c       ?fp_format_f_internal@@YAHQEAD_KHQEAU_strflt@@_NQEAU__crt_locale_pointers@@@Z 000000018005160c f   libucrt:cvt.obj
 0001:00050750       ?fp_format_g@@YAHQEBNQEAD_K12H_NIQEAU__crt_locale_pointers@@@Z 0000000180051750 f   libucrt:cvt.obj
 0001:00050884       ?fp_format_nan_or_infinity@@YAHW4__acrt_fp_class@@_NPEAD_K1@Z 0000000180051884 f   libucrt:cvt.obj
 0001:00051500       ??$?RV<lambda_a37b2b86f63e897a80ea819b0eb08c01>@@AEAV<lambda_38ce7e780aa69e748d6df282ebc68efe>@@V<lambda_99fb1378e971ab6e7edea83e3a7a83a2>@@@?$__crt_seh_guarded_call@H@@QEAAH$$QEAV<lambda_a37b2b86f63e897a80ea819b0eb08c01>@@AEAV<lambda_38ce7e780aa69e748d6df282ebc68efe>@@$$QEAV<lambda_99fb1378e971ab6e7edea83e3a7a83a2>@@@Z 0000000180052500 f   libucrt:commit.obj
 0001:00051620       ?write_double_translated_ansi_nolock@@YA?AUwrite_result@?A0x17268360@@HQEBDI@Z 0000000180052620 f   libucrt:write.obj
 0001:00051afc       ?write_text_ansi_nolock@@YA?AUwrite_result@?A0x17268360@@HQEBDI@Z 0000000180052afc f   libucrt:write.obj
 0001:00051c00       ?write_text_utf16le_nolock@@YA?AUwrite_result@?A0x17268360@@HQEBDI@Z 0000000180052c00 f   libucrt:write.obj
 0001:00051d1c       ?write_text_utf8_nolock@@YA?AUwrite_result@?A0x17268360@@HQEBDI@Z 0000000180052d1c f   libucrt:write.obj
 0001:000526ac       ?__acrt_LCMapStringA_stat@@YAHPEAU__crt_locale_pointers@@PEB_WKPEBDHPEADHHH@Z 00000001800536ac f   libucrt:lcmapstringa.obj
 0001:00052bd4       ?free_crt_array_internal@@YAXQEAPEBX_K@Z 0000000180053bd4 f   libucrt:inittime.obj
 0001:00053364       fallbackMethod             0000000180054364 f   libucrt:strpbrk.obj
 0001:00053734       $LN78                      0000000180054734     libucrt:strpbrk.obj
 0001:00053770       $LN77                      0000000180054770     libucrt:strpbrk.obj
 0001:000537b0       $LN76                      00000001800547b0     libucrt:strpbrk.obj
 0001:0005388c       ?initialize_multibyte@@YAHXZ 000000018005488c f   libucrt:multibyte_initializer.obj
 0001:0005395c       ?GetTableIndexFromLocaleName@@YAHPEB_W@Z 000000018005495c f   libucrt:lcidtoname_downlevel.obj
 0001:000557b0       memcpy_s                   00000001800567b0 f   libucrt:cfout.obj
 0001:00055838       ??$write_buffer_nolock@D@@YA_NDV__crt_stdio_stream@@@Z 0000000180056838 f   libucrt:_flsbuf.obj
 0001:0005591c       ??$write_buffer_nolock@_W@@YA_N_WV__crt_stdio_stream@@@Z 000000018005691c f   libucrt:_flsbuf.obj
 0001:00055a04       ?stream_is_at_end_of_file_nolock@@YA_NV__crt_stdio_stream@@@Z 0000000180056a04 f   libucrt:_flsbuf.obj
 0001:00055c60       $$000000                   0000000180056c60     libucrt:fpsr.obj
 0001:00055da8       ??$common_lseek@_J@@YA_JH_JH@Z 0000000180056da8 f   libucrt:lseek.obj
 0001:00055e98       ??$common_lseek_nolock@_J@@YA_JH_JH@Z 0000000180056e98 f   libucrt:lseek.obj
 0001:00056300       $$000000                   0000000180057300     libucrt:log10.obj
 0001:00056914       ??$?RV<lambda_751a882b2c74d4b022dec766aa51a29a>@@AEAV<lambda_628dfdc04ba53c8bfc02c9951375f3f5>@@V<lambda_f6c7be5f7998530c34de24c7437d6b54>@@@?$__crt_seh_guarded_call@H@@QEAAH$$QEAV<lambda_751a882b2c74d4b022dec766aa51a29a>@@AEAV<lambda_628dfdc04ba53c8bfc02c9951375f3f5>@@$$QEAV<lambda_f6c7be5f7998530c34de24c7437d6b54>@@@Z 0000000180057914 f   libucrt:close.obj
 0001:00057050       _log_special_common        0000000180058050 f   libucrt:log_special.obj
 0001:000578a0       $$000000                   00000001800588a0     LIBCMT:chkstk.obj
 0001:00057910       $$000000                   0000000180058910     libvcruntime:memcmp.obj
 0001:00057b40       $$000000                   0000000180058b40     LIBCMT:guard_dispatch.obj
 0001:00057b60       __scrt_is_nonwritable_in_current_image$filt$0 0000000180058b60 f   LIBCMT:utility.obj
 0001:00057b78       ?fin$0@?0??dllmain_crt_process_attach@@YAHQEAUHINSTANCE__@@QEAX@Z@4HA 0000000180058b78 f   LIBCMT:dll_dllmain.obj
 0001:00057b8f       ?fin$0@?0??dllmain_crt_process_detach@@YAH_N@Z@4HA 0000000180058b8f f   LIBCMT:dll_dllmain.obj
 0001:00057bab       ?filt$0@?0??dllmain_dispatch@@YAHQEAUHINSTANCE__@@KQEAX@Z@4HA 0000000180058bab f   LIBCMT:dll_dllmain.obj
 0001:00057be1       __DestructExceptionObject$filt$0 0000000180058be1 f   libvcruntime:ehhelpers.obj
 0001:00057bf9       ?fin$0@?0???$?RV<lambda_2d41944a1d46af3157314b8a01080d33>@@AEAV<lambda_8f455de75cd7d7f24b4096f044d8b9e6>@@V<lambda_aa500f224e6afead328df44964fe2772>@@@?$__crt_seh_guarded_call@X@@QEAAX$$QEAV<lambda_2d41944a1d46af3157314b8a01080d33>@@AEAV<lambda_8f455de75cd7d7f24b4096f044d8b9e6>@@$$QEAV<lambda_aa500f224e6afead328df44964fe2772>@@@Z@4HA 0000000180058bf9 f   libucrt:per_thread_data.obj
 0001:00057bf9       ?fin$0@?0???$?RV<lambda_450d765d439847d4c735a33c368b5fc0>@@AEAV<lambda_44731a7d0e6d81c3e6aa82d741081786>@@V<lambda_601a2a7da3b7a96e9554ac7215c4b07c>@@@?$__crt_seh_guarded_call@P6AXH@Z@@QEAAP6AXH@Z$$QEAV<lambda_450d765d439847d4c735a33c368b5fc0>@@AEAV<lambda_44731a7d0e6d81c3e6aa82d741081786>@@$$QEAV<lambda_601a2a7da3b7a96e9554ac7215c4b07c>@@@Z@4HA 0000000180058bf9 f   libucrt:signal.obj
 0001:00057bf9       ?fin$0@?0???$?RV<lambda_aa87e3671a710a21b5dc78c0bdf72e11>@@AEAV<lambda_92619d2358a28f41a33ba319515a20b9>@@V<lambda_6992ecaafeb10aed2b74cb1fae11a551>@@@?$__crt_seh_guarded_call@X@@QEAAX$$QEAV<lambda_aa87e3671a710a21b5dc78c0bdf72e11>@@AEAV<lambda_92619d2358a28f41a33ba319515a20b9>@@$$QEAV<lambda_6992ecaafeb10aed2b74cb1fae11a551>@@@Z@4HA 0000000180058bf9 f   libucrt:per_thread_data.obj
 0001:00057bf9       ?fin$0@?0???$?RV<lambda_efdfa57d1f175319df784efa44bb7b81>@@AEAV<lambda_5f0a4c1567f8adc6734073e5d1e1b35c>@@V<lambda_2e8a7d3640ea6ccb4c2413664c2db6fd>@@@?$__crt_seh_guarded_call@X@@QEAAX$$QEAV<lambda_efdfa57d1f175319df784efa44bb7b81>@@AEAV<lambda_5f0a4c1567f8adc6734073e5d1e1b35c>@@$$QEAV<lambda_2e8a7d3640ea6ccb4c2413664c2db6fd>@@@Z@4HA 0000000180058bf9 f   libucrt:mbctype.obj
 0001:00057bf9       ?fin$0@?0???$?RV<lambda_638799b9deba96c50f710eeac98168cd>@@AEAV<lambda_22ebabd17bc4fa466a2aca6d8deb888d>@@V<lambda_a6f7d7db0129f75315ebf26d50c089f1>@@@?$__crt_seh_guarded_call@H@@QEAAH$$QEAV<lambda_638799b9deba96c50f710eeac98168cd>@@AEAV<lambda_22ebabd17bc4fa466a2aca6d8deb888d>@@$$QEAV<lambda_a6f7d7db0129f75315ebf26d50c089f1>@@@Z@4HA 0000000180058bf9 f   libucrt:onexit.obj
 0001:00057bf9       ?fin$0@?0???$?RV<lambda_7777bce6b2f8c936911f934f8298dc43>@@AEAV<lambda_f03950bc5685219e0bcd2087efbe011e>@@V<lambda_3883c3dff614d5e0c5f61bb1ac94921c>@@@?$__crt_seh_guarded_call@H@@QEAAH$$QEAV<lambda_7777bce6b2f8c936911f934f8298dc43>@@AEAV<lambda_f03950bc5685219e0bcd2087efbe011e>@@$$QEAV<lambda_3883c3dff614d5e0c5f61bb1ac94921c>@@@Z@4HA 0000000180058bf9 f   libucrt:onexit.obj
 0001:00057bf9       ?fin$0@?0???$?RV<lambda_0ae27a3a962d80f24befdcbee591983d>@@AEAV<lambda_8d0ee55de4b1038c4002e0adecdf1839>@@V<lambda_dc504788e8f1664fe9b84e20bfb512f2>@@@?$__crt_seh_guarded_call@X@@QEAAX$$QEAV<lambda_0ae27a3a962d80f24befdcbee591983d>@@AEAV<lambda_8d0ee55de4b1038c4002e0adecdf1839>@@$$QEAV<lambda_dc504788e8f1664fe9b84e20bfb512f2>@@@Z@4HA 0000000180058bf9 f   libucrt:per_thread_data.obj
 0001:00057bf9       ?fin$0@?0???$?RV<lambda_d80eeec6fff315bfe5c115232f3240e3>@@AEAV<lambda_6e4b09c48022b2350581041d5f6b0c4c>@@V<lambda_2358e3775559c9db80273638284d5e45>@@@?$__crt_seh_guarded_call@X@@QEAAX$$QEAV<lambda_d80eeec6fff315bfe5c115232f3240e3>@@AEAV<lambda_6e4b09c48022b2350581041d5f6b0c4c>@@$$QEAV<lambda_2358e3775559c9db80273638284d5e45>@@@Z@4HA 0000000180058bf9 f   libucrt:exit.obj
 0001:00057bf9       ?fin$0@?0???$?RV<lambda_f2e299630e499de9f9a165e60fcd3db5>@@AEAV<lambda_2ae9d31cdba2644fcbeaf08da7c24588>@@V<lambda_40d01ff24d0e7b3814fdbdcee8eab3c7>@@@?$__crt_seh_guarded_call@X@@QEAAX$$QEAV<lambda_f2e299630e499de9f9a165e60fcd3db5>@@AEAV<lambda_2ae9d31cdba2644fcbeaf08da7c24588>@@$$QEAV<lambda_40d01ff24d0e7b3814fdbdcee8eab3c7>@@@Z@4HA 0000000180058bf9 f   libucrt:per_thread_data.obj
 0001:00057c13       ?filt$0@?0???R<lambda_6e4b09c48022b2350581041d5f6b0c4c>@@QEBA@XZ@4HA 0000000180058c13 f   libucrt:exit.obj
 0001:00057c2e       _query_new_handler$fin$0   0000000180058c2e f   libucrt:new_handler.obj
 0001:00057c44       ?fin$0@?0???$?RV<lambda_c376a267cfb53b6959b3b692ec76b120>@@AEAV<lambda_9a32fed5bf61b6b509b2d3f6003082a1>@@V<lambda_572fbb9fa0ab338edf41edfd4b5fcc8d>@@@?$__crt_seh_guarded_call@H@@QEAAH$$QEAV<lambda_c376a267cfb53b6959b3b692ec76b120>@@AEAV<lambda_9a32fed5bf61b6b509b2d3f6003082a1>@@$$QEAV<lambda_572fbb9fa0ab338edf41edfd4b5fcc8d>@@@Z@4HA 0000000180058c44 f   libucrt:fflush.obj
 0001:00057c44       ?fin$0@?0???$?RV<lambda_0d412022a4b28cc8a401ea49574e8ae6>@@AEAV<lambda_a775ed57af18ba8e4d5dc780aa9068fe>@@V<lambda_975a71a6baa488a08f4e15f6b0339b9e>@@@?$__crt_seh_guarded_call@H@@QEAAH$$QEAV<lambda_0d412022a4b28cc8a401ea49574e8ae6>@@AEAV<lambda_a775ed57af18ba8e4d5dc780aa9068fe>@@$$QEAV<lambda_975a71a6baa488a08f4e15f6b0339b9e>@@@Z@4HA 0000000180058c44 f   libucrt:output.obj
 0001:00057c44       ?fin$0@?0???$?RV<lambda_842d9ff0dc9ef11c61343bbaebe7f885>@@AEAV<lambda_c5860995281e5c4ce005b3de8f5874ee>@@V<lambda_d90129c13df834fdcbf8d2b88dafcf2d>@@@?$__crt_seh_guarded_call@X@@QEAAX$$QEAV<lambda_842d9ff0dc9ef11c61343bbaebe7f885>@@AEAV<lambda_c5860995281e5c4ce005b3de8f5874ee>@@$$QEAV<lambda_d90129c13df834fdcbf8d2b88dafcf2d>@@@Z@4HA 0000000180058c44 f   libucrt:fflush.obj
 0001:00057c44       ?fin$0@?0???$?RV<lambda_84ec643ea9557e2f7dc01bb0e9624395>@@AEAV<lambda_ca71763b3c0644891230e4f79ea54fa6>@@V<lambda_439a761618c59b0600e24586724d733b>@@@?$__crt_seh_guarded_call@H@@QEAAH$$QEAV<lambda_84ec643ea9557e2f7dc01bb0e9624395>@@AEAV<lambda_ca71763b3c0644891230e4f79ea54fa6>@@$$QEAV<lambda_439a761618c59b0600e24586724d733b>@@@Z@4HA 0000000180058c44 f   libucrt:setvbuf.obj
 0001:00057c5f       ?fin$0@?0???$?RV<lambda_886d6c58226a84441f68b9f2b8217b83>@@AEAV<lambda_ab61a845afdef5b7c387490eaf3616ee>@@V<lambda_f7f22ab5edc0698d5f6905b0d3f44752>@@@?$__crt_seh_guarded_call@X@@QEAAX$$QEAV<lambda_886d6c58226a84441f68b9f2b8217b83>@@AEAV<lambda_ab61a845afdef5b7c387490eaf3616ee>@@$$QEAV<lambda_f7f22ab5edc0698d5f6905b0d3f44752>@@@Z@4HA 0000000180058c5f f   libucrt:fflush.obj
 0001:00057c7c       raise$fin$0                0000000180058c7c f   libucrt:signal.obj
 0001:00057c9d       ?fin$0@?0???$?RV<lambda_410d79af7f07d98d83a3f525b3859a53>@@AEAV<lambda_3e16ef9562a7dcce91392c22ab16ea36>@@V<lambda_38119f0e861e05405d8a144b9b982f0a>@@@?$__crt_seh_guarded_call@X@@QEAAX$$QEAV<lambda_410d79af7f07d98d83a3f525b3859a53>@@AEAV<lambda_3e16ef9562a7dcce91392c22ab16ea36>@@$$QEAV<lambda_38119f0e861e05405d8a144b9b982f0a>@@@Z@4HA 0000000180058c9d f   libucrt:wsetlocale.obj
 0001:00057cb7       ?fin$0@?0??update_thread_multibyte_data_internal@@YAPEAU__crt_multibyte_data@@QEAU__acrt_ptd@@QEAPEAU1@@Z@4HA 0000000180058cb7 f   libucrt:mbctype.obj
 0001:00057cd0       __acrt_lowio_ensure_fh_exists$fin$0 0000000180058cd0 f   libucrt:osfinfo.obj
 0001:00057cd0       __acrt_initialize_lowio$fin$0 0000000180058cd0 f   libucrt:ioinit.obj
 0001:00057ce9       _ctrlfp$filt$0             0000000180058ce9 f   libucrt:fpctrl.obj
 0001:00057d15       _fcloseall$fin$0           0000000180058d15 f   libucrt:closeall.obj
 0001:00057d2e       ?fin$0@?0???$?RV<lambda_751a882b2c74d4b022dec766aa51a29a>@@AEAV<lambda_628dfdc04ba53c8bfc02c9951375f3f5>@@V<lambda_f6c7be5f7998530c34de24c7437d6b54>@@@?$__crt_seh_guarded_call@H@@QEAAH$$QEAV<lambda_751a882b2c74d4b022dec766aa51a29a>@@AEAV<lambda_628dfdc04ba53c8bfc02c9951375f3f5>@@$$QEAV<lambda_f6c7be5f7998530c34de24c7437d6b54>@@@Z@4HA 0000000180058d2e f   libucrt:close.obj
 0001:00057d2e       ?fin$0@?0???$?RV<lambda_a37b2b86f63e897a80ea819b0eb08c01>@@AEAV<lambda_38ce7e780aa69e748d6df282ebc68efe>@@V<lambda_99fb1378e971ab6e7edea83e3a7a83a2>@@@?$__crt_seh_guarded_call@H@@QEAAH$$QEAV<lambda_a37b2b86f63e897a80ea819b0eb08c01>@@AEAV<lambda_38ce7e780aa69e748d6df282ebc68efe>@@$$QEAV<lambda_99fb1378e971ab6e7edea83e3a7a83a2>@@@Z@4HA 0000000180058d2e f   libucrt:commit.obj
 0001:00057d48       _write$fin$0               0000000180058d48 f   libucrt:write.obj
 0001:00057d48       ?fin$0@?0???$common_lseek@_J@@YA_JH_JH@Z@4HA 0000000180058d48 f   libucrt:lseek.obj
 0001:00057d5f       __acrt_update_thread_locale_data$fin$0 0000000180058d5f f   libucrt:locale_refcounting.obj
 0001:00057d78       fclose$fin$0               0000000180058d78 f   libucrt:fclose.obj
 0001:00057d90       _IsNonwritableInCurrentImage$filt$0 0000000180058d90 f   LIBCMT:pesect.obj
 0001:00057db0       ??__F?constructor@StreamDecode@@0V?$Persistent@VFunction@v8@@V?$NonCopyablePersistentTraits@VFunction@v8@@@2@@Nan@@A@@YAXXZ 0000000180058db0 f   stream_decode.obj
 0001:00057dc0       ??__F?constructor@StreamEncode@@0V?$Persistent@VFunction@v8@@V?$NonCopyablePersistentTraits@VFunction@v8@@@2@@Nan@@A@@YAXXZ 0000000180058dc0 f   stream_encode.obj
 0002:00000270       ??constructor$initializer$@StreamDecode@@0P6AXXZEA@@3P6AXXZEA 0000000180059270     stream_decode.obj
 0002:00000278       ??constructor$initializer$@StreamEncode@@0P6AXXZEA@@3P6AXXZEA 0000000180059278     stream_encode.obj
 0002:00000300       GS_ExceptionPointers       0000000180059300     LIBCMT:gs_report.obj
 0002:000003e0       ?ExceptionTemplate@?1??_CxxThrowException@@9@4UEHExceptionRecord@@B 00000001800593e0     libvcruntime:throw.obj
 0002:00000420       ?module_names@?A0x14c33c87@@3QBQEB_WB 0000000180059420     libvcruntime:winapi_downlevel.obj
 0002:000004f0       ?candidate_modules@?1??try_get_FlsAlloc@@YAP6AKP6AXPEAX@Z@ZXZ@4QBW4module_id@?A0x14c33c87@@B 00000001800594f0     libvcruntime:winapi_downlevel.obj
 0002:00000508       ?candidate_modules@?1??try_get_FlsFree@@YAP6AHK@ZXZ@4QBW4module_id@?A0x14c33c87@@B 0000000180059508     libvcruntime:winapi_downlevel.obj
 0002:00000518       ?candidate_modules@?1??try_get_FlsGetValue@@YAP6APEAXK@ZXZ@4QBW4module_id@?A0x14c33c87@@B 0000000180059518     libvcruntime:winapi_downlevel.obj
 0002:00000530       ?candidate_modules@?1??try_get_FlsSetValue@@YAP6AHKPEAX@ZXZ@4QBW4module_id@?A0x14c33c87@@B 0000000180059530     libvcruntime:winapi_downlevel.obj
 0002:00000548       ?candidate_modules@?1??try_get_InitializeCriticalSectionEx@@YAP6AHPEAU_RTL_CRITICAL_SECTION@@KK@ZXZ@4QBW4module_id@?A0x14c33c87@@B 0000000180059548     libvcruntime:winapi_downlevel.obj
 0002:00000580       ?tokenTable@@3QBQEBDB      0000000180059580     libvcruntime:undname.obj
 0002:00000600       ?nameTable@@3QBQEBDB       0000000180059600     libvcruntime:undname.obj
 0002:00000890       ?rttiTable@@3QBQEBDB       0000000180059890     libvcruntime:undname.obj
 0002:00000f50       ?ln_lead_table@?1??log2@@9@9 0000000180059f50     libucrt:log2.obj
 0002:00001160       ?ln_tail_table@?1??log2@@9@9 000000018005a160     libucrt:log2.obj
 0002:000017b0       __acrt_initializers        000000018005a7b0     libucrt:initialization.obj
 0002:00001930       ?errtable@@3QBUerrentry@?A0x31fdb9ec@@B 000000018005a930     libucrt:errno.obj
 0002:00002120       ?_mb_locale_names@@3QBQEB_WB 000000018005b120     libucrt:mbctype.obj
 0002:00002180       ?module_names@?A0x391cf84c@@3QBQEB_WB 000000018005b180     libucrt:winapi_thunks.obj
 0002:00002728       ?candidate_modules@?1??try_get_AreFileApisANSI@@YAP6AHXZXZ@4QBW4module_id@?A0x391cf84c@@B 000000018005b728     libucrt:winapi_thunks.obj
 0002:00002740       ?candidate_modules@?1??try_get_FlsAlloc@@YAP6AKP6AXPEAX@Z@ZXZ@4QBW4module_id@?A0x391cf84c@@B 000000018005b740     libucrt:winapi_thunks.obj
 0002:00002758       ?candidate_modules@?1??try_get_FlsFree@@YAP6AHK@ZXZ@4QBW4module_id@?A0x391cf84c@@B 000000018005b758     libucrt:winapi_thunks.obj
 0002:00002768       ?candidate_modules@?1??try_get_FlsGetValue@@YAP6APEAXK@ZXZ@4QBW4module_id@?A0x391cf84c@@B 000000018005b768     libucrt:winapi_thunks.obj
 0002:00002780       ?candidate_modules@?1??try_get_FlsSetValue@@YAP6AHKPEAX@ZXZ@4QBW4module_id@?A0x391cf84c@@B 000000018005b780     libucrt:winapi_thunks.obj
 0002:00002798       ?candidate_modules@?1??try_get_GetActiveWindow@@YAP6APEAUHWND__@@XZXZ@4QBW4module_id@?A0x391cf84c@@B 000000018005b798     libucrt:winapi_thunks.obj
 0002:000027b0       ?candidate_modules@?1??try_get_GetLastActivePopup@@YAP6APEAUHWND__@@PEAU2@@ZXZ@4QBW4module_id@?A0x391cf84c@@B 000000018005b7b0     libucrt:winapi_thunks.obj
 0002:000027d0       ?candidate_modules@?1??try_get_GetProcessWindowStation@@YAP6APEAUHWINSTA__@@XZXZ@4QBW4module_id@?A0x391cf84c@@B 000000018005b7d0     libucrt:winapi_thunks.obj
 0002:000027f0       ?candidate_modules@?1??try_get_GetUserObjectInformationW@@YAP6AHPEAXH0KPEAK@ZXZ@4QBW4module_id@?A0x391cf84c@@B 000000018005b7f0     libucrt:winapi_thunks.obj
 0002:00002818       ?candidate_modules@?1??try_get_InitializeCriticalSectionEx@@YAP6AHPEAU_RTL_CRITICAL_SECTION@@KK@ZXZ@4QBW4module_id@?A0x391cf84c@@B 000000018005b818     libucrt:winapi_thunks.obj
 0002:00002840       ?candidate_modules@?1??try_get_LCMapStringEx@@YAP6AHPEB_WK0HPEA_WHPEAU_nlsversioninfo@@PEAX_J@ZXZ@4QBW4module_id@?A0x391cf84c@@B 000000018005b840     libucrt:winapi_thunks.obj
 0002:00002858       ?candidate_modules@?1??try_get_LocaleNameToLCID@@YAP6AKPEB_WK@ZXZ@4QBW4module_id@?A0x391cf84c@@B 000000018005b858     libucrt:winapi_thunks.obj
 0002:00002878       ?candidate_modules@?1??try_get_MessageBoxA@@YAP6AHPEAUHWND__@@PEBD1I@ZXZ@4QBW4module_id@?A0x391cf84c@@B 000000018005b878     libucrt:winapi_thunks.obj
 0002:00002890       ?candidate_modules@?1??try_get_MessageBoxW@@YAP6AHPEAUHWND__@@PEB_W1I@ZXZ@4QBW4module_id@?A0x391cf84c@@B 000000018005b890     libucrt:winapi_thunks.obj
 0002:000028a4       ?candidate_modules@?1??try_get_AppPolicyGetProcessTerminationMethod@@YAP6AJPEAXPEAW4AppPolicyProcessTerminationMethod@@@ZXZ@4QBW4module_id@?A0x391cf84c@@B 000000018005b8a4     libucrt:winapi_thunks.obj
 0002:000028d0       ?candidate_modules@?1??try_get_AppPolicyGetShowDeveloperDiagnostic@@YAP6AJPEAXPEAW4AppPolicyShowDeveloperDiagnostic@@@ZXZ@4QBW4module_id@?A0x391cf84c@@B 000000018005b8d0     libucrt:winapi_thunks.obj
 0002:000028fc       ?candidate_modules@?1??try_get_AppPolicyGetWindowingModel@@YAP6AJPEAXPEAW4AppPolicyWindowingModel@@@ZXZ@4QBW4module_id@?A0x391cf84c@@B 000000018005b8fc     libucrt:winapi_thunks.obj
 0002:000031a0       ?LcidToLocaleNameTable@?A0x881e4c05@@3QBULcidToLocaleName@1@B 000000018005c1a0     libucrt:lcidtoname_downlevel.obj
 0002:00004c00       ?LocaleNameToIndexTable@?A0x881e4c05@@3QBULocaleNameIndex@1@B 000000018005dc00     libucrt:lcidtoname_downlevel.obj
 0002:00006e90       __real@433fffffffffffff    000000018005fe90     libucrt:fpsr.obj
 0002:00006e98       __real@c33fffffffffffff    000000018005fe98     libucrt:fpsr.obj
 0002:00006ea0       __real_ninf                000000018005fea0     libucrt:log10.obj
 0002:00006eb0       __real_inf                 000000018005feb0     libucrt:log10.obj
 0002:00006ec0       __real_neg_qnan            000000018005fec0     libucrt:log10.obj
 0002:00006ed0       __real_qnanbit             000000018005fed0     libucrt:log10.obj
 0002:00006ee0       __int_1023                 000000018005fee0     libucrt:log10.obj
 0002:00006ef0       __mask_001                 000000018005fef0     libucrt:log10.obj
 0002:00006f00       __mask_mant                000000018005ff00     libucrt:log10.obj
 0002:00006f10       __mask_mant_top8           000000018005ff10     libucrt:log10.obj
 0002:00006f20       __mask_mant9               000000018005ff20     libucrt:log10.obj
 0002:00006f30       __real_log10_e             000000018005ff30     libucrt:log10.obj
 0002:00006f40       __real_log10_e_lead        000000018005ff40     libucrt:log10.obj
 0002:00006f50       __real_log10_e_tail        000000018005ff50     libucrt:log10.obj
 0002:00006f60       __real_log10_2_lead        000000018005ff60     libucrt:log10.obj
 0002:00006f70       __real_log10_2_tail        000000018005ff70     libucrt:log10.obj
 0002:00006f80       __real_two                 000000018005ff80     libucrt:log10.obj
 0002:00006f90       __real_one                 000000018005ff90     libucrt:log10.obj
 0002:00006fa0       __real_half                000000018005ffa0     libucrt:log10.obj
 0002:00006fb0       __mask_100                 000000018005ffb0     libucrt:log10.obj
 0002:00006fc0       __real_1_over_512          000000018005ffc0     libucrt:log10.obj
 0002:00006fd0       __real_1_over_2            000000018005ffd0     libucrt:log10.obj
 0002:00006fe0       __real_1_over_3            000000018005ffe0     libucrt:log10.obj
 0002:00006ff0       __real_1_over_4            000000018005fff0     libucrt:log10.obj
 0002:00007000       __real_1_over_5            0000000180060000     libucrt:log10.obj
 0002:00007010       __real_1_over_6            0000000180060010     libucrt:log10.obj
 0002:00007020       __real_neg_1023            0000000180060020     libucrt:log10.obj
 0002:00007030       __mask_2045                0000000180060030     libucrt:log10.obj
 0002:00007040       __real_threshold           0000000180060040     libucrt:log10.obj
 0002:00007050       __real_near_one_lt         0000000180060050     libucrt:log10.obj
 0002:00007060       __real_near_one_gt         0000000180060060     libucrt:log10.obj
 0002:00007070       __real_min_norm            0000000180060070     libucrt:log10.obj
 0002:00007080       __real_notsign             0000000180060080     libucrt:log10.obj
 0002:00007090       __real_ca1                 0000000180060090     libucrt:log10.obj
 0002:000070a0       __real_ca2                 00000001800600a0     libucrt:log10.obj
 0002:000070b0       __real_ca3                 00000001800600b0     libucrt:log10.obj
 0002:000070c0       __real_ca4                 00000001800600c0     libucrt:log10.obj
 0002:000070d0       __mask_lower               00000001800600d0     libucrt:log10.obj
 0002:000070e0       __flag_x_zero              00000001800600e0     libucrt:log10.obj
 0002:000070e4       __flag_x_neg               00000001800600e4     libucrt:log10.obj
 0002:000070e8       __flag_x_nan               00000001800600e8     libucrt:log10.obj
 0002:00008a90       kBrotliDictionary          0000000180061a90     dictionary.obj
 0002:00026ad0       kCmdLut                    000000018007fad0     decode.obj
 0002:000280d0       kCodeLengthPrefixValue     00000001800810d0     decode.obj
 0002:000280e0       kCodeLengthCodeOrder       00000001800810e0     decode.obj
 0002:000280f2       kUppercaseFirst            00000001800810f2     static_dict.obj
 0002:000280f4       ?kRingBufferWriteAheadSlack@?1??BrotliEnsureRingBuffer@@9@9 00000001800810f4     decode.obj
 0002:000280f8       kNumTransforms             00000001800810f8     decode.obj
 0002:00028100       kContextLookup             0000000180081100     decode.obj
 0002:00028800       kTransforms                0000000180081800     decode.obj
 0002:0002896c       kHashMul32                 000000018008196c     backward_references.obj
 0002:00028970       kCodeLengthPrefixLength    0000000180081970     decode.obj
 0002:00028980       kBitMask                   0000000180081980     decode.obj
 0002:00028a04       kCutoffTransformsCount     0000000180081a04     backward_references.obj
 0002:00028a08       kHashMul64                 0000000180081a08     backward_references.obj
 0002:00028a10       kBlockLengthPrefixCode     0000000180081a10     decode.obj
 0002:00028a78       kContextLookupOffsets      0000000180081a78     decode.obj
 0002:00028a98       kCutoffTransforms          0000000180081a98     backward_references.obj
 0002:00028aa0       kPrefixSuffix              0000000180081aa0     decode.obj
 0002:00028b70       kReverseBits               0000000180081b70     huffman.obj
 0002:00028c70       kMaxHuffmanTableSize       0000000180081c70     state.obj
 0002:00028ca0       kHashMul64Long             0000000180081ca0     backward_references.obj
 0002:00028ca8       kInfinity                  0000000180081ca8     backward_references_hq.obj
 0002:00028cb0       kLog2Table                 0000000180081cb0     backward_references_hq.obj
 0002:000290b0       kHashMul32                 00000001800820b0     backward_references_hq.obj
 0002:000290b4       kInvalidMatch              00000001800820b4     backward_references_hq.obj
 0002:000290b8       ?kFourSymbolHistogramCost@?1??BrotliPopulationCostLiteral@@9@9 00000001800820b8     bit_cost.obj
 0002:000290c0       kCopyExtra                 00000001800820c0     backward_references_hq.obj
 0002:00029120       kDistanceCacheOffset       0000000180082120     backward_references_hq.obj
 0002:00029160       kInsExtra                  0000000180082160     backward_references_hq.obj
 0002:000291c0       kDistanceCacheIndex        00000001800821c0     backward_references_hq.obj
 0002:00029200       ?kOneSymbolHistogramCost@?1??BrotliPopulationCostLiteral@@9@9 0000000180082200     bit_cost.obj
 0002:00029208       ?kThreeSymbolHistogramCost@?1??BrotliPopulationCostDistance@@9@9 0000000180082208     bit_cost.obj
 0002:00029210       kLog2Table                 0000000180082210     bit_cost.obj
 0002:00029610       ?kTwoSymbolHistogramCost@?1??BrotliPopulationCostLiteral@@9@9 0000000180082610     bit_cost.obj
 0002:00029618       ?kThreeSymbolHistogramCost@?1??BrotliPopulationCostCommand@@9@9 0000000180082618     bit_cost.obj
 0002:00029620       ?kOneSymbolHistogramCost@?1??BrotliPopulationCostCommand@@9@9 0000000180082620     bit_cost.obj
 0002:00029628       ?kOneSymbolHistogramCost@?1??BrotliPopulationCostDistance@@9@9 0000000180082628     bit_cost.obj
 0002:00029630       ?kThreeSymbolHistogramCost@?1??BrotliPopulationCostLiteral@@9@9 0000000180082630     bit_cost.obj
 0002:00029638       ?kTwoSymbolHistogramCost@?1??BrotliPopulationCostCommand@@9@9 0000000180082638     bit_cost.obj
 0002:00029640       ?kFourSymbolHistogramCost@?1??BrotliPopulationCostCommand@@9@9 0000000180082640     bit_cost.obj
 0002:00029648       ?kFourSymbolHistogramCost@?1??BrotliPopulationCostDistance@@9@9 0000000180082648     bit_cost.obj
 0002:00029650       ?kTwoSymbolHistogramCost@?1??BrotliPopulationCostDistance@@9@9 0000000180082650     bit_cost.obj
 0002:00029658       kMinLengthForBlockSplitting 0000000180082658     block_splitter.obj
 0002:00029660       ?kInvalidId@?1??RemapBlockIdsDistance@@9@9 0000000180082660     block_splitter.obj
 0002:00029664       ?kInvalidId@?1??RemapBlockIdsCommand@@9@9 0000000180082664     block_splitter.obj
 0002:00029668       kIterMulForRefining        0000000180082668     block_splitter.obj
 0002:00029670       kLog2Table                 0000000180082670     block_splitter.obj
 0002:00029a70       kMaxCommandHistograms      0000000180082a70     block_splitter.obj
 0002:00029a78       ?kInvalidId@?1??RemapBlockIdsLiteral@@9@9 0000000180082a78     block_splitter.obj
 0002:00029a7c       ?kInvalidIndex@?1??ClusterBlocksCommand@@9@9 0000000180082a7c     block_splitter.obj
 0002:00029a80       kSymbolsPerCommandHistogram 0000000180082a80     block_splitter.obj
 0002:00029a88       kLiteralBlockSwitchCost    0000000180082a88     block_splitter.obj
 0002:00029a90       kSymbolsPerLiteralHistogram 0000000180082a90     block_splitter.obj
 0002:00029a98       kLiteralStrideLength       0000000180082a98     block_splitter.obj
 0002:00029aa0       ?kInvalidIndex@?1??ClusterBlocksDistance@@9@9 0000000180082aa0     block_splitter.obj
 0002:00029aa4       ?kInvalidIndex@?1??ClusterBlocksLiteral@@9@9 0000000180082aa4     block_splitter.obj
 0002:00029aa8       kCommandBlockSwitchCost    0000000180082aa8     block_splitter.obj
 0002:00029ab0       kCommandStrideLength       0000000180082ab0     block_splitter.obj
 0002:00029ab8       kMaxLiteralHistograms      0000000180082ab8     block_splitter.obj
 0002:00029ac0       kDistanceBlockSwitchCost   0000000180082ac0     block_splitter.obj
 0002:00029ac8       kSymbolsPerDistanceHistogram 0000000180082ac8     block_splitter.obj
 0002:00029ad0       kMinItersForRefining       0000000180082ad0     block_splitter.obj
 0002:00029ad8       kCodeLengthDepth           0000000180082ad8     brotli_bit_stream.obj
 0002:00029af0       kCopyBase                  0000000180082af0     brotli_bit_stream.obj
 0002:00029b50       ?gaps@?1??SortHuffmanTreeItems@@9@9 0000000180082b50     brotli_bit_stream.obj
 0002:00029b80       kStaticDistanceCodeDepth   0000000180082b80     brotli_bit_stream.obj
 0002:00029bc0       kNonZeroRepsBits           0000000180082bc0     brotli_bit_stream.obj
 0002:0002b1c0       kSigned3BitContextLookup   00000001800841c0     brotli_bit_stream.obj
 0002:0002b2c0       ?kStorageOrder@?1??BrotliStoreHuffmanTreeOfHuffmanTreeToBitMask@@9@9 00000001800842c0     brotli_bit_stream.obj
 0002:0002b2d4       ?kSymbolMask@?1??EncodeContextMap@@9@9 00000001800842d4     brotli_bit_stream.obj
 0002:0002b2d8       ?kHuffmanBitLengthHuffmanCodeSymbols@?1??BrotliStoreHuffmanTreeOfHuffmanTreeToBitMask@@9@9 00000001800842d8     brotli_bit_stream.obj
 0002:0002b2e0       kUTF8ContextLookup         00000001800842e0     brotli_bit_stream.obj
 0002:0002b4e0       kStaticDistanceCodeBits    00000001800844e0     brotli_bit_stream.obj
 0002:0002b560       kCopyExtra                 0000000180084560     brotli_bit_stream.obj
 0002:0002b5c0       kStaticCommandCodeDepth    00000001800845c0     brotli_bit_stream.obj
 0002:0002b880       kBlockLengthPrefixCode     0000000180084880     brotli_bit_stream.obj
 0002:0002b950       kStaticCommandCodeBits     0000000180084950     brotli_bit_stream.obj
 0002:0002bed0       kInsBase                   0000000180084ed0     brotli_bit_stream.obj
 0002:0002bf30       ?kHuffmanBitLengthHuffmanCodeBitLengths@?1??BrotliStoreHuffmanTreeOfHuffmanTreeToBitMask@@9@9 0000000180084f30     brotli_bit_stream.obj
 0002:0002bf38       ?kInvalidIndex@?1??BrotliHistogramReindexLiteral@@9@9 0000000180084f38     cluster.obj
 0002:0002bf40       kZeroRepsDepth             0000000180084f40     brotli_bit_stream.obj
 0002:0002ca40       kNonZeroRepsDepth          0000000180085a40     brotli_bit_stream.obj
 0002:0002d540       kZeroRepsBits              0000000180086540     brotli_bit_stream.obj
 0002:0002eb40       kInsExtra                  0000000180087b40     brotli_bit_stream.obj
 0002:0002eba0       kCodeLengthBits            0000000180087ba0     brotli_bit_stream.obj
 0002:0002ebe8       ?kInvalidIndex@?1??BrotliHistogramReindexDistance@@9@9 0000000180087be8     cluster.obj
 0002:0002ebf0       kLog2Table                 0000000180087bf0     cluster.obj
 0002:0002eff0       kLog2Table                 0000000180087ff0     compress_fragment.obj
 0002:0002f3f0       ?kSampleRate@?7??BuildAndStoreLiteralPrefixCode@@9@9 00000001800883f0     compress_fragment.obj
 0002:0002f3f8       ?kSampleRate@?1??ShouldMergeBlock@@9@9 00000001800883f8     compress_fragment.obj
 0002:0002f400       kHashMul32                 0000000180088400     compress_fragment.obj
 0002:0002f404       kHashMul32                 0000000180088404     compress_fragment_two_pass.obj
 0002:0002f408       ?kFirstBlockSize@?1??BrotliCompressFragmentFastImpl@@9@9 0000000180088408     compress_fragment.obj
 0002:0002f410       ?kMergeBlockSize@?1??BrotliCompressFragmentFastImpl@@9@9 0000000180088410     compress_fragment.obj
 0002:0002f418       kCompressFragmentTwoPassBlockSize 0000000180088418     compress_fragment_two_pass.obj
 0002:0002f420       kLog2Table                 0000000180088420     compress_fragment_two_pass.obj
 0002:0002f820       ?kNumExtraBits@?1??StoreCommands@@9@9 0000000180088820     compress_fragment_two_pass.obj
 0002:0002fa20       ?kInsertOffset@?1??StoreCommands@@9@9 0000000180088a20     compress_fragment_two_pass.obj
 0002:0003fa80       ?kMinEntropy@?3??ShouldCompress@@9@9 0000000180098a80     encode.obj
 0002:0003fa88       ?lut@?6??DecideOverLiteralContextModeling@@9@9 0000000180098a88     encode.obj
 0002:0003fa98       ?kDefaultCommandCodeNumBits@?1??InitCommandPrefixCodes@@9@9 0000000180098a98     encode.obj
 0002:0003faa0       kLog2Table                 0000000180098aa0     encode.obj
 0002:0003fea0       kHashMul64                 0000000180098ea0     encode.obj
 0002:0003fea8       ?kSlackForEightByteHashingEverywhere@?1??RingBufferInitBuffer@@9@9 0000000180098ea8     encode.obj
 0002:0003feb0       kSigned3BitContextLookup   0000000180098eb0     encode.obj
 0002:0003ffb0       kUTF8ContextLookup         0000000180098fb0     encode.obj
 0002:000401b0       ?kDefaultCommandCode@?1??InitCommandPrefixCodes@@9@9 00000001800991b0     encode.obj
 0002:000401ec       kHashMul32                 00000001800991ec     encode.obj
 0002:000401f0       kCompressFragmentTwoPassBlockSize 00000001800991f0     encode.obj
 0002:000401f8       kMinUTF8Ratio              00000001800991f8     encode.obj
 0002:00040200       ?kStaticContextMapSimpleUTF8@?1??ChooseContextMap@@9@9 0000000180099200     encode.obj
 0002:00040300       ?kStaticContextMapComplexUTF8@?1??ShouldUseComplexStaticContextMap@@9@9 0000000180099300     encode.obj
 0002:00040400       kHashMul64Long             0000000180099400     encode.obj
 0002:00040408       ?kSampleRate@?3??ShouldCompress@@9@9 0000000180099408     encode.obj
 0002:00040410       ?kDefaultCommandDepths@?1??InitCommandPrefixCodes@@9@9 0000000180099410     encode.obj
 0002:00040490       ?kStaticContextMapContinuation@?1??ChooseContextMap@@9@9 0000000180099490     encode.obj
 0002:00040590       ?kDefaultCommandBits@?1??InitCommandPrefixCodes@@9@9 0000000180099590     encode.obj
 0002:00040690       ?gaps@?1??SortHuffmanTreeItems@@9@9 0000000180099690     entropy_encode.obj
 0002:000406c0       ?kLut@?1??BrotliReverseBits@@9@9 00000001800996c0     entropy_encode.obj
 0002:00040740       kSigned3BitContextLookup   0000000180099740     histogram.obj
 0002:00040840       kUTF8ContextLookup         0000000180099840     histogram.obj
 0002:00040a40       kLog2Table                 0000000180099a40     literal_cost.obj
 0002:00040e40       kMinUTF8Ratio              0000000180099e40     literal_cost.obj
 0002:00040e48       ?kMaxNumberOfHistograms@?1??BrotliBuildMetaBlock@@9@9 0000000180099e48     metablock.obj
 0002:00040e50       kLog2Table                 0000000180099e50     metablock.obj
 0002:00041250       kSigned3BitContextLookup   000000018009a250     metablock.obj
 0002:00041350       kUTF8ContextLookup         000000018009a350     metablock.obj
 0002:00041550       kDictHashMul32             000000018009a550     static_dict.obj
 0002:00041554       kDictNumBits               000000018009a554     static_dict.obj
 0002:00041560       kStaticDictionaryBuckets   000000018009a560     static_dict.obj
 0002:00051560       kOmitLastNTransforms       00000001800aa560     static_dict.obj
 0002:00051570       kStaticDictionaryWords     00000001800aa570     static_dict.obj
 0002:00072488       $unwind$DecodeCommandBlockSwitch 00000001800cb488     decode.obj
 0002:00072488       $unwind$TransformDictionaryWord 00000001800cb488     decode.obj
 0002:00072488       $unwind$SafeReadSymbolCodeLengths 00000001800cb488     decode.obj
 0002:00072488       $unwind$DecodeLiteralBlockSwitch 00000001800cb488     decode.obj
 0002:00072488       $unwind$DecodeDistanceBlockSwitch 00000001800cb488     decode.obj
 0002:000724a0       $unwind$DecodeVarLenUint8  00000001800cb4a0     decode.obj
 0002:000724ac       $unwind$DecodeMetaBlockLength 00000001800cb4ac     decode.obj
 0002:000724ac       $unwind$__acrt_fenv_set_control 00000001800cb4ac     libucrt:_fenvutils.obj
 0002:000724bc       $unwind$??$type_case_integer_parse_into_buffer@I@?$output_processor@_WV?$stream_output_adapter@_W@__crt_stdio_output@@V?$standard_base@_WV?$stream_output_adapter@_W@__crt_stdio_output@@@2@@__crt_stdio_output@@AEAAXII_N@Z 00000001800cb4bc     libucrt:output.obj
 0002:000724bc       $unwind$StartPosQueuePush  00000001800cb4bc     backward_references_hq.obj
 0002:000724bc       $unwind$??$type_case_integer_parse_into_buffer@_K@?$output_processor@_WV?$string_output_adapter@_W@__crt_stdio_output@@V?$standard_base@_WV?$string_output_adapter@_W@__crt_stdio_output@@@2@@__crt_stdio_output@@AEAAX_KI_N@Z 00000001800cb4bc     libucrt:output.obj
 0002:000724bc       $unwind$??$type_case_integer_parse_into_buffer@_K@?$output_processor@_WV?$stream_output_adapter@_W@__crt_stdio_output@@V?$standard_base@_WV?$stream_output_adapter@_W@__crt_stdio_output@@@2@@__crt_stdio_output@@AEAAX_KI_N@Z 00000001800cb4bc     libucrt:output.obj
 0002:000724bc       $unwind$??$type_case_integer_parse_into_buffer@I@?$output_processor@_WV?$string_output_adapter@_W@__crt_stdio_output@@V?$standard_base@_WV?$string_output_adapter@_W@__crt_stdio_output@@@2@@__crt_stdio_output@@AEAAXII_N@Z 00000001800cb4bc     libucrt:output.obj
 0002:000724bc       $unwind$SafeDecodeSymbol   00000001800cb4bc     decode.obj
 0002:000724c4       $unwind$ReadSymbolCodeLengths 00000001800cb4c4     decode.obj
 0002:000724d8       $chain$1$ReadSymbolCodeLengths 00000001800cb4d8     decode.obj
 0002:000724f0       $chain$2$ReadSymbolCodeLengths 00000001800cb4f0     decode.obj
 0002:00072500       $chain$3$ReadSymbolCodeLengths 00000001800cb500     decode.obj
 0002:00072500       $chain$5$ReadSymbolCodeLengths 00000001800cb500     decode.obj
 0002:00072518       $unwind$ReadCodeLengthCodeLengths 00000001800cb518     decode.obj
 0002:00072518       $unwind$?DloadObtainSection@@YAPEAXPEAK0@Z 00000001800cb518     DelayImp:delayhlp.obj
 0002:00072518       $unwind$UpdateBits         00000001800cb518     compress_fragment.obj
 0002:00072528       $unwind$StoreCompressedMetaBlockHeader 00000001800cb528     brotli_bit_stream.obj
 0002:00072528       $unwind$InitBlockSplitterCommand 00000001800cb528     metablock.obj
 0002:00072528       $unwind$BrotliStoreUncompressedMetaBlock 00000001800cb528     brotli_bit_stream.obj
 0002:00072528       $unwind$InitBlockSplitterLiteral 00000001800cb528     metablock.obj
 0002:00072528       $unwind$ReadHuffmanCode    00000001800cb528     decode.obj
 0002:00072528       $unwind$DecodeContextMap   00000001800cb528     decode.obj
 0002:00072528       $unwind$BrotliHistogramReindexLiteral 00000001800cb528     cluster.obj
 0002:00072528       $unwind$InitBlockSplitterDistance 00000001800cb528     metablock.obj
 0002:00072528       $unwind$StoreSimpleHuffmanTree 00000001800cb528     brotli_bit_stream.obj
 0002:00072528       $unwind$?try_get_function@@YAPEAXW4function_id@?A0x14c33c87@@QEBDQEBW4module_id@2@2@Z 00000001800cb528     libvcruntime:winapi_downlevel.obj
 0002:00072528       $unwind$?try_get_function@@YAPEAXW4function_id@?A0x391cf84c@@QEBDQEBW4module_id@2@2@Z 00000001800cb528     libucrt:winapi_thunks.obj
 0002:00072528       $unwind$BrotliHistogramReindexDistance 00000001800cb528     cluster.obj
 0002:00072544       $unwind$SafeDecodeLiteralBlockSwitch 00000001800cb544     decode.obj
 0002:00072544       $unwind$ProcessCommands    00000001800cb544     decode.obj
 0002:00072544       $unwind$SafeDecodeCommandBlockSwitch 00000001800cb544     decode.obj
 0002:00072544       $unwind$SafeDecodeDistanceBlockSwitch 00000001800cb544     decode.obj
 0002:00072560       $unwind$RunLengthCodeZeros 00000001800cb560     brotli_bit_stream.obj
 0002:00072560       $unwind$?type_case_integer@?$output_processor@_WV?$string_output_adapter@_W@__crt_stdio_output@@V?$standard_base@_WV?$string_output_adapter@_W@__crt_stdio_output@@@2@@__crt_stdio_output@@AEAA_NI_N@Z 00000001800cb560     libucrt:output.obj
 0002:00072560       $unwind$?type_case_integer@?$output_processor@_WV?$stream_output_adapter@_W@__crt_stdio_output@@V?$standard_base@_WV?$stream_output_adapter@_W@__crt_stdio_output@@@2@@__crt_stdio_output@@AEAA_NI_N@Z 00000001800cb560     libucrt:output.obj
 0002:00072560       $unwind$WriteRingBuffer    00000001800cb560     decode.obj
 0002:00072560       $unwind$??$common_xtox@K_W@@YAHKQEA_W_KI_N@Z 00000001800cb560     libucrt:xtoa.obj
 0002:00072560       $unwind$??R<lambda_f03950bc5685219e0bcd2087efbe011e>@@QEBAHXZ 00000001800cb560     libucrt:onexit.obj
 0002:00072578       $unwind$__acrt_execute_uninitializers 00000001800cb578     libucrt:shared_initialization.obj
 0002:00072578       $unwind$__acrt_stdio_begin_temporary_buffering_nolock 00000001800cb578     libucrt:_sftbuf.obj
 0002:00072578       $unwind$__acrt_uninitialize_lowio 00000001800cb578     libucrt:ioinit.obj
 0002:00072578       $unwind$_RTC_Terminate     00000001800cb578     LIBCMT:initsect.obj
 0002:00072578       $unwind$??_Glength_error@std@@UEAAPEAXI@Z 00000001800cb578     libcpmt:xthrow.obj
 0002:00072578       $unwind$_realloc_base      00000001800cb578     libucrt:realloc_base.obj
 0002:00072578       $unwind$BrotliDecoderStateCleanupAfterMetablock 00000001800cb578     state.obj
 0002:00072578       $unwind$__acrt_can_show_message_box 00000001800cb578     libucrt:winapi_thunks.obj
 0002:00072578       $unwind$_RTC_Initialize    00000001800cb578     LIBCMT:initsect.obj
 0002:00072578       $unwind$__acrt_FlsSetValue 00000001800cb578     libucrt:winapi_thunks.obj
 0002:00072578       $unwind$wcsncat_s          00000001800cb578     libucrt:wcsncat_s.obj
 0002:00072578       $unwind$??_GStreamEncode@@EEAAPEAXI@Z 00000001800cb578     stream_encode.obj
 0002:00072578       $unwind$??_Glogic_error@std@@UEAAPEAXI@Z 00000001800cb578     libcpmt:xthrow.obj
 0002:00072578       $unwind$?Alloc@Allocator@@SAPEAXPEAX_K@Z 00000001800cb578     allocator.obj
 0002:00072578       $unwind$??$common_initialize_environment_nolock@D@@YAHXZ 00000001800cb578     libucrt:environment_initialization.obj
 0002:00072578       $unwind$__acrt_errno_map_os_error 00000001800cb578     libucrt:errno.obj
 0002:00072578       $unwind$__acrt_fp_strflt_to_string 00000001800cb578     libucrt:_fptostr.obj
 0002:00072578       $unwind$_close_nolock      00000001800cb578     libucrt:close.obj
 0002:00072578       $unwind$?force_decimal_point@__crt_stdio_output@@YAXPEADQEAU__crt_locale_pointers@@@Z 00000001800cb578     libucrt:output.obj
 0002:00072578       $unwind$__acrt_LocaleNameToLCID 00000001800cb578     libucrt:winapi_thunks.obj
 0002:00072578       $unwind$??_GObjectWrap@Nan@@UEAAPEAXI@Z 00000001800cb578     stream_coder.obj
 0002:00072578       $unwind$??_Gbad_array_new_length@std@@UEAAPEAXI@Z 00000001800cb578     LIBCMT:throw_bad_alloc.obj
 0002:00072578       $unwind$strncpy_s          00000001800cb578     libucrt:strncpy_s.obj
 0002:00072578       $unwind$??_Gbad_alloc@std@@UEAAPEAXI@Z 00000001800cb578     LIBCMT:throw_bad_alloc.obj
 0002:00072578       $unwind$GetBrotliStorage   00000001800cb578     encode.obj
 0002:00072578       $unwind$??_GStreamEncodeWorker@@EEAAPEAXI@Z 00000001800cb578     stream_encode_worker.obj
 0002:00072578       $unwind$?DloadGetSRWLockFunctionPointers@@YAEXZ 00000001800cb578     DelayImp:delayhlp.obj
 0002:00072578       $unwind$??_Gexception@std@@UEAAPEAXI@Z 00000001800cb578     LIBCMT:throw_bad_alloc.obj
 0002:00072578       $unwind$__acrt_stdio_allocate_buffer_nolock 00000001800cb578     libucrt:_getbuf.obj
 0002:00072578       $unwind$__vcrt_FlsSetValue 00000001800cb578     libvcruntime:winapi_downlevel.obj
 0002:00072578       $unwind$_fclose_nolock     00000001800cb578     libucrt:fclose.obj
 0002:00072578       $unwind$?replace_current_thread_locale_nolock@@YAXQEAU__acrt_ptd@@QEAU__crt_locale_data@@@Z 00000001800cb578     libucrt:per_thread_data.obj
 0002:00072578       $unwind$_initterm_e        00000001800cb578     libucrt:initterm.obj
 0002:00072578       $unwind$BrotliEnsureRingBuffer 00000001800cb578     decode.obj
 0002:00072578       $unwind$??_GAsyncWorker@Nan@@UEAAPEAXI@Z 00000001800cb578     stream_decode_worker.obj
 0002:00072578       $unwind$_updatetlocinfoEx_nolock 00000001800cb578     libucrt:locale_refcounting.obj
 0002:00072578       $unwind$??_GStreamCoder@@MEAAPEAXI@Z 00000001800cb578     stream_coder.obj
 0002:00072578       $unwind$??_GStreamDecodeWorker@@EEAAPEAXI@Z 00000001800cb578     stream_decode_worker.obj
 0002:00072584       $unwind$SafeProcessCommands 00000001800cb584     decode.obj
 0002:0007259c       $unwind$BrotliDecoderDecompressStream 00000001800cb59c     decode.obj
 0002:000725b0       $chain$1$BrotliDecoderDecompressStream 00000001800cb5b0     decode.obj
 0002:000725c8       $chain$2$BrotliDecoderDecompressStream 00000001800cb5c8     decode.obj
 0002:000725d8       $unwind$BrotliBuildCodeLengthsHuffmanTable 00000001800cb5d8     huffman.obj
 0002:000725f0       $chain$2$BrotliBuildCodeLengthsHuffmanTable 00000001800cb5f0     huffman.obj
 0002:0007260c       $chain$3$BrotliBuildCodeLengthsHuffmanTable 00000001800cb60c     huffman.obj
 0002:0007261c       $unwind$BrotliBuildHuffmanTable 00000001800cb61c     huffman.obj
 0002:00072634       $unwind$iswctype           00000001800cb634     libucrt:iswctype.obj
 0002:00072634       $unwind$BrotliBuildSimpleHuffmanTable 00000001800cb634     huffman.obj
 0002:00072634       $unwind$?New@StreamDecode@@CAXAEBV?$FunctionCallbackInfo@VValue@v8@@@Nan@@@Z 00000001800cb634     stream_decode.obj
 0002:00072634       $unwind$?New@StreamEncode@@CAXAEBV?$FunctionCallbackInfo@VValue@v8@@@Nan@@@Z 00000001800cb634     stream_encode.obj
 0002:00072640       $chain$0$BrotliBuildSimpleHuffmanTable 00000001800cb640     huffman.obj
 0002:00072654       $chain$1$BrotliBuildSimpleHuffmanTable 00000001800cb654     huffman.obj
 0002:00072664       $unwind$CreateBackwardReferencesH2 00000001800cb664     backward_references.obj
 0002:00072678       $chain$2$CreateBackwardReferencesH2 00000001800cb678     backward_references.obj
 0002:00072694       $chain$3$CreateBackwardReferencesH2 00000001800cb694     backward_references.obj
 0002:000726a4       $unwind$CreateBackwardReferencesH3 00000001800cb6a4     backward_references.obj
 0002:000726b4       $chain$3$CreateBackwardReferencesH3 00000001800cb6b4     backward_references.obj
 0002:000726d4       $chain$4$CreateBackwardReferencesH3 00000001800cb6d4     backward_references.obj
 0002:000726e4       $unwind$CreateBackwardReferencesH4 00000001800cb6e4     backward_references.obj
 0002:000726f4       $chain$3$CreateBackwardReferencesH4 00000001800cb6f4     backward_references.obj
 0002:00072714       $chain$4$CreateBackwardReferencesH4 00000001800cb714     backward_references.obj
 0002:00072724       $unwind$CreateBackwardReferencesH6 00000001800cb724     backward_references.obj
 0002:00072724       $unwind$CreateBackwardReferencesH5 00000001800cb724     backward_references.obj
 0002:00072738       $chain$2$CreateBackwardReferencesH5 00000001800cb738     backward_references.obj
 0002:00072754       $chain$3$CreateBackwardReferencesH5 00000001800cb754     backward_references.obj
 0002:00072764       $chain$4$CreateBackwardReferencesH5 00000001800cb764     backward_references.obj
 0002:00072780       $chain$2$CreateBackwardReferencesH6 00000001800cb780     backward_references.obj
 0002:0007279c       $chain$3$CreateBackwardReferencesH6 00000001800cb79c     backward_references.obj
 0002:000727ac       $chain$4$CreateBackwardReferencesH6 00000001800cb7ac     backward_references.obj
 0002:000727c8       $unwind$CreateBackwardReferencesH40 00000001800cb7c8     backward_references.obj
 0002:000727d8       $chain$3$CreateBackwardReferencesH40 00000001800cb7d8     backward_references.obj
 0002:000727f8       $chain$4$CreateBackwardReferencesH40 00000001800cb7f8     backward_references.obj
 0002:00072808       $chain$5$CreateBackwardReferencesH40 00000001800cb808     backward_references.obj
 0002:00072828       $unwind$CreateBackwardReferencesH41 00000001800cb828     backward_references.obj
 0002:00072838       $chain$4$CreateBackwardReferencesH41 00000001800cb838     backward_references.obj
 0002:0007285c       $chain$5$CreateBackwardReferencesH41 00000001800cb85c     backward_references.obj
 0002:0007286c       $chain$6$CreateBackwardReferencesH41 00000001800cb86c     backward_references.obj
 0002:00072890       $unwind$CreateBackwardReferencesH42 00000001800cb890     backward_references.obj
 0002:000728a0       $chain$3$CreateBackwardReferencesH42 00000001800cb8a0     backward_references.obj
 0002:000728c0       $chain$4$CreateBackwardReferencesH42 00000001800cb8c0     backward_references.obj
 0002:000728d0       $chain$5$CreateBackwardReferencesH42 00000001800cb8d0     backward_references.obj
 0002:000728f0       $unwind$CreateBackwardReferencesH54 00000001800cb8f0     backward_references.obj
 0002:00072900       $chain$4$CreateBackwardReferencesH54 00000001800cb900     backward_references.obj
 0002:00072924       $chain$5$CreateBackwardReferencesH54 00000001800cb924     backward_references.obj
 0002:00072934       $unwind$BrotliCreateBackwardReferences 00000001800cb934     backward_references.obj
 0002:0007293c       $chain$0$BrotliCreateBackwardReferences 00000001800cb93c     backward_references.obj
 0002:00072950       $chain$1$BrotliCreateBackwardReferences 00000001800cb950     backward_references.obj
 0002:00072960       $unwind$SetCost            00000001800cb960     backward_references_hq.obj
 0002:0007297c       $chain$1$SetCost           00000001800cb97c     backward_references_hq.obj
 0002:00072994       $chain$2$SetCost           00000001800cb994     backward_references_hq.obj
 0002:000729a4       $unwind$ZopfliCostModelSetFromCommands 00000001800cb9a4     backward_references_hq.obj
 0002:000729c8       $unwind$ZopfliCostModelSetFromLiteralCosts 00000001800cb9c8     backward_references_hq.obj
 0002:000729e4       $unwind$EvaluateNode       00000001800cb9e4     backward_references_hq.obj
 0002:00072a04       $unwind$UpdateNodes        00000001800cba04     backward_references_hq.obj
 0002:00072a1c       $unwind$BrotliZopfliCreateCommands 00000001800cba1c     backward_references_hq.obj
 0002:00072a28       $chain$4$BrotliZopfliCreateCommands 00000001800cba28     backward_references_hq.obj
 0002:00072a4c       $chain$5$BrotliZopfliCreateCommands 00000001800cba4c     backward_references_hq.obj
 0002:00072a5c       $unwind$ZopfliIterate      00000001800cba5c     backward_references_hq.obj
 0002:00072a74       $chain$2$ZopfliIterate     00000001800cba74     backward_references_hq.obj
 0002:00072a90       $chain$4$ZopfliIterate     00000001800cba90     backward_references_hq.obj
 0002:00072aa8       $chain$5$ZopfliIterate     00000001800cbaa8     backward_references_hq.obj
 0002:00072ab8       $chain$6$ZopfliIterate     00000001800cbab8     backward_references_hq.obj
 0002:00072ac8       $unwind$BrotliZopfliComputeShortestPath 00000001800cbac8     backward_references_hq.obj
 0002:00072ae4       $chain$1$BrotliZopfliComputeShortestPath 00000001800cbae4     backward_references_hq.obj
 0002:00072afc       $chain$4$BrotliZopfliComputeShortestPath 00000001800cbafc     backward_references_hq.obj
 0002:00072afc       $chain$2$BrotliZopfliComputeShortestPath 00000001800cbafc     backward_references_hq.obj
 0002:00072b0c       $chain$3$BrotliZopfliComputeShortestPath 00000001800cbb0c     backward_references_hq.obj
 0002:00072b24       $unwind$BrotliCreateZopfliBackwardReferences 00000001800cbb24     backward_references_hq.obj
 0002:00072b3c       $unwind$BrotliCreateHqZopfliBackwardReferences 00000001800cbb3c     backward_references_hq.obj
 0002:00072b60       $chain$0$BrotliCreateHqZopfliBackwardReferences 00000001800cbb60     backward_references_hq.obj
 0002:00072b74       $chain$1$BrotliCreateHqZopfliBackwardReferences 00000001800cbb74     backward_references_hq.obj
 0002:00072b84       $unwind$BrotliPopulationCostLiteral 00000001800cbb84     bit_cost.obj
 0002:00072ba4       $chain$0$BrotliPopulationCostLiteral 00000001800cbba4     bit_cost.obj
 0002:00072bb8       $chain$15$BrotliPopulationCostLiteral 00000001800cbbb8     bit_cost.obj
 0002:00072bb8       $chain$1$BrotliPopulationCostLiteral 00000001800cbbb8     bit_cost.obj
 0002:00072bc8       $chain$2$BrotliPopulationCostLiteral 00000001800cbbc8     bit_cost.obj
 0002:00072bdc       $chain$3$BrotliPopulationCostLiteral 00000001800cbbdc     bit_cost.obj
 0002:00072bf0       $chain$11$BrotliPopulationCostLiteral 00000001800cbbf0     bit_cost.obj
 0002:00072c20       $chain$12$BrotliPopulationCostLiteral 00000001800cbc20     bit_cost.obj
 0002:00072c38       $chain$13$BrotliPopulationCostLiteral 00000001800cbc38     bit_cost.obj
 0002:00072c4c       $unwind$BrotliPopulationCostCommand 00000001800cbc4c     bit_cost.obj
 0002:00072c4c       $unwind$BrotliPopulationCostDistance 00000001800cbc4c     bit_cost.obj
 0002:00072c6c       $chain$0$BrotliPopulationCostCommand 00000001800cbc6c     bit_cost.obj
 0002:00072c80       $chain$1$BrotliPopulationCostCommand 00000001800cbc80     bit_cost.obj
 0002:00072c80       $chain$15$BrotliPopulationCostCommand 00000001800cbc80     bit_cost.obj
 0002:00072c90       $chain$2$BrotliPopulationCostCommand 00000001800cbc90     bit_cost.obj
 0002:00072ca4       $chain$3$BrotliPopulationCostCommand 00000001800cbca4     bit_cost.obj
 0002:00072cb8       $chain$11$BrotliPopulationCostCommand 00000001800cbcb8     bit_cost.obj
 0002:00072ce8       $chain$12$BrotliPopulationCostCommand 00000001800cbce8     bit_cost.obj
 0002:00072d00       $chain$13$BrotliPopulationCostCommand 00000001800cbd00     bit_cost.obj
 0002:00072d14       $chain$0$BrotliPopulationCostDistance 00000001800cbd14     bit_cost.obj
 0002:00072d28       $chain$1$BrotliPopulationCostDistance 00000001800cbd28     bit_cost.obj
 0002:00072d28       $chain$15$BrotliPopulationCostDistance 00000001800cbd28     bit_cost.obj
 0002:00072d38       $chain$2$BrotliPopulationCostDistance 00000001800cbd38     bit_cost.obj
 0002:00072d4c       $chain$3$BrotliPopulationCostDistance 00000001800cbd4c     bit_cost.obj
 0002:00072d60       $chain$11$BrotliPopulationCostDistance 00000001800cbd60     bit_cost.obj
 0002:00072d90       $chain$12$BrotliPopulationCostDistance 00000001800cbd90     bit_cost.obj
 0002:00072da8       $chain$13$BrotliPopulationCostDistance 00000001800cbda8     bit_cost.obj
 0002:00072dbc       $unwind$InitialEntropyCodesLiteral 00000001800cbdbc     block_splitter.obj
 0002:00072dd0       $chain$1$InitialEntropyCodesLiteral 00000001800cbdd0     block_splitter.obj
 0002:00072de8       $chain$2$InitialEntropyCodesLiteral 00000001800cbde8     block_splitter.obj
 0002:00072df8       $unwind$RefineEntropyCodesLiteral 00000001800cbdf8     block_splitter.obj
 0002:00072e18       $chain$1$RefineEntropyCodesLiteral 00000001800cbe18     block_splitter.obj
 0002:00072e30       $chain$2$RefineEntropyCodesLiteral 00000001800cbe30     block_splitter.obj
 0002:00072e40       $unwind$FindBlocksDistance 00000001800cbe40     block_splitter.obj
 0002:00072e40       $unwind$FindBlocksLiteral  00000001800cbe40     block_splitter.obj
 0002:00072e40       $unwind$FindBlocksCommand  00000001800cbe40     block_splitter.obj
 0002:00072e54       $chain$6$FindBlocksLiteral 00000001800cbe54     block_splitter.obj
 0002:00072e7c       $chain$8$FindBlocksLiteral 00000001800cbe7c     block_splitter.obj
 0002:00072e94       $chain$13$FindBlocksLiteral 00000001800cbe94     block_splitter.obj
 0002:00072eb8       $chain$14$FindBlocksLiteral 00000001800cbeb8     block_splitter.obj
 0002:00072ec8       $chain$15$FindBlocksLiteral 00000001800cbec8     block_splitter.obj
 0002:00072ed8       $chain$16$FindBlocksLiteral 00000001800cbed8     block_splitter.obj
 0002:00072ee8       $unwind$ClusterBlocksLiteral 00000001800cbee8     block_splitter.obj
 0002:00072f0c       $chain$1$ClusterBlocksLiteral 00000001800cbf0c     block_splitter.obj
 0002:00072f24       $chain$2$ClusterBlocksLiteral 00000001800cbf24     block_splitter.obj
 0002:00072f34       $unwind$SplitByteVectorLiteral 00000001800cbf34     block_splitter.obj
 0002:00072f44       $chain$3$SplitByteVectorLiteral 00000001800cbf44     block_splitter.obj
 0002:00072f64       $chain$5$SplitByteVectorLiteral 00000001800cbf64     block_splitter.obj
 0002:00072f84       $chain$6$SplitByteVectorLiteral 00000001800cbf84     block_splitter.obj
 0002:00072f98       $chain$7$SplitByteVectorLiteral 00000001800cbf98     block_splitter.obj
 0002:00072fa8       $unwind$InitialEntropyCodesDistance 00000001800cbfa8     block_splitter.obj
 0002:00072fa8       $unwind$InitialEntropyCodesCommand 00000001800cbfa8     block_splitter.obj
 0002:00072fbc       $chain$1$InitialEntropyCodesCommand 00000001800cbfbc     block_splitter.obj
 0002:00072fd4       $chain$2$InitialEntropyCodesCommand 00000001800cbfd4     block_splitter.obj
 0002:00072fe4       $unwind$RefineEntropyCodesCommand 00000001800cbfe4     block_splitter.obj
 0002:00073004       $chain$1$RefineEntropyCodesCommand 00000001800cc004     block_splitter.obj
 0002:0007301c       $chain$2$RefineEntropyCodesCommand 00000001800cc01c     block_splitter.obj
 0002:0007302c       $chain$6$FindBlocksCommand 00000001800cc02c     block_splitter.obj
 0002:00073054       $chain$8$FindBlocksCommand 00000001800cc054     block_splitter.obj
 0002:0007306c       $chain$13$FindBlocksCommand 00000001800cc06c     block_splitter.obj
 0002:00073090       $chain$14$FindBlocksCommand 00000001800cc090     block_splitter.obj
 0002:000730a0       $chain$15$FindBlocksCommand 00000001800cc0a0     block_splitter.obj
 0002:000730b0       $chain$16$FindBlocksCommand 00000001800cc0b0     block_splitter.obj
 0002:000730c0       $unwind$ClusterBlocksCommand 00000001800cc0c0     block_splitter.obj
 0002:000730e4       $chain$1$ClusterBlocksCommand 00000001800cc0e4     block_splitter.obj
 0002:000730fc       $chain$2$ClusterBlocksCommand 00000001800cc0fc     block_splitter.obj
 0002:0007310c       $unwind$SplitByteVectorCommand 00000001800cc10c     block_splitter.obj
 0002:0007310c       $unwind$SplitByteVectorDistance 00000001800cc10c     block_splitter.obj
 0002:0007311c       $chain$3$SplitByteVectorCommand 00000001800cc11c     block_splitter.obj
 0002:0007313c       $chain$5$SplitByteVectorCommand 00000001800cc13c     block_splitter.obj
 0002:0007315c       $chain$6$SplitByteVectorCommand 00000001800cc15c     block_splitter.obj
 0002:00073170       $chain$7$SplitByteVectorCommand 00000001800cc170     block_splitter.obj
 0002:00073180       $chain$1$InitialEntropyCodesDistance 00000001800cc180     block_splitter.obj
 0002:00073198       $chain$2$InitialEntropyCodesDistance 00000001800cc198     block_splitter.obj
 0002:000731a8       $unwind$RefineEntropyCodesDistance 00000001800cc1a8     block_splitter.obj
 0002:000731c8       $chain$1$RefineEntropyCodesDistance 00000001800cc1c8     block_splitter.obj
 0002:000731e0       $chain$2$RefineEntropyCodesDistance 00000001800cc1e0     block_splitter.obj
 0002:000731f0       $chain$6$FindBlocksDistance 00000001800cc1f0     block_splitter.obj
 0002:00073218       $chain$8$FindBlocksDistance 00000001800cc218     block_splitter.obj
 0002:00073230       $chain$13$FindBlocksDistance 00000001800cc230     block_splitter.obj
 0002:00073254       $chain$14$FindBlocksDistance 00000001800cc254     block_splitter.obj
 0002:00073264       $chain$15$FindBlocksDistance 00000001800cc264     block_splitter.obj
 0002:00073274       $chain$16$FindBlocksDistance 00000001800cc274     block_splitter.obj
 0002:00073284       $unwind$ClusterBlocksDistance 00000001800cc284     block_splitter.obj
 0002:000732a8       $chain$1$ClusterBlocksDistance 00000001800cc2a8     block_splitter.obj
 0002:000732c0       $chain$2$ClusterBlocksDistance 00000001800cc2c0     block_splitter.obj
 0002:000732d0       $chain$3$SplitByteVectorDistance 00000001800cc2d0     block_splitter.obj
 0002:000732f0       $chain$5$SplitByteVectorDistance 00000001800cc2f0     block_splitter.obj
 0002:00073310       $chain$6$SplitByteVectorDistance 00000001800cc310     block_splitter.obj
 0002:00073324       $chain$7$SplitByteVectorDistance 00000001800cc324     block_splitter.obj
 0002:00073334       $unwind$BrotliSplitBlock   00000001800cc334     block_splitter.obj
 0002:0007334c       $chain$2$BrotliSplitBlock  00000001800cc34c     block_splitter.obj
 0002:00073364       $chain$3$BrotliSplitBlock  00000001800cc364     block_splitter.obj
 0002:00073374       $unwind$StoreVarLenUint8   00000001800cc374     brotli_bit_stream.obj
 0002:00073388       $chain$2$StoreVarLenUint8  00000001800cc388     brotli_bit_stream.obj
 0002:0007339c       $chain$3$StoreVarLenUint8  00000001800cc39c     brotli_bit_stream.obj
 0002:000733ac       $unwind$BrotliStoreUncompressedMetaBlockHeader 00000001800cc3ac     brotli_bit_stream.obj
 0002:000733ac       $unwind$BrotliStoreMetaBlockHeader 00000001800cc3ac     compress_fragment_two_pass.obj
 0002:000733ac       $unwind$BrotliStoreMetaBlockHeader 00000001800cc3ac     compress_fragment.obj
 0002:000733c8       $unwind$BrotliStoreHuffmanTreeOfHuffmanTreeToBitMask 00000001800cc3c8     brotli_bit_stream.obj
 0002:000733d8       $chain$2$BrotliStoreHuffmanTreeOfHuffmanTreeToBitMask 00000001800cc3d8     brotli_bit_stream.obj
 0002:000733f4       $chain$3$BrotliStoreHuffmanTreeOfHuffmanTreeToBitMask 00000001800cc3f4     brotli_bit_stream.obj
 0002:00073404       $unwind$BrotliStoreHuffmanTree 00000001800cc404     brotli_bit_stream.obj
 0002:00073424       $unwind$BuildAndStoreHuffmanTree 00000001800cc424     brotli_bit_stream.obj
 0002:00073444       $unwind$BrotliBuildAndStoreHuffmanTreeFast 00000001800cc444     brotli_bit_stream.obj
 0002:0007346c       $unwind$EncodeContextMap   00000001800cc46c     brotli_bit_stream.obj
 0002:0007348c       $chain$0$EncodeContextMap  00000001800cc48c     brotli_bit_stream.obj
 0002:000734a0       $chain$1$EncodeContextMap  00000001800cc4a0     brotli_bit_stream.obj
 0002:000734b0       $chain$2$EncodeContextMap  00000001800cc4b0     brotli_bit_stream.obj
 0002:000734c4       $unwind$BuildAndStoreBlockSplitCode 00000001800cc4c4     brotli_bit_stream.obj
 0002:000734e8       $unwind$StoreTrivialContextMap 00000001800cc4e8     brotli_bit_stream.obj
 0002:00073504       $chain$2$StoreTrivialContextMap 00000001800cc504     brotli_bit_stream.obj
 0002:00073520       $chain$3$StoreTrivialContextMap 00000001800cc520     brotli_bit_stream.obj
 0002:00073530       $unwind$StoreSymbol        00000001800cc530     brotli_bit_stream.obj
 0002:00073540       $chain$0$StoreSymbol       00000001800cc540     brotli_bit_stream.obj
 0002:00073554       $chain$2$StoreSymbol       00000001800cc554     brotli_bit_stream.obj
 0002:0007356c       $chain$3$StoreSymbol       00000001800cc56c     brotli_bit_stream.obj
 0002:00073580       $chain$4$StoreSymbol       00000001800cc580     brotli_bit_stream.obj
 0002:00073590       $chain$5$StoreSymbol       00000001800cc590     brotli_bit_stream.obj
 0002:000735a0       $unwind$StoreSymbolWithContext 00000001800cc5a0     brotli_bit_stream.obj
 0002:000735b0       $chain$0$StoreSymbolWithContext 00000001800cc5b0     brotli_bit_stream.obj
 0002:000735c4       $chain$2$StoreSymbolWithContext 00000001800cc5c4     brotli_bit_stream.obj
 0002:000735dc       $chain$3$StoreSymbolWithContext 00000001800cc5dc     brotli_bit_stream.obj
 0002:000735f0       $chain$4$StoreSymbolWithContext 00000001800cc5f0     brotli_bit_stream.obj
 0002:00073600       $chain$5$StoreSymbolWithContext 00000001800cc600     brotli_bit_stream.obj
 0002:00073610       $unwind$BrotliStoreMetaBlock 00000001800cc610     brotli_bit_stream.obj
 0002:00073630       $unwind$StoreDataWithHuffmanCodes 00000001800cc630     brotli_bit_stream.obj
 0002:00073638       $chain$6$StoreDataWithHuffmanCodes 00000001800cc638     brotli_bit_stream.obj
 0002:00073664       $chain$7$StoreDataWithHuffmanCodes 00000001800cc664     brotli_bit_stream.obj
 0002:00073674       $unwind$BrotliStoreMetaBlockTrivial 00000001800cc674     brotli_bit_stream.obj
 0002:00073698       $unwind$BrotliStoreMetaBlockFast 00000001800cc698     brotli_bit_stream.obj
 0002:000736b0       $chain$4$BrotliStoreMetaBlockFast 00000001800cc6b0     brotli_bit_stream.obj
 0002:000736d4       $chain$5$BrotliStoreMetaBlockFast 00000001800cc6d4     brotli_bit_stream.obj
 0002:000736e8       $chain$6$BrotliStoreMetaBlockFast 00000001800cc6e8     brotli_bit_stream.obj
 0002:000736f8       $chain$7$BrotliStoreMetaBlockFast 00000001800cc6f8     brotli_bit_stream.obj
 0002:00073708       $unwind$BrotliCompareAndPushToQueueLiteral 00000001800cc708     cluster.obj
 0002:00073724       $chain$0$BrotliCompareAndPushToQueueLiteral 00000001800cc724     cluster.obj
 0002:00073738       $chain$8$BrotliCompareAndPushToQueueLiteral 00000001800cc738     cluster.obj
 0002:00073768       $chain$9$BrotliCompareAndPushToQueueLiteral 00000001800cc768     cluster.obj
 0002:00073790       $chain$10$BrotliCompareAndPushToQueueLiteral 00000001800cc790     cluster.obj
 0002:000737a8       $chain$11$BrotliCompareAndPushToQueueLiteral 00000001800cc7a8     cluster.obj
 0002:000737b8       $unwind$BrotliHistogramCombineCommand 00000001800cc7b8     cluster.obj
 0002:000737b8       $unwind$BrotliHistogramCombineLiteral 00000001800cc7b8     cluster.obj
 0002:000737b8       $unwind$BrotliHistogramCombineDistance 00000001800cc7b8     cluster.obj
 0002:000737d4       $chain$0$BrotliHistogramCombineLiteral 00000001800cc7d4     cluster.obj
 0002:000737e8       $chain$1$BrotliHistogramCombineLiteral 00000001800cc7e8     cluster.obj
 0002:000737f8       $unwind$BrotliHistogramBitCostDistanceLiteral 00000001800cc7f8     cluster.obj
 0002:0007380c       $unwind$BrotliHistogramRemapDistance 00000001800cc80c     cluster.obj
 0002:0007380c       $unwind$BrotliHistogramRemapLiteral 00000001800cc80c     cluster.obj
 0002:00073818       $chain$4$BrotliHistogramRemapLiteral 00000001800cc818     cluster.obj
 0002:0007383c       $chain$5$BrotliHistogramRemapLiteral 00000001800cc83c     cluster.obj
 0002:00073850       $chain$6$BrotliHistogramRemapLiteral 00000001800cc850     cluster.obj
 0002:00073860       $chain$7$BrotliHistogramRemapLiteral 00000001800cc860     cluster.obj
 0002:00073870       $unwind$BrotliClusterHistogramsLiteral 00000001800cc870     cluster.obj
 0002:00073870       $unwind$BrotliClusterHistogramsDistance 00000001800cc870     cluster.obj
 0002:00073888       $unwind$BrotliCompareAndPushToQueueCommand 00000001800cc888     cluster.obj
 0002:000738a4       $chain$4$BrotliCompareAndPushToQueueCommand 00000001800cc8a4     cluster.obj
 0002:000738c8       $chain$8$BrotliCompareAndPushToQueueCommand 00000001800cc8c8     cluster.obj
 0002:000738e8       $chain$9$BrotliCompareAndPushToQueueCommand 00000001800cc8e8     cluster.obj
 0002:000738f8       $chain$10$BrotliCompareAndPushToQueueCommand 00000001800cc8f8     cluster.obj
 0002:00073908       $chain$0$BrotliHistogramCombineCommand 00000001800cc908     cluster.obj
 0002:0007391c       $chain$1$BrotliHistogramCombineCommand 00000001800cc91c     cluster.obj
 0002:0007392c       $unwind$BrotliHistogramBitCostDistanceCommand 00000001800cc92c     cluster.obj
 0002:00073940       $unwind$BrotliCompareAndPushToQueueDistance 00000001800cc940     cluster.obj
 0002:0007395c       $chain$1$BrotliCompareAndPushToQueueDistance 00000001800cc95c     cluster.obj
 0002:00073974       $chain$8$BrotliCompareAndPushToQueueDistance 00000001800cc974     cluster.obj
 0002:000739a0       $chain$9$BrotliCompareAndPushToQueueDistance 00000001800cc9a0     cluster.obj
 0002:000739c8       $chain$10$BrotliCompareAndPushToQueueDistance 00000001800cc9c8     cluster.obj
 0002:000739e0       $chain$11$BrotliCompareAndPushToQueueDistance 00000001800cc9e0     cluster.obj
 0002:000739f0       $chain$0$BrotliHistogramCombineDistance 00000001800cc9f0     cluster.obj
 0002:00073a04       $chain$1$BrotliHistogramCombineDistance 00000001800cca04     cluster.obj
 0002:00073a14       $unwind$BrotliHistogramBitCostDistanceDistance 00000001800cca14     cluster.obj
 0002:00073a28       $chain$4$BrotliHistogramRemapDistance 00000001800cca28     cluster.obj
 0002:00073a4c       $chain$5$BrotliHistogramRemapDistance 00000001800cca4c     cluster.obj
 0002:00073a60       $chain$6$BrotliHistogramRemapDistance 00000001800cca60     cluster.obj
 0002:00073a70       $chain$7$BrotliHistogramRemapDistance 00000001800cca70     cluster.obj
 0002:00073a80       $unwind$BuildAndStoreLiteralPrefixCode 00000001800cca80     compress_fragment.obj
 0002:00073a98       $chain$4$BuildAndStoreLiteralPrefixCode 00000001800cca98     compress_fragment.obj
 0002:00073abc       $chain$5$BuildAndStoreLiteralPrefixCode 00000001800ccabc     compress_fragment.obj
 0002:00073ad0       $chain$6$BuildAndStoreLiteralPrefixCode 00000001800ccad0     compress_fragment.obj
 0002:00073ae0       $chain$7$BuildAndStoreLiteralPrefixCode 00000001800ccae0     compress_fragment.obj
 0002:00073af0       $unwind$BuildAndStoreCommandPrefixCode 00000001800ccaf0     compress_fragment.obj
 0002:00073af0       $unwind$BuildAndStoreCommandPrefixCode 00000001800ccaf0     compress_fragment_two_pass.obj
 0002:00073b10       $unwind$ShouldMergeBlock   00000001800ccb10     compress_fragment.obj
 0002:00073b38       $unwind$MapStaticContexts  00000001800ccb38     metablock.obj
 0002:00073b38       $unwind$EmitUncompressedMetaBlock 00000001800ccb38     compress_fragment.obj
 0002:00073b38       $unwind$?Flush@StreamEncode@@CAXAEBV?$FunctionCallbackInfo@VValue@v8@@@Nan@@@Z 00000001800ccb38     stream_encode.obj
 0002:00073b50       $unwind$BrotliCompressFragmentFastImpl9 00000001800ccb50     compress_fragment.obj
 0002:00073b50       $unwind$BrotliCompressFragmentFastImpl11 00000001800ccb50     compress_fragment.obj
 0002:00073b50       $unwind$BrotliCompressFragmentFastImpl13 00000001800ccb50     compress_fragment.obj
 0002:00073b50       $unwind$BrotliCompressFragmentFastImpl15 00000001800ccb50     compress_fragment.obj
 0002:00073b74       $unwind$BrotliCompressFragmentFast 00000001800ccb74     compress_fragment.obj
 0002:00073b88       $chain$0$BrotliCompressFragmentFast 00000001800ccb88     compress_fragment.obj
 0002:00073b9c       $chain$1$BrotliCompressFragmentFast 00000001800ccb9c     compress_fragment.obj
 0002:00073bac       $unwind$StoreCommands      00000001800ccbac     compress_fragment_two_pass.obj
 0002:00073bd0       $unwind$ShouldCompress     00000001800ccbd0     compress_fragment_two_pass.obj
 0002:00073bf4       $chain$2$ShouldCompress    00000001800ccbf4     compress_fragment_two_pass.obj
 0002:00073c10       $chain$3$ShouldCompress    00000001800ccc10     compress_fragment_two_pass.obj
 0002:00073c20       $unwind$BrotliCompressFragmentTwoPassImpl9 00000001800ccc20     compress_fragment_two_pass.obj
 0002:00073c20       $unwind$BrotliCompressFragmentTwoPassImpl12 00000001800ccc20     compress_fragment_two_pass.obj
 0002:00073c20       $unwind$BrotliCompressFragmentTwoPassImpl14 00000001800ccc20     compress_fragment_two_pass.obj
 0002:00073c20       $unwind$BrotliCompressFragmentTwoPassImpl15 00000001800ccc20     compress_fragment_two_pass.obj
 0002:00073c20       $unwind$BrotliCompressFragmentTwoPassImpl11 00000001800ccc20     compress_fragment_two_pass.obj
 0002:00073c20       $unwind$BrotliCompressFragmentTwoPassImpl10 00000001800ccc20     compress_fragment_two_pass.obj
 0002:00073c20       $unwind$BrotliCompressFragmentTwoPassImpl17 00000001800ccc20     compress_fragment_two_pass.obj
 0002:00073c20       $unwind$BrotliCompressFragmentTwoPassImpl16 00000001800ccc20     compress_fragment_two_pass.obj
 0002:00073c20       $unwind$BrotliCompressFragmentTwoPassImpl13 00000001800ccc20     compress_fragment_two_pass.obj
 0002:00073c20       $unwind$BrotliCompressFragmentTwoPassImpl8 00000001800ccc20     compress_fragment_two_pass.obj
 0002:00073c2c       $chain$6$BrotliCompressFragmentTwoPassImpl8 00000001800ccc2c     compress_fragment_two_pass.obj
 0002:00073c58       $chain$7$BrotliCompressFragmentTwoPassImpl8 00000001800ccc58     compress_fragment_two_pass.obj
 0002:00073c68       $chain$6$BrotliCompressFragmentTwoPassImpl9 00000001800ccc68     compress_fragment_two_pass.obj
 0002:00073c94       $chain$7$BrotliCompressFragmentTwoPassImpl9 00000001800ccc94     compress_fragment_two_pass.obj
 0002:00073ca4       $chain$6$BrotliCompressFragmentTwoPassImpl10 00000001800ccca4     compress_fragment_two_pass.obj
 0002:00073cd0       $chain$7$BrotliCompressFragmentTwoPassImpl10 00000001800cccd0     compress_fragment_two_pass.obj
 0002:00073ce0       $chain$6$BrotliCompressFragmentTwoPassImpl11 00000001800ccce0     compress_fragment_two_pass.obj
 0002:00073d0c       $chain$7$BrotliCompressFragmentTwoPassImpl11 00000001800ccd0c     compress_fragment_two_pass.obj
 0002:00073d1c       $chain$6$BrotliCompressFragmentTwoPassImpl12 00000001800ccd1c     compress_fragment_two_pass.obj
 0002:00073d48       $chain$7$BrotliCompressFragmentTwoPassImpl12 00000001800ccd48     compress_fragment_two_pass.obj
 0002:00073d58       $chain$6$BrotliCompressFragmentTwoPassImpl13 00000001800ccd58     compress_fragment_two_pass.obj
 0002:00073d84       $chain$7$BrotliCompressFragmentTwoPassImpl13 00000001800ccd84     compress_fragment_two_pass.obj
 0002:00073d94       $chain$6$BrotliCompressFragmentTwoPassImpl14 00000001800ccd94     compress_fragment_two_pass.obj
 0002:00073dc0       $chain$7$BrotliCompressFragmentTwoPassImpl14 00000001800ccdc0     compress_fragment_two_pass.obj
 0002:00073dd0       $chain$6$BrotliCompressFragmentTwoPassImpl15 00000001800ccdd0     compress_fragment_two_pass.obj
 0002:00073dfc       $chain$7$BrotliCompressFragmentTwoPassImpl15 00000001800ccdfc     compress_fragment_two_pass.obj
 0002:00073e0c       $chain$6$BrotliCompressFragmentTwoPassImpl16 00000001800cce0c     compress_fragment_two_pass.obj
 0002:00073e38       $chain$7$BrotliCompressFragmentTwoPassImpl16 00000001800cce38     compress_fragment_two_pass.obj
 0002:00073e48       $chain$6$BrotliCompressFragmentTwoPassImpl17 00000001800cce48     compress_fragment_two_pass.obj
 0002:00073e74       $chain$7$BrotliCompressFragmentTwoPassImpl17 00000001800cce74     compress_fragment_two_pass.obj
 0002:00073e84       $unwind$BrotliCompressFragmentTwoPass 00000001800cce84     compress_fragment_two_pass.obj
 0002:00073ea0       $unwind$PrepareH10         00000001800ccea0     encode.obj
 0002:00073ea0       $unwind$__acrt_initialize_winapi_thunks 00000001800ccea0     libucrt:winapi_thunks.obj
 0002:00073ea0       $unwind$__vcrt_initialize_winapi_thunks 00000001800ccea0     libvcruntime:winapi_downlevel.obj
 0002:00073ea8       $unwind$PrepareH41         00000001800ccea8     encode.obj
 0002:00073ea8       $unwind$__acrt_freeptd     00000001800ccea8     libucrt:per_thread_data.obj
 0002:00073ea8       $unwind$PrepareH40         00000001800ccea8     encode.obj
 0002:00073ea8       $unwind$strcpy_s           00000001800ccea8     libucrt:strcpy_s.obj
 0002:00073ea8       $unwind$?AsyncExecuteComplete@Nan@@YAXPEAUuv_work_s@@@Z 00000001800ccea8     stream_decode.obj
 0002:00073ea8       $unwind$?stream_is_at_end_of_file_nolock@@YA_NV__crt_stdio_stream@@@Z 00000001800ccea8     libucrt:_flsbuf.obj
 0002:00073ea8       $unwind$__acrt_update_locale_info 00000001800ccea8     libucrt:locale_update.obj
 0002:00073ea8       $unwind$__acrt_update_multibyte_info 00000001800ccea8     libucrt:locale_update.obj
 0002:00073ea8       $unwind$?Init@@YAXV?$Local@VObject@v8@@@v8@@@Z 00000001800ccea8     iltorb.obj
 0002:00073ea8       $unwind$_calloc_base       00000001800ccea8     libucrt:calloc_base.obj
 0002:00073ea8       $unwind$?internal_isupper_l@@YA_NHQEAU__crt_locale_pointers@@@Z 00000001800ccea8     libucrt:tolower_toupper.obj
 0002:00073ea8       $unwind$uninitialize_allocated_memory 00000001800ccea8     libucrt:initialization.obj
 0002:00073ea8       $unwind$initialize_pointers 00000001800ccea8     libucrt:initialization.obj
 0002:00073ea8       $unwind$?load_exe_hook@@YAP6A_JXZIPEAUDelayLoadInfo@@@Z 00000001800ccea8     win_delay_load_hook.obj
 0002:00073ea8       $unwind$__vcrt_FlsGetValue 00000001800ccea8     libvcruntime:winapi_downlevel.obj
 0002:00073ea8       $unwind$__vcrt_FlsFree     00000001800ccea8     libvcruntime:winapi_downlevel.obj
 0002:00073ea8       $unwind$wcscat_s           00000001800ccea8     libucrt:wcscat_s.obj
 0002:00073ea8       $unwind$_malloc_base       00000001800ccea8     libucrt:malloc_base.obj
 0002:00073ea8       $unwind$wcscpy_s           00000001800ccea8     libucrt:wcscpy_s.obj
 0002:00073ea8       $unwind$__vcrt_FlsAlloc    00000001800ccea8     libvcruntime:winapi_downlevel.obj
 0002:00073ea8       $unwind$__vcrt_uninitialize_locks 00000001800ccea8     libvcruntime:locks.obj
 0002:00073ea8       $unwind$__vcrt_initialize_locks 00000001800ccea8     libvcruntime:locks.obj
 0002:00073ea8       $unwind$?DloadAcquireSectionWriteAccess@@YAXXZ 00000001800ccea8     DelayImp:delayhlp.obj
 0002:00073ea8       $unwind$??$Unwrap@VStreamEncode@@@ObjectWrap@Nan@@SAPEAVStreamEncode@@V?$Local@VObject@v8@@@v8@@@Z 00000001800ccea8     stream_encode.obj
 0002:00073ea8       $unwind$_clearfp           00000001800ccea8     libucrt:ieee.obj
 0002:00073ea8       $unwind$__vcrt_freeptd     00000001800ccea8     libvcruntime:per_thread_data.obj
 0002:00073ea8       $unwind$__std_type_info_destroy_list 00000001800ccea8     libvcruntime:std_type_info.obj
 0002:00073ea8       $unwind$PrepareH5          00000001800ccea8     encode.obj
 0002:00073ea8       $unwind$__std_exception_destroy 00000001800ccea8     libvcruntime:std_exception.obj
 0002:00073ea8       $unwind$__acrt_uninitialize_stdio 00000001800ccea8     libucrt:_file.obj
 0002:00073ea8       $unwind$??0length_error@std@@QEAA@AEBV01@@Z 00000001800ccea8     libcpmt:xthrow.obj
 0002:00073ea8       $unwind$??0logic_error@std@@QEAA@AEBV01@@Z 00000001800ccea8     libcpmt:xthrow.obj
 0002:00073ea8       $unwind$PrepareH42         00000001800ccea8     encode.obj
 0002:00073ea8       $unwind$__acrt_get_windowing_model_policy 00000001800ccea8     libucrt:win_policies.obj
 0002:00073ea8       $unwind$__acrt_uninitialize_winapi_thunks 00000001800ccea8     libucrt:winapi_thunks.obj
 0002:00073ea8       $unwind$??_Gtype_info@@UEAAPEAXI@Z 00000001800ccea8     LIBCMT:std_type_info_static.obj
 0002:00073ea8       $unwind$?try_cor_exit_process@@YAXI@Z 00000001800ccea8     libucrt:exit.obj
 0002:00073ea8       $unwind$??0bad_array_new_length@std@@QEAA@AEBV01@@Z 00000001800ccea8     LIBCMT:throw_bad_alloc.obj
 0002:00073ea8       $unwind$?WeakCallback@ObjectWrap@Nan@@CAXAEBV?$WeakCallbackInfo@VObjectWrap@Nan@@@v8@@@Z 00000001800ccea8     stream_coder.obj
 0002:00073ea8       $unwind$_fflush_nolock     00000001800ccea8     libucrt:fflush.obj
 0002:00073ea8       $unwind$?Unref@ObjectWrap@Nan@@MEAAXXZ 00000001800ccea8     stream_coder.obj
 0002:00073ea8       $unwind$__acrt_get_developer_information_policy 00000001800ccea8     libucrt:win_policies.obj
 0002:00073ea8       $unwind$?exit_or_terminate_process@@YAXI@Z 00000001800ccea8     libucrt:exit.obj
 0002:00073ea8       $unwind$??0bad_alloc@std@@QEAA@AEBV01@@Z 00000001800ccea8     LIBCMT:throw_bad_alloc.obj
 0002:00073ea8       $unwind$__acrt_FlsAlloc    00000001800ccea8     libucrt:winapi_thunks.obj
 0002:00073ea8       $unwind$__acrt_stdio_free_buffer_nolock 00000001800ccea8     libucrt:_freebuf.obj
 0002:00073ea8       $unwind$__acrt_FlsFree     00000001800ccea8     libucrt:winapi_thunks.obj
 0002:00073ea8       $unwind$__raise_securityfailure 00000001800ccea8     LIBCMT:gs_report.obj
 0002:00073ea8       $unwind$__acrt_FlsGetValue 00000001800ccea8     libucrt:winapi_thunks.obj
 0002:00073ea8       $unwind$?Ref@ObjectWrap@Nan@@MEAAXXZ 00000001800ccea8     stream_coder.obj
 0002:00073ea8       $unwind$??1ObjectWrap@Nan@@UEAA@XZ 00000001800ccea8     stream_coder.obj
 0002:00073ea8       $unwind$__acrt_get_process_end_policy 00000001800ccea8     libucrt:win_policies.obj
 0002:00073ea8       $unwind$??2@YAPEAX_K@Z     00000001800ccea8     LIBCMT:new_scalar.obj
 0002:00073ea8       $unwind$??0exception@std@@QEAA@AEBV01@@Z 00000001800ccea8     LIBCMT:throw_bad_alloc.obj
 0002:00073ea8       $unwind$__acrt_uninitialize_locks 00000001800ccea8     libucrt:locks.obj
 0002:00073ea8       $unwind$_clrfp             00000001800ccea8     libucrt:fpctrl.obj
 0002:00073ea8       $unwind$fesetenv           00000001800ccea8     libucrt:fesetenv.obj
 0002:00073ea8       $unwind$__acrt_getptd_head 00000001800ccea8     libucrt:per_thread_data.obj
 0002:00073ea8       $unwind$__acrt_initialize_locks 00000001800ccea8     libucrt:locks.obj
 0002:00073ea8       $unwind$__acrt_get_parent_window 00000001800ccea8     libucrt:winapi_thunks.obj
 0002:00073ea8       $unwind$BrotliEncoderCreateInstance 00000001800ccea8     encode.obj
 0002:00073ea8       $unwind$_onexit            00000001800ccea8     LIBCMT:utility.obj
 0002:00073ea8       $unwind$fegetenv           00000001800ccea8     libucrt:fegetenv.obj
 0002:00073ea8       $unwind$_set_statfp        00000001800ccea8     libucrt:fpctrl.obj
 0002:00073ea8       $unwind$__acrt_allocate_buffer_for_argv 00000001800ccea8     libucrt:argv_parsing.obj
 0002:00073ea8       $unwind$__acrt_AppPolicyGetWindowingModelInternal 00000001800ccea8     libucrt:winapi_thunks.obj
 0002:00073ea8       $unwind$__scrt_release_startup_lock 00000001800ccea8     LIBCMT:utility.obj
 0002:00073ea8       $unwind$__acrt_AppPolicyGetProcessTerminationMethodInternal 00000001800ccea8     libucrt:winapi_thunks.obj
 0002:00073ea8       $unwind$__scrt_initialize_crt 00000001800ccea8     LIBCMT:utility.obj
 0002:00073ea8       $unwind$__scrt_uninitialize_crt 00000001800ccea8     LIBCMT:utility.obj
 0002:00073ea8       $unwind$_callnewh          00000001800ccea8     libucrt:new_handler.obj
 0002:00073ea8       $unwind$??$Unwrap@VStreamDecode@@@ObjectWrap@Nan@@SAPEAVStreamDecode@@V?$Local@VObject@v8@@@v8@@@Z 00000001800ccea8     stream_decode.obj
 0002:00073ea8       $unwind$__acrt_AppPolicyGetShowDeveloperDiagnosticInternal 00000001800ccea8     libucrt:winapi_thunks.obj
 0002:00073ea8       $unwind$feholdexcept       00000001800ccea8     libucrt:feholdexcept.obj
 0002:00073eb0       $chain$0$PrepareH5         00000001800cceb0     encode.obj
 0002:00073ec4       $chain$1$PrepareH5         00000001800ccec4     encode.obj
 0002:00073ed4       $unwind$__scrt_acquire_startup_lock 00000001800cced4     LIBCMT:utility.obj
 0002:00073ed4       $unwind$_invoke_watson     00000001800cced4     libucrt:invalid_parameter.obj
 0002:00073ed4       $unwind$_set_errno_from_matherr 00000001800cced4     libucrt:fpexcept.obj
 0002:00073ed4       $unwind$__scrt_dllmain_uninitialize_c 00000001800cced4     LIBCMT:utility.obj
 0002:00073ed4       $unwind$__dcrt_uninitialize_environments_nolock 00000001800cced4     libucrt:environment_initialization.obj
 0002:00073ed4       $unwind$??$uninitialize_environment_internal@D@@YAXAEAPEAPEAD@Z 00000001800cced4     libucrt:environment_initialization.obj
 0002:00073ed4       $unwind$??$uninitialize_environment_internal@_W@@YAXAEAPEAPEA_W@Z 00000001800cced4     libucrt:environment_initialization.obj
 0002:00073ed4       $unwind$atexit             00000001800cced4     LIBCMT:utility.obj
 0002:00073ed4       $unwind$_statfp            00000001800cced4     libucrt:fpctrl.obj
 0002:00073ed4       $unwind$?NodeFree@Allocator@@SAXPEADPEAX@Z 00000001800cced4     stream_coder.obj
 0002:00073ed4       $unwind$__acrt_AreFileApisANSI 00000001800cced4     libucrt:winapi_thunks.obj
 0002:00073ed4       $unwind$__scrt_dllmain_after_initialize_c 00000001800cced4     LIBCMT:utility.obj
 0002:00073ed4       $unwind$__scrt_dllmain_before_initialize_c 00000001800cced4     LIBCMT:utility.obj
 0002:00073ed4       $unwind$__report_rangecheckfailure 00000001800cced4     LIBCMT:gs_report.obj
 0002:00073ed4       $unwind$?_Xlength@?$vector@PEAEV?$allocator@PEAE@std@@@std@@CAXXZ 00000001800cced4     stream_decode_worker.obj
 0002:00073ed4       $unwind$__scrt_initialize_default_local_stdio_options 00000001800cced4     LIBCMT:default_local_stdio_options.obj
 0002:00073ed4       $unwind$__scrt_dllmain_crt_thread_detach 00000001800cced4     LIBCMT:utility.obj
 0002:00073ed4       $unwind$?dllmain_crt_dispatch@@YAHQEAUHINSTANCE__@@KQEAX@Z 00000001800cced4     LIBCMT:dll_dllmain.obj
 0002:00073ed4       $unwind$__scrt_dllmain_crt_thread_attach 00000001800cced4     LIBCMT:utility.obj
 0002:00073ed4       $unwind$__acrt_uninitialize 00000001800cced4     libucrt:initialization.obj
 0002:00073ed4       $unwind$__scrt_dllmain_uninitialize_critical 00000001800cced4     LIBCMT:utility.obj
 0002:00073ed4       $unwind$__acrt_DownlevelLocaleNameToLCID 00000001800cced4     libucrt:lcidtoname_downlevel.obj
 0002:00073ed4       $unwind$__pctype_func      00000001800cced4     libucrt:ctype.obj
 0002:00073ed4       $unwind$__acrt_uninitialize_critical 00000001800cced4     libucrt:initialization.obj
 0002:00073ed4       $unwind$__acrt_initialize_heap 00000001800cced4     libucrt:heap_handle.obj
 0002:00073ed4       $unwind$__acrt_thread_attach 00000001800cced4     libucrt:initialization.obj
 0002:00073ed4       $unwind$tolower            00000001800cced4     libucrt:tolower_toupper.obj
 0002:00073ed4       $unwind$_stricmp           00000001800cced4     libucrt:stricmp.obj
 0002:00073ed4       $unwind$__acrt_initialize_ptd 00000001800cced4     libucrt:per_thread_data.obj
 0002:00073ed4       $unwind$initialize_c       00000001800cced4     libucrt:initialization.obj
 0002:00073ed4       $unwind$__acrt_uninitialize_ptd 00000001800cced4     libucrt:per_thread_data.obj
 0002:00073ed4       $unwind$_set_error_mode    00000001800cced4     libucrt:set_error_mode.obj
 0002:00073ed4       $unwind$?state_case_size@?$output_processor@_WV?$string_output_adapter@_W@__crt_stdio_output@@V?$standard_base@_WV?$string_output_adapter@_W@__crt_stdio_output@@@2@@__crt_stdio_output@@AEAA_NXZ 00000001800cced4     libucrt:output.obj
 0002:00073ed4       $unwind$uninitialize_environment 00000001800cced4     libucrt:initialization.obj
 0002:00073ed4       $unwind$uninitialize_allocated_io_buffers 00000001800cced4     libucrt:initialization.obj
 0002:00073ed4       $unwind$abort              00000001800cced4     libucrt:abort.obj
 0002:00073ed4       $unwind$_msize_base        00000001800cced4     libucrt:msize.obj
 0002:00073ed4       $unwind$__doserrno         00000001800cced4     libucrt:errno.obj
 0002:00073ed4       $unwind$__acrt_release_locale_ref 00000001800cced4     libucrt:locale_refcounting.obj
 0002:00073ed4       $unwind$_errno             00000001800cced4     libucrt:errno.obj
 0002:00073ed4       $unwind$__dcrt_terminate_console_output 00000001800cced4     libucrt:initcon.obj
 0002:00073ed4       $unwind$_fileno            00000001800cced4     libucrt:fileno.obj
 0002:00073ed4       $unwind$_get_osfhandle     00000001800cced4     libucrt:osfinfo.obj
 0002:00073ed4       $unwind$_purecall          00000001800cced4     libvcruntime:purevirt.obj
 0002:00073ed4       $unwind$__acrt_initialize_multibyte 00000001800cced4     libucrt:mbctype.obj
 0002:00073ed4       $unwind$__vcrt_initialize  00000001800cced4     libvcruntime:initialization.obj
 0002:00073ed4       $unwind$__acrt_initialize_command_line 00000001800cced4     libucrt:argv_data.obj
 0002:00073ed4       $unwind$__GSHandlerCheck   00000001800cced4     LIBCMT:gshandler.obj
 0002:00073ed4       $unwind$__vcrt_uninitialize 00000001800cced4     libvcruntime:initialization.obj
 0002:00073ed4       $unwind$PrepareH6          00000001800cced4     encode.obj
 0002:00073ed4       $unwind$?state_case_size@?$output_processor@_WV?$stream_output_adapter@_W@__crt_stdio_output@@V?$standard_base@_WV?$stream_output_adapter@_W@__crt_stdio_output@@@2@@__crt_stdio_output@@AEAA_NXZ 00000001800cced4     libucrt:output.obj
 0002:00073ed4       $unwind$__vcrt_uninitialize_critical 00000001800cced4     libvcruntime:initialization.obj
 0002:00073ed4       $unwind$__vcrt_thread_attach 00000001800cced4     libvcruntime:initialization.obj
 0002:00073ed4       $unwind$?__c32rtomb_utf8@__crt_mbstring@@YA_KPEAD_UPEAU_Mbstatet@@@Z 00000001800cced4     libucrt:c32rtomb.obj
 0002:00073ed4       $unwind$__vcrt_thread_detach 00000001800cced4     libvcruntime:initialization.obj
 0002:00073ed4       $unwind$?Free@Allocator@@SAXPEAX0@Z 00000001800cced4     allocator.obj
 0002:00073ed4       $unwind$?DloadReleaseSectionWriteAccess@@YAXXZ 00000001800cced4     DelayImp:delayhlp.obj
 0002:00073ed4       $unwind$__acrt_thread_detach 00000001800cced4     libucrt:initialization.obj
 0002:00073ed4       $unwind$__vcrt_freefls     00000001800cced4     libvcruntime:per_thread_data.obj
 0002:00073ed4       $unwind$?initialize_multibyte@@YAHXZ 00000001800cced4     libucrt:multibyte_initializer.obj
 0002:00073ed4       $unwind$__acrt_update_thread_multibyte_data 00000001800cced4     libucrt:mbctype.obj
 0002:00073ed4       $unwind$__vcrt_uninitialize_ptd 00000001800cced4     libvcruntime:per_thread_data.obj
 0002:00073ed4       $unwind$__vcrt_initialize_ptd 00000001800cced4     libvcruntime:per_thread_data.obj
 0002:00073ed4       $unwind$_isatty            00000001800cced4     libucrt:isatty.obj
 0002:00073edc       $chain$0$PrepareH6         00000001800ccedc     encode.obj
 0002:00073ef0       $chain$1$PrepareH6         00000001800ccef0     encode.obj
 0002:00073f04       $chain$2$PrepareH6         00000001800ccf04     encode.obj
 0002:00073f14       $chain$3$PrepareH6         00000001800ccf14     encode.obj
 0002:00073f24       $unwind$?type_case_s@?$output_processor@_WV?$stream_output_adapter@_W@__crt_stdio_output@@V?$standard_base@_WV?$stream_output_adapter@_W@__crt_stdio_output@@@2@@__crt_stdio_output@@AEAA_NXZ 00000001800ccf24     libucrt:output.obj
 0002:00073f24       $unwind$?type_case_n@?$output_processor@_WV?$stream_output_adapter@_W@__crt_stdio_output@@V?$standard_base@_WV?$stream_output_adapter@_W@__crt_stdio_output@@@2@@__crt_stdio_output@@AEAA_NXZ 00000001800ccf24     libucrt:output.obj
 0002:00073f24       $unwind$__vcrt_getptd_noexit 00000001800ccf24     libvcruntime:per_thread_data.obj
 0002:00073f24       $unwind$?type_case_Z@?$output_processor@_WV?$stream_output_adapter@_W@__crt_stdio_output@@V?$standard_base@_WV?$stream_output_adapter@_W@__crt_stdio_output@@@2@@__crt_stdio_output@@AEAA_NXZ 00000001800ccf24     libucrt:output.obj
 0002:00073f24       $unwind$memcpy_s           00000001800ccf24     libucrt:cfout.obj
 0002:00073f24       $unwind$__vcrt_InitializeCriticalSectionEx 00000001800ccf24     libvcruntime:winapi_downlevel.obj
 0002:00073f24       $unwind$?free_crt_array_internal@@YAXQEAPEBX_K@Z 00000001800ccf24     libucrt:inittime.obj
 0002:00073f24       $unwind$?Wrap@ObjectWrap@Nan@@IEAAXV?$Local@VObject@v8@@@v8@@@Z 00000001800ccf24     stream_decode.obj
 0002:00073f24       $unwind$__acrt_stdio_flush_and_write_narrow_nolock 00000001800ccf24     libucrt:_flsbuf.obj
 0002:00073f24       $unwind$__acrt_execute_initializers 00000001800ccf24     libucrt:shared_initialization.obj
 0002:00073f24       $unwind$__acrt_stdio_flush_and_write_wide_nolock 00000001800ccf24     libucrt:_flsbuf.obj
 0002:00073f24       $unwind$__acrt_getptd_noexit 00000001800ccf24     libucrt:per_thread_data.obj
 0002:00073f24       $unwind$__acrt_getptd      00000001800ccf24     libucrt:per_thread_data.obj
 0002:00073f24       $unwind$GetHashTable       00000001800ccf24     encode.obj
 0002:00073f24       $unwind$?AdjustExternalMemory@Nan@@YAHH@Z 00000001800ccf24     allocator.obj
 0002:00073f24       $unwind$?type_case_n@?$output_processor@_WV?$string_output_adapter@_W@__crt_stdio_output@@V?$standard_base@_WV?$string_output_adapter@_W@__crt_stdio_output@@@2@@__crt_stdio_output@@AEAA_NXZ 00000001800ccf24     libucrt:output.obj
 0002:00073f24       $unwind$??$common_lseek_nolock@_J@@YA_JH_JH@Z 00000001800ccf24     libucrt:lseek.obj
 0002:00073f24       $unwind$__acrt_stdio_flush_nolock 00000001800ccf24     libucrt:fflush.obj
 0002:00073f24       $unwind$__acrt_InitializeCriticalSectionEx 00000001800ccf24     libucrt:winapi_thunks.obj
 0002:00073f24       $unwind$??R<lambda_ca71763b3c0644891230e4f79ea54fa6>@@QEBAHXZ 00000001800ccf24     libucrt:setvbuf.obj
 0002:00073f24       $unwind$?type_case_Z@?$output_processor@_WV?$string_output_adapter@_W@__crt_stdio_output@@V?$standard_base@_WV?$string_output_adapter@_W@__crt_stdio_output@@@2@@__crt_stdio_output@@AEAA_NXZ 00000001800ccf24     libucrt:output.obj
 0002:00073f24       $unwind$?type_case_s@?$output_processor@_WV?$string_output_adapter@_W@__crt_stdio_output@@V?$standard_base@_WV?$string_output_adapter@_W@__crt_stdio_output@@@2@@__crt_stdio_output@@AEAA_NXZ 00000001800ccf24     libucrt:output.obj
 0002:00073f24       $unwind$_exception_enabled 00000001800ccf24     libucrt:libm_error.obj
 0002:00073f24       $unwind$_DllMainCRTStartup 00000001800ccf24     LIBCMT:dll_dllmain.obj
 0002:00073f24       $unwind$??0_LocaleUpdate@@QEAA@QEAU__crt_locale_pointers@@@Z 00000001800ccf24     libucrt:stricmp.obj
 0002:00073f34       $unwind$ChooseContextMap   00000001800ccf34     encode.obj
 0002:00073f70       $unwind$ShouldUseComplexStaticContextMap 00000001800ccf70     encode.obj
 0002:00073f8c       $chain$7$ShouldUseComplexStaticContextMap 00000001800ccf8c     encode.obj
 0002:00073fbc       $chain$8$ShouldUseComplexStaticContextMap 00000001800ccfbc     encode.obj
 0002:00073fcc       $unwind$ShouldCompress     00000001800ccfcc     encode.obj
 0002:00073ff0       $chain$1$ShouldCompress    00000001800ccff0     encode.obj
 0002:00074008       $chain$2$ShouldCompress    00000001800cd008     encode.obj
 0002:00074018       $unwind$WriteMetaBlockInternal 00000001800cd018     encode.obj
 0002:00074038       $unwind$__acrt_locale_free_monetary 00000001800cd038     libucrt:initmon.obj
 0002:00074038       $unwind$BrotliEncoderDestroyInstance 00000001800cd038     encode.obj
 0002:00074040       $chain$2$BrotliEncoderDestroyInstance 00000001800cd040     encode.obj
 0002:0007405c       $chain$3$BrotliEncoderDestroyInstance 00000001800cd05c     encode.obj
 0002:0007406c       $unwind$CopyInputToRingBuffer 00000001800cd06c     encode.obj
 0002:0007407c       $chain$1$CopyInputToRingBuffer 00000001800cd07c     encode.obj
 0002:00074094       $chain$2$CopyInputToRingBuffer 00000001800cd094     encode.obj
 0002:000740a4       $chain$3$CopyInputToRingBuffer 00000001800cd0a4     encode.obj
 0002:000740bc       $unwind$BrotliEncoderSetCustomDictionary 00000001800cd0bc     encode.obj
 0002:000740cc       $chain$2$BrotliEncoderSetCustomDictionary 00000001800cd0cc     encode.obj
 0002:000740e8       $chain$3$BrotliEncoderSetCustomDictionary 00000001800cd0e8     encode.obj
 0002:000740fc       $chain$4$BrotliEncoderSetCustomDictionary 00000001800cd0fc     encode.obj
 0002:0007410c       $chain$5$BrotliEncoderSetCustomDictionary 00000001800cd10c     encode.obj
 0002:0007411c       $chain$6$BrotliEncoderSetCustomDictionary 00000001800cd11c     encode.obj
 0002:00074138       $unwind$EncodeData         00000001800cd138     encode.obj
 0002:00074154       $chain$2$EncodeData        00000001800cd154     encode.obj
 0002:00074168       $chain$5$EncodeData        00000001800cd168     encode.obj
 0002:00074168       $chain$3$EncodeData        00000001800cd168     encode.obj
 0002:00074178       $chain$6$EncodeData        00000001800cd178     encode.obj
 0002:00074178       $chain$4$EncodeData        00000001800cd178     encode.obj
 0002:0007418c       $unwind$WriteMetadataHeader 00000001800cd18c     encode.obj
 0002:000741a4       $chain$3$WriteMetadataHeader 00000001800cd1a4     encode.obj
 0002:000741b8       $chain$4$WriteMetadataHeader 00000001800cd1b8     encode.obj
 0002:000741c8       $unwind$InjectFlushOrPushOutput 00000001800cd1c8     encode.obj
 0002:000741dc       $chain$1$InjectFlushOrPushOutput 00000001800cd1dc     encode.obj
 0002:000741f0       $chain$2$InjectFlushOrPushOutput 00000001800cd1f0     encode.obj
 0002:00074200       $unwind$BrotliEncoderCompressStreamFast 00000001800cd200     encode.obj
 0002:00074218       $unwind$BrotliEncoderCompressStream 00000001800cd218     encode.obj
 0002:00074234       $unwind$BrotliSetDepth     00000001800cd234     entropy_encode.obj
 0002:0007424c       $unwind$BrotliCreateHuffmanTree 00000001800cd24c     entropy_encode.obj
 0002:00074264       $unwind$?type_case_c_tchar@?$output_processor@_WV?$stream_output_adapter@_W@__crt_stdio_output@@V?$standard_base@_WV?$stream_output_adapter@_W@__crt_stdio_output@@@2@@__crt_stdio_output@@AEAA_N_W@Z 00000001800cd264     libucrt:output.obj
 0002:00074264       $unwind$?type_case_c_tchar@?$output_processor@_WV?$string_output_adapter@_W@__crt_stdio_output@@V?$standard_base@_WV?$string_output_adapter@_W@__crt_stdio_output@@@2@@__crt_stdio_output@@AEAA_N_W@Z 00000001800cd264     libucrt:output.obj
 0002:00074264       $unwind$BrotliOptimizeHuffmanCountsForRle 00000001800cd264     entropy_encode.obj
 0002:00074274       $chain$0$BrotliOptimizeHuffmanCountsForRle 00000001800cd274     entropy_encode.obj
 0002:00074288       $chain$1$BrotliOptimizeHuffmanCountsForRle 00000001800cd288     entropy_encode.obj
 0002:00074298       $unwind$BrotliWriteHuffmanTree 00000001800cd298     entropy_encode.obj
 0002:000742ac       $chain$2$BrotliWriteHuffmanTree 00000001800cd2ac     entropy_encode.obj
 0002:000742c4       $chain$3$BrotliWriteHuffmanTree 00000001800cd2c4     entropy_encode.obj
 0002:000742d4       $chain$4$BrotliWriteHuffmanTree 00000001800cd2d4     entropy_encode.obj
 0002:000742ec       $unwind$BrotliConvertBitDepthsToSymbols 00000001800cd2ec     entropy_encode.obj
 0002:00074304       $chain$0$BrotliConvertBitDepthsToSymbols 00000001800cd304     entropy_encode.obj
 0002:00074318       $chain$1$BrotliConvertBitDepthsToSymbols 00000001800cd318     entropy_encode.obj
 0002:00074328       $unwind$BrotliBuildHistogramsWithContext 00000001800cd328     histogram.obj
 0002:00074338       $chain$2$BrotliBuildHistogramsWithContext 00000001800cd338     histogram.obj
 0002:00074354       $chain$3$BrotliBuildHistogramsWithContext 00000001800cd354     histogram.obj
 0002:00074364       $unwind$EstimateBitCostsForLiteralsUTF8 00000001800cd364     literal_cost.obj
 0002:00074388       $chain$7$EstimateBitCostsForLiteralsUTF8 00000001800cd388     literal_cost.obj
 0002:000743b8       $chain$8$EstimateBitCostsForLiteralsUTF8 00000001800cd3b8     literal_cost.obj
 0002:000743c8       $unwind$BrotliEstimateBitCostsForLiterals 00000001800cd3c8     literal_cost.obj
 0002:000743e4       $chain$0$BrotliEstimateBitCostsForLiterals 00000001800cd3e4     literal_cost.obj
 0002:000743f8       $chain$7$BrotliEstimateBitCostsForLiterals 00000001800cd3f8     literal_cost.obj
 0002:00074424       $chain$8$BrotliEstimateBitCostsForLiterals 00000001800cd424     literal_cost.obj
 0002:00074434       $chain$9$BrotliEstimateBitCostsForLiterals 00000001800cd434     literal_cost.obj
 0002:00074444       $unwind$BrotliBuildMetaBlock 00000001800cd444     metablock.obj
 0002:0007445c       $unwind$BlockSplitterFinishBlockLiteral 00000001800cd45c     metablock.obj
 0002:00074470       $chain$8$BlockSplitterFinishBlockLiteral 00000001800cd470     metablock.obj
 0002:000744a4       $chain$9$BlockSplitterFinishBlockLiteral 00000001800cd4a4     metablock.obj
 0002:000744b8       $chain$10$BlockSplitterFinishBlockLiteral 00000001800cd4b8     metablock.obj
 0002:000744c8       $chain$11$BlockSplitterFinishBlockLiteral 00000001800cd4c8     metablock.obj
 0002:000744d8       $unwind$BlockSplitterFinishBlockCommand 00000001800cd4d8     metablock.obj
 0002:000744ec       $chain$8$BlockSplitterFinishBlockCommand 00000001800cd4ec     metablock.obj
 0002:00074520       $chain$9$BlockSplitterFinishBlockCommand 00000001800cd520     metablock.obj
 0002:00074534       $chain$10$BlockSplitterFinishBlockCommand 00000001800cd534     metablock.obj
 0002:00074544       $chain$11$BlockSplitterFinishBlockCommand 00000001800cd544     metablock.obj
 0002:00074554       $unwind$BlockSplitterFinishBlockDistance 00000001800cd554     metablock.obj
 0002:00074568       $chain$8$BlockSplitterFinishBlockDistance 00000001800cd568     metablock.obj
 0002:0007459c       $chain$9$BlockSplitterFinishBlockDistance 00000001800cd59c     metablock.obj
 0002:000745b0       $chain$10$BlockSplitterFinishBlockDistance 00000001800cd5b0     metablock.obj
 0002:000745c0       $chain$11$BlockSplitterFinishBlockDistance 00000001800cd5c0     metablock.obj
 0002:000745d0       $unwind$InitContextBlockSplitter 00000001800cd5d0     metablock.obj
 0002:000745ec       $unwind$ContextBlockSplitterFinishBlock 00000001800cd5ec     metablock.obj
 0002:00074620       $unwind$BrotliBuildMetaBlockGreedy 00000001800cd620     metablock.obj
 0002:00074640       $unwind$BrotliOptimizeHistograms 00000001800cd640     metablock.obj
 0002:00074658       $chain$1$BrotliOptimizeHistograms 00000001800cd658     metablock.obj
 0002:00074670       $chain$2$BrotliOptimizeHistograms 00000001800cd670     metablock.obj
 0002:00074684       $chain$3$BrotliOptimizeHistograms 00000001800cd684     metablock.obj
 0002:00074694       $chain$4$BrotliOptimizeHistograms 00000001800cd694     metablock.obj
 0002:000746a4       $unwind$BrotliFindAllStaticDictionaryMatches 00000001800cd6a4     static_dict.obj
 0002:000746bc       $unwind$BrotliIsMostlyUTF8 00000001800cd6bc     utf8_util.obj
 0002:000746d4       $chain$0$?Free@Allocator@@SAXPEAX0@Z 00000001800cd6d4     allocator.obj
 0002:000746e8       $chain$2$?Free@Allocator@@SAXPEAX0@Z 00000001800cd6e8     allocator.obj
 0002:000746fc       $chain$3$?Free@Allocator@@SAXPEAX0@Z 00000001800cd6fc     allocator.obj
 0002:0007470c       $chain$0$?NodeFree@Allocator@@SAXPEADPEAX@Z 00000001800cd70c     stream_coder.obj
 0002:00074720       $chain$2$?NodeFree@Allocator@@SAXPEADPEAX@Z 00000001800cd720     stream_coder.obj
 0002:00074734       $chain$3$?NodeFree@Allocator@@SAXPEADPEAX@Z 00000001800cd734     stream_coder.obj
 0002:00074744       $unwind$??1StreamCoder@@MEAA@XZ 00000001800cd744     stream_coder.obj
 0002:00074750       $chain$1$??1StreamCoder@@MEAA@XZ 00000001800cd750     stream_coder.obj
 0002:00074768       $chain$3$??1StreamCoder@@MEAA@XZ 00000001800cd768     stream_coder.obj
 0002:00074780       $chain$4$??1StreamCoder@@MEAA@XZ 00000001800cd780     stream_coder.obj
 0002:00074790       $chain$5$??1StreamCoder@@MEAA@XZ 00000001800cd790     stream_coder.obj
 0002:000747a0       $unwind$?PendingChunksAsArray@StreamCoder@@QEAA?AV?$Local@VArray@v8@@@v8@@XZ 00000001800cd7a0     stream_coder.obj
 0002:000747b0       $chain$2$?PendingChunksAsArray@StreamCoder@@QEAA?AV?$Local@VArray@v8@@@v8@@XZ 00000001800cd7b0     stream_coder.obj
 0002:000747cc       $chain$3$?PendingChunksAsArray@StreamCoder@@QEAA?AV?$Local@VArray@v8@@@v8@@XZ 00000001800cd7cc     stream_coder.obj
 0002:000747dc       $unwind$?FunctionCallbackWrapper@imp@Nan@@YAXAEBV?$FunctionCallbackInfo@VValue@v8@@@v8@@@Z 00000001800cd7dc     stream_decode.obj
 0002:000747ec       $unwind$?New@?$Factory@VFunctionTemplate@v8@@@imp@Nan@@SA?AV?$Local@VFunctionTemplate@v8@@@v8@@P6AXAEBV?$FunctionCallbackInfo@VValue@v8@@@3@@ZV?$Local@VValue@v8@@@5@V?$Local@VSignature@v8@@@5@@Z 00000001800cd7ec     stream_decode.obj
 0002:00074800       $chain$0$?New@?$Factory@VFunctionTemplate@v8@@@imp@Nan@@SA?AV?$Local@VFunctionTemplate@v8@@@v8@@P6AXAEBV?$FunctionCallbackInfo@VValue@v8@@@3@@ZV?$Local@VValue@v8@@@5@V?$Local@VSignature@v8@@@5@@Z 00000001800cd800     stream_decode.obj
 0002:00074814       $chain$1$?New@?$Factory@VFunctionTemplate@v8@@@imp@Nan@@SA?AV?$Local@VFunctionTemplate@v8@@@v8@@P6AXAEBV?$FunctionCallbackInfo@VValue@v8@@@3@@ZV?$Local@VValue@v8@@@5@V?$Local@VSignature@v8@@@5@@Z 00000001800cd814     stream_decode.obj
 0002:00074828       $chain$2$?New@?$Factory@VFunctionTemplate@v8@@@imp@Nan@@SA?AV?$Local@VFunctionTemplate@v8@@@v8@@P6AXAEBV?$FunctionCallbackInfo@VValue@v8@@@3@@ZV?$Local@VValue@v8@@@5@V?$Local@VSignature@v8@@@5@@Z 00000001800cd828     stream_decode.obj
 0002:00074838       $chain$3$?New@?$Factory@VFunctionTemplate@v8@@@imp@Nan@@SA?AV?$Local@VFunctionTemplate@v8@@@v8@@P6AXAEBV?$FunctionCallbackInfo@VValue@v8@@@3@@ZV?$Local@VValue@v8@@@5@V?$Local@VSignature@v8@@@5@@Z 00000001800cd838     stream_decode.obj
 0002:00074848       $unwind$?SetPrototypeMethod@Nan@@YAXV?$Local@VFunctionTemplate@v8@@@v8@@PEBDP6AXAEBV?$FunctionCallbackInfo@VValue@v8@@@1@@Z@Z 00000001800cd848     stream_decode.obj
 0002:00074858       $unwind$??0StreamDecode@@AEAA@V?$Local@VObject@v8@@@v8@@@Z 00000001800cd858     stream_decode.obj
 0002:00074868       $unwind$??_GStreamDecode@@EEAAPEAXI@Z 00000001800cd868     stream_decode.obj
 0002:00074870       $chain$1$??_GStreamDecode@@EEAAPEAXI@Z 00000001800cd870     stream_decode.obj
 0002:00074888       $chain$3$??_GStreamDecode@@EEAAPEAXI@Z 00000001800cd888     stream_decode.obj
 0002:000748a0       $chain$4$??_GStreamDecode@@EEAAPEAXI@Z 00000001800cd8a0     stream_decode.obj
 0002:000748b0       $chain$5$??_GStreamDecode@@EEAAPEAXI@Z 00000001800cd8b0     stream_decode.obj
 0002:000748c0       $unwind$?Init@StreamDecode@@SAXV?$Local@VObject@v8@@@v8@@@Z 00000001800cd8c0     stream_decode.obj
 0002:000748c0       $unwind$?Init@StreamEncode@@SAXV?$Local@VObject@v8@@@v8@@@Z 00000001800cd8c0     stream_encode.obj
 0002:000748d0       $unwind$?Transform@StreamEncode@@CAXAEBV?$FunctionCallbackInfo@VValue@v8@@@Nan@@@Z 00000001800cd8d0     stream_encode.obj
 0002:000748d0       $unwind$?parse_int_from_format_string@?$output_processor@_WV?$string_output_adapter@_W@__crt_stdio_output@@V?$standard_base@_WV?$string_output_adapter@_W@__crt_stdio_output@@@2@@__crt_stdio_output@@AEAA_NQEAH@Z 00000001800cd8d0     libucrt:output.obj
 0002:000748d0       $unwind$?Transform@StreamDecode@@CAXAEBV?$FunctionCallbackInfo@VValue@v8@@@Nan@@@Z 00000001800cd8d0     stream_decode.obj
 0002:000748d0       $unwind$?parse_int_from_format_string@?$output_processor@_WV?$stream_output_adapter@_W@__crt_stdio_output@@V?$standard_base@_WV?$stream_output_adapter@_W@__crt_stdio_output@@@2@@__crt_stdio_output@@AEAA_NQEAH@Z 00000001800cd8d0     libucrt:output.obj
 0002:000748e4       $unwind$__std_exception_copy 00000001800cd8e4     libvcruntime:std_exception.obj
 0002:000748e4       $unwind$_free_osfhnd       00000001800cd8e4     libucrt:osfinfo.obj
 0002:000748e4       $unwind$?Flush@StreamDecode@@CAXAEBV?$FunctionCallbackInfo@VValue@v8@@@Nan@@@Z 00000001800cd8e4     stream_decode.obj
 0002:000748f8       $unwind$??0AsyncResource@Nan@@QEAA@PEBDV?$Local@VObject@v8@@@v8@@@Z 00000001800cd8f8     stream_decode_worker.obj
 0002:0007490c       $unwind$?Call@Callback@Nan@@QEBA?AV?$Local@VValue@v8@@@v8@@HQEAV34@@Z 00000001800cd90c     stream_decode_worker.obj
 0002:0007492c       $unwind$?Call_@Callback@Nan@@AEBA?AV?$MaybeLocal@VValue@v8@@@v8@@PEAVIsolate@4@V?$Local@VObject@v8@@@4@HQEAV?$Local@VValue@v8@@@4@PEAVAsyncResource@2@@Z 00000001800cd92c     stream_decode_worker.obj
 0002:0007493c       $unwind$??0AsyncWorker@Nan@@QEAA@PEAVCallback@1@PEBD@Z 00000001800cd93c     stream_decode_worker.obj
 0002:00074948       $unwind$??1AsyncWorker@Nan@@UEAA@XZ 00000001800cd948     stream_decode_worker.obj
 0002:00074954       $unwind$?WorkComplete@AsyncWorker@Nan@@UEAAXXZ 00000001800cd954     stream_decode_worker.obj
 0002:00074954       $unwind$_mbsdec_l          00000001800cd954     libucrt:mbsdec.obj
 0002:00074954       $unwind$isdigit            00000001800cd954     libucrt:_ctype.obj
 0002:00074960       $unwind$?HandleOKCallback@AsyncWorker@Nan@@MEAAXXZ 00000001800cd960     stream_decode_worker.obj
 0002:00074960       $unwind$?HandleErrorCallback@AsyncWorker@Nan@@MEAAXXZ 00000001800cd960     stream_decode_worker.obj
 0002:0007496c       $unwind$?Execute@StreamDecodeWorker@@UEAAXXZ 00000001800cd96c     stream_decode_worker.obj
 0002:00074978       $chain$3$?Execute@StreamDecodeWorker@@UEAAXXZ 00000001800cd978     stream_decode_worker.obj
 0002:00074998       $chain$4$?Execute@StreamDecodeWorker@@UEAAXXZ 00000001800cd998     stream_decode_worker.obj
 0002:000749a8       $unwind$?HandleOKCallback@StreamDecodeWorker@@UEAAXXZ 00000001800cd9a8     stream_decode_worker.obj
 0002:000749a8       $unwind$?HandleOKCallback@StreamEncodeWorker@@UEAAXXZ 00000001800cd9a8     stream_encode_worker.obj
 0002:000749b0       $unwind$??$_Emplace_reallocate@PEAE@?$vector@PEAEV?$allocator@PEAE@std@@@std@@QEAAPEAPEAEQEAPEAE$$QEAPEAE@Z 00000001800cd9b0     stream_decode_worker.obj
 0002:000749c0       $chain$3$??$_Emplace_reallocate@PEAE@?$vector@PEAEV?$allocator@PEAE@std@@@std@@QEAAPEAPEAEQEAPEAE$$QEAPEAE@Z 00000001800cd9c0     stream_decode_worker.obj
 0002:000749e0       $chain$5$??$_Emplace_reallocate@PEAE@?$vector@PEAEV?$allocator@PEAE@std@@@std@@QEAAPEAPEAEQEAPEAE$$QEAPEAE@Z 00000001800cd9e0     stream_decode_worker.obj
 0002:00074a00       $chain$6$??$_Emplace_reallocate@PEAE@?$vector@PEAEV?$allocator@PEAE@std@@@std@@QEAAPEAPEAEQEAPEAE$$QEAPEAE@Z 00000001800cda00     stream_decode_worker.obj
 0002:00074a10       $unwind$??0StreamEncode@@AEAA@V?$Local@VObject@v8@@@v8@@@Z 00000001800cda10     stream_encode.obj
 0002:00074a24       $unwind$?Execute@StreamEncodeWorker@@UEAAXXZ 00000001800cda24     stream_encode_worker.obj
 0002:00074a30       $chain$2$?Execute@StreamEncodeWorker@@UEAAXXZ 00000001800cda30     stream_encode_worker.obj
 0002:00074a4c       $chain$3$?Execute@StreamEncodeWorker@@UEAAXXZ 00000001800cda4c     stream_encode_worker.obj
 0002:00074a5c       xdata                      00000001800cda5c     node:node.exe
 0002:00074a68       $xdatasym                  00000001800cda68     LIBCMT:amdsecgs.obj
 0002:00074a6c       $unwind$__report_securityfailure 00000001800cda6c     LIBCMT:gs_report.obj
 0002:00074a74       $unwind$__report_gsfailure 00000001800cda74     LIBCMT:gs_report.obj
 0002:00074a7c       $unwind$capture_current_context 00000001800cda7c     LIBCMT:gs_report.obj
 0002:00074a88       $unwind$capture_previous_context 00000001800cda88     LIBCMT:gs_report.obj
 0002:00074a94       $unwind$__scrt_is_nonwritable_in_current_image 00000001800cda94     LIBCMT:utility.obj
 0002:00074ab4       $unwind$__scrt_is_nonwritable_in_current_image$filt$0 00000001800cdab4     LIBCMT:utility.obj
 0002:00074abc       $unwind$__scrt_initialize_onexit_tables 00000001800cdabc     LIBCMT:utility.obj
 0002:00074abc       $unwind$_isleadbyte_l      00000001800cdabc     libucrt:_wctype.obj
 0002:00074abc       $unwind$__dcrt_lowio_ensure_console_output_initialized 00000001800cdabc     libucrt:initcon.obj
 0002:00074abc       $unwind$?getSystemCP@@YAHH@Z 00000001800cdabc     libucrt:mbctype.obj
 0002:00074ac4       $unwind$__acrt_free_locale 00000001800cdac4     libucrt:locale_refcounting.obj
 0002:00074ac4       $unwind$??$ensure_buffer_is_big_enough@_W@formatting_buffer@__crt_stdio_output@@QEAA_N_K@Z 00000001800cdac4     libucrt:output.obj
 0002:00074ac4       $unwind$_recalloc_base     00000001800cdac4     libucrt:recalloc.obj
 0002:00074ac4       $unwind$?setSBCS@@YAXPEAU__crt_multibyte_data@@@Z 00000001800cdac4     libucrt:mbctype.obj
 0002:00074ac4       $unwind$??$ensure_buffer_is_big_enough@D@formatting_buffer@__crt_stdio_output@@QEAA_N_K@Z 00000001800cdac4     libucrt:output.obj
 0002:00074ac4       $unwind$__scrt_dllmain_exception_filter 00000001800cdac4     LIBCMT:utility.obj
 0002:00074ac4       $unwind$_seh_filter_exe    00000001800cdac4     libucrt:exception_filter.obj
 0002:00074ac4       $unwind$_wassert           00000001800cdac4     libucrt:assert.obj
 0002:00074ac4       $unwind$__acrt_show_wide_message_box 00000001800cdac4     libucrt:crtmbox.obj
 0002:00074ac4       $unwind$_initterm          00000001800cdac4     libucrt:initterm.obj
 0002:00074ac4       $unwind$__acrt_lowio_create_handle_array 00000001800cdac4     libucrt:osfinfo.obj
 0002:00074ad8       $unwind$?dllmain_crt_process_attach@@YAHQEAUHINSTANCE__@@QEAX@Z 00000001800cdad8     LIBCMT:dll_dllmain.obj
 0002:00074b14       $unwind$__acrt_initialize_lowio$fin$0 00000001800cdb14     libucrt:ioinit.obj
 0002:00074b14       $unwind$?fin$0@?0???$common_lseek@_J@@YA_JH_JH@Z@4HA 00000001800cdb14     libucrt:lseek.obj
 0002:00074b14       $unwind$__acrt_update_thread_locale_data$fin$0 00000001800cdb14     libucrt:locale_refcounting.obj
 0002:00074b14       $unwind$_IsNonwritableInCurrentImage$filt$0 00000001800cdb14     LIBCMT:pesect.obj
 0002:00074b14       $unwind$fclose$fin$0       00000001800cdb14     libucrt:fclose.obj
 0002:00074b14       $unwind$?fin$0@?0??dllmain_crt_process_attach@@YAHQEAUHINSTANCE__@@QEAX@Z@4HA 00000001800cdb14     LIBCMT:dll_dllmain.obj
 0002:00074b14       $unwind$?fin$0@?0???$?RV<lambda_c376a267cfb53b6959b3b692ec76b120>@@AEAV<lambda_9a32fed5bf61b6b509b2d3f6003082a1>@@V<lambda_572fbb9fa0ab338edf41edfd4b5fcc8d>@@@?$__crt_seh_guarded_call@H@@QEAAH$$QEAV<lambda_c376a267cfb53b6959b3b692ec76b120>@@AEAV<lambda_9a32fed5bf61b6b509b2d3f6003082a1>@@$$QEAV<lambda_572fbb9fa0ab338edf41edfd4b5fcc8d>@@@Z@4HA 00000001800cdb14     libucrt:fflush.obj
 0002:00074b14       $unwind$_write$fin$0       00000001800cdb14     libucrt:write.obj
 0002:00074b14       $unwind$?fin$0@?0??dllmain_crt_process_detach@@YAH_N@Z@4HA 00000001800cdb14     LIBCMT:dll_dllmain.obj
 0002:00074b14       $unwind$?fin$0@?0???$?RV<lambda_638799b9deba96c50f710eeac98168cd>@@AEAV<lambda_22ebabd17bc4fa466a2aca6d8deb888d>@@V<lambda_a6f7d7db0129f75315ebf26d50c089f1>@@@?$__crt_seh_guarded_call@H@@QEAAH$$QEAV<lambda_638799b9deba96c50f710eeac98168cd>@@AEAV<lambda_22ebabd17bc4fa466a2aca6d8deb888d>@@$$QEAV<lambda_a6f7d7db0129f75315ebf26d50c089f1>@@@Z@4HA 00000001800cdb14     libucrt:onexit.obj
 0002:00074b14       $unwind$_query_new_handler$fin$0 00000001800cdb14     libucrt:new_handler.obj
 0002:00074b14       $unwind$_ctrlfp$filt$0     00000001800cdb14     libucrt:fpctrl.obj
 0002:00074b14       $unwind$__acrt_lowio_ensure_fh_exists$fin$0 00000001800cdb14     libucrt:osfinfo.obj
 0002:00074b14       $unwind$?fin$0@?0???$?RV<lambda_450d765d439847d4c735a33c368b5fc0>@@AEAV<lambda_44731a7d0e6d81c3e6aa82d741081786>@@V<lambda_601a2a7da3b7a96e9554ac7215c4b07c>@@@?$__crt_seh_guarded_call@P6AXH@Z@@QEAAP6AXH@Z$$QEAV<lambda_450d765d439847d4c735a33c368b5fc0>@@AEAV<lambda_44731a7d0e6d81c3e6aa82d741081786>@@$$QEAV<lambda_601a2a7da3b7a96e9554ac7215c4b07c>@@@Z@4HA 00000001800cdb14     libucrt:signal.obj
 0002:00074b14       $unwind$?fin$0@?0???$?RV<lambda_0ae27a3a962d80f24befdcbee591983d>@@AEAV<lambda_8d0ee55de4b1038c4002e0adecdf1839>@@V<lambda_dc504788e8f1664fe9b84e20bfb512f2>@@@?$__crt_seh_guarded_call@X@@QEAAX$$QEAV<lambda_0ae27a3a962d80f24befdcbee591983d>@@AEAV<lambda_8d0ee55de4b1038c4002e0adecdf1839>@@$$QEAV<lambda_dc504788e8f1664fe9b84e20bfb512f2>@@@Z@4HA 00000001800cdb14     libucrt:per_thread_data.obj
 0002:00074b14       $unwind$?fin$0@?0???$?RV<lambda_aa87e3671a710a21b5dc78c0bdf72e11>@@AEAV<lambda_92619d2358a28f41a33ba319515a20b9>@@V<lambda_6992ecaafeb10aed2b74cb1fae11a551>@@@?$__crt_seh_guarded_call@X@@QEAAX$$QEAV<lambda_aa87e3671a710a21b5dc78c0bdf72e11>@@AEAV<lambda_92619d2358a28f41a33ba319515a20b9>@@$$QEAV<lambda_6992ecaafeb10aed2b74cb1fae11a551>@@@Z@4HA 00000001800cdb14     libucrt:per_thread_data.obj
 0002:00074b14       $unwind$__DestructExceptionObject$filt$0 00000001800cdb14     libvcruntime:ehhelpers.obj
 0002:00074b14       $unwind$?fin$0@?0???$?RV<lambda_d80eeec6fff315bfe5c115232f3240e3>@@AEAV<lambda_6e4b09c48022b2350581041d5f6b0c4c>@@V<lambda_2358e3775559c9db80273638284d5e45>@@@?$__crt_seh_guarded_call@X@@QEAAX$$QEAV<lambda_d80eeec6fff315bfe5c115232f3240e3>@@AEAV<lambda_6e4b09c48022b2350581041d5f6b0c4c>@@$$QEAV<lambda_2358e3775559c9db80273638284d5e45>@@@Z@4HA 00000001800cdb14     libucrt:exit.obj
 0002:00074b14       $unwind$?fin$0@?0???$?RV<lambda_f2e299630e499de9f9a165e60fcd3db5>@@AEAV<lambda_2ae9d31cdba2644fcbeaf08da7c24588>@@V<lambda_40d01ff24d0e7b3814fdbdcee8eab3c7>@@@?$__crt_seh_guarded_call@X@@QEAAX$$QEAV<lambda_f2e299630e499de9f9a165e60fcd3db5>@@AEAV<lambda_2ae9d31cdba2644fcbeaf08da7c24588>@@$$QEAV<lambda_40d01ff24d0e7b3814fdbdcee8eab3c7>@@@Z@4HA 00000001800cdb14     libucrt:per_thread_data.obj
 0002:00074b14       $unwind$?filt$0@?0???R<lambda_6e4b09c48022b2350581041d5f6b0c4c>@@QEBA@XZ@4HA 00000001800cdb14     libucrt:exit.obj
 0002:00074b14       $unwind$?fin$0@?0???$?RV<lambda_2d41944a1d46af3157314b8a01080d33>@@AEAV<lambda_8f455de75cd7d7f24b4096f044d8b9e6>@@V<lambda_aa500f224e6afead328df44964fe2772>@@@?$__crt_seh_guarded_call@X@@QEAAX$$QEAV<lambda_2d41944a1d46af3157314b8a01080d33>@@AEAV<lambda_8f455de75cd7d7f24b4096f044d8b9e6>@@$$QEAV<lambda_aa500f224e6afead328df44964fe2772>@@@Z@4HA 00000001800cdb14     libucrt:per_thread_data.obj
 0002:00074b14       $unwind$?fin$0@?0???$?RV<lambda_a37b2b86f63e897a80ea819b0eb08c01>@@AEAV<lambda_38ce7e780aa69e748d6df282ebc68efe>@@V<lambda_99fb1378e971ab6e7edea83e3a7a83a2>@@@?$__crt_seh_guarded_call@H@@QEAAH$$QEAV<lambda_a37b2b86f63e897a80ea819b0eb08c01>@@AEAV<lambda_38ce7e780aa69e748d6df282ebc68efe>@@$$QEAV<lambda_99fb1378e971ab6e7edea83e3a7a83a2>@@@Z@4HA 00000001800cdb14     libucrt:commit.obj
 0002:00074b14       $unwind$?fin$0@?0???$?RV<lambda_7777bce6b2f8c936911f934f8298dc43>@@AEAV<lambda_f03950bc5685219e0bcd2087efbe011e>@@V<lambda_3883c3dff614d5e0c5f61bb1ac94921c>@@@?$__crt_seh_guarded_call@H@@QEAAH$$QEAV<lambda_7777bce6b2f8c936911f934f8298dc43>@@AEAV<lambda_f03950bc5685219e0bcd2087efbe011e>@@$$QEAV<lambda_3883c3dff614d5e0c5f61bb1ac94921c>@@@Z@4HA 00000001800cdb14     libucrt:onexit.obj
 0002:00074b14       $unwind$?fin$0@?0???$?RV<lambda_efdfa57d1f175319df784efa44bb7b81>@@AEAV<lambda_5f0a4c1567f8adc6734073e5d1e1b35c>@@V<lambda_2e8a7d3640ea6ccb4c2413664c2db6fd>@@@?$__crt_seh_guarded_call@X@@QEAAX$$QEAV<lambda_efdfa57d1f175319df784efa44bb7b81>@@AEAV<lambda_5f0a4c1567f8adc6734073e5d1e1b35c>@@$$QEAV<lambda_2e8a7d3640ea6ccb4c2413664c2db6fd>@@@Z@4HA 00000001800cdb14     libucrt:mbctype.obj
 0002:00074b14       $unwind$?fin$0@?0???$?RV<lambda_84ec643ea9557e2f7dc01bb0e9624395>@@AEAV<lambda_ca71763b3c0644891230e4f79ea54fa6>@@V<lambda_439a761618c59b0600e24586724d733b>@@@?$__crt_seh_guarded_call@H@@QEAAH$$QEAV<lambda_84ec643ea9557e2f7dc01bb0e9624395>@@AEAV<lambda_ca71763b3c0644891230e4f79ea54fa6>@@$$QEAV<lambda_439a761618c59b0600e24586724d733b>@@@Z@4HA 00000001800cdb14     libucrt:setvbuf.obj
 0002:00074b14       $unwind$?fin$0@?0???$?RV<lambda_886d6c58226a84441f68b9f2b8217b83>@@AEAV<lambda_ab61a845afdef5b7c387490eaf3616ee>@@V<lambda_f7f22ab5edc0698d5f6905b0d3f44752>@@@?$__crt_seh_guarded_call@X@@QEAAX$$QEAV<lambda_886d6c58226a84441f68b9f2b8217b83>@@AEAV<lambda_ab61a845afdef5b7c387490eaf3616ee>@@$$QEAV<lambda_f7f22ab5edc0698d5f6905b0d3f44752>@@@Z@4HA 00000001800cdb14     libucrt:fflush.obj
 0002:00074b14       $unwind$?fin$0@?0???$?RV<lambda_842d9ff0dc9ef11c61343bbaebe7f885>@@AEAV<lambda_c5860995281e5c4ce005b3de8f5874ee>@@V<lambda_d90129c13df834fdcbf8d2b88dafcf2d>@@@?$__crt_seh_guarded_call@X@@QEAAX$$QEAV<lambda_842d9ff0dc9ef11c61343bbaebe7f885>@@AEAV<lambda_c5860995281e5c4ce005b3de8f5874ee>@@$$QEAV<lambda_d90129c13df834fdcbf8d2b88dafcf2d>@@@Z@4HA 00000001800cdb14     libucrt:fflush.obj
 0002:00074b14       $unwind$_fcloseall$fin$0   00000001800cdb14     libucrt:closeall.obj
 0002:00074b14       $unwind$raise$fin$0        00000001800cdb14     libucrt:signal.obj
 0002:00074b14       $unwind$?fin$0@?0???$?RV<lambda_751a882b2c74d4b022dec766aa51a29a>@@AEAV<lambda_628dfdc04ba53c8bfc02c9951375f3f5>@@V<lambda_f6c7be5f7998530c34de24c7437d6b54>@@@?$__crt_seh_guarded_call@H@@QEAAH$$QEAV<lambda_751a882b2c74d4b022dec766aa51a29a>@@AEAV<lambda_628dfdc04ba53c8bfc02c9951375f3f5>@@$$QEAV<lambda_f6c7be5f7998530c34de24c7437d6b54>@@@Z@4HA 00000001800cdb14     libucrt:close.obj
 0002:00074b14       $unwind$?fin$0@?0??update_thread_multibyte_data_internal@@YAPEAU__crt_multibyte_data@@QEAU__acrt_ptd@@QEAPEAU1@@Z@4HA 00000001800cdb14     libucrt:mbctype.obj
 0002:00074b14       $unwind$?fin$0@?0???$?RV<lambda_410d79af7f07d98d83a3f525b3859a53>@@AEAV<lambda_3e16ef9562a7dcce91392c22ab16ea36>@@V<lambda_38119f0e861e05405d8a144b9b982f0a>@@@?$__crt_seh_guarded_call@X@@QEAAX$$QEAV<lambda_410d79af7f07d98d83a3f525b3859a53>@@AEAV<lambda_3e16ef9562a7dcce91392c22ab16ea36>@@$$QEAV<lambda_38119f0e861e05405d8a144b9b982f0a>@@@Z@4HA 00000001800cdb14     libucrt:wsetlocale.obj
 0002:00074b14       $unwind$?fin$0@?0???$?RV<lambda_0d412022a4b28cc8a401ea49574e8ae6>@@AEAV<lambda_a775ed57af18ba8e4d5dc780aa9068fe>@@V<lambda_975a71a6baa488a08f4e15f6b0339b9e>@@@?$__crt_seh_guarded_call@H@@QEAAH$$QEAV<lambda_0d412022a4b28cc8a401ea49574e8ae6>@@AEAV<lambda_a775ed57af18ba8e4d5dc780aa9068fe>@@$$QEAV<lambda_975a71a6baa488a08f4e15f6b0339b9e>@@@Z@4HA 00000001800cdb14     libucrt:output.obj
 0002:00074b1c       $unwind$?dllmain_crt_process_detach@@YAH_N@Z 00000001800cdb1c     LIBCMT:dll_dllmain.obj
 0002:00074b54       $unwind$?dllmain_dispatch@@YAHQEAUHINSTANCE__@@KQEAX@Z 00000001800cdb54     LIBCMT:dll_dllmain.obj
 0002:00074b7c       $unwind$?filt$0@?0??dllmain_dispatch@@YAHQEAUHINSTANCE__@@KQEAX@Z@4HA 00000001800cdb7c     LIBCMT:dll_dllmain.obj
 0002:00074b84       $unwind$?__scrt_throw_std_bad_alloc@@YAXXZ 00000001800cdb84     LIBCMT:throw_bad_alloc.obj
 0002:00074b84       $unwind$?__scrt_throw_std_bad_array_new_length@@YAXXZ 00000001800cdb84     LIBCMT:throw_bad_alloc.obj
 0002:00074b84       $unwind$_raise_exc         00000001800cdb84     libucrt:fpexcept.obj
 0002:00074b84       $unwind$?_Xlength_error@std@@YAXPEBD@Z 00000001800cdb84     libcpmt:xthrow.obj
 0002:00074b8c       $unwind$__isa_available_init 00000001800cdb8c     LIBCMT:cpu_disp.obj
 0002:00074b9c       $unwind$__scrt_fastfail    00000001800cdb9c     LIBCMT:utility_desktop.obj
 0002:00074bac       $unwind$__security_init_cookie 00000001800cdbac     LIBCMT:gs_support.obj
 0002:00074bb8       $xdatasym                  00000001800cdbb8     LIBCMT:guard_dispatch.obj
 0002:00074bbc       $unwind$??$common_xtox_s@K_W@@YAHKQEA_W_KI_N@Z 00000001800cdbbc     libucrt:xtoa.obj
 0002:00074bbc       $unwind$?__mbrtowc_utf8@__crt_mbstring@@YA_KPEA_WPEBD_KPEAU_Mbstatet@@@Z 00000001800cdbbc     libucrt:mbrtowc.obj
 0002:00074bbc       $unwind$??0length_error@std@@QEAA@PEBD@Z 00000001800cdbbc     libcpmt:xthrow.obj
 0002:00074bc4       $unwind$__C_specific_handler 00000001800cdbc4     libvcruntime:riscchandler.obj
 0002:00074be0       $unwind$_CxxThrowException 00000001800cdbe0     libvcruntime:throw.obj
 0002:00074bf0       $xdatasym                  00000001800cdbf0     libvcruntime:memset.obj
 0002:00074c00       $unwind$__vcrt_uninitialize_winapi_thunks 00000001800cdc00     libvcruntime:winapi_downlevel.obj
 0002:00074c00       $unwind$__acrt_stdio_end_temporary_buffering_nolock 00000001800cdc00     libucrt:_sftbuf.obj
 0002:00074c08       $xdatasym                  00000001800cdc08     libvcruntime:notify.obj
 0002:00074c14       $unwind$__DestructExceptionObject 00000001800cdc14     libvcruntime:ehhelpers.obj
 0002:00074c38       $xdatasym                  00000001800cdc38     libvcruntime:memcpy.obj
 0002:00074c48       $xdatasym                  00000001800cdc48     libvcruntime:handlers.obj
 0002:00074c58       $unwind$log2               00000001800cdc58     libucrt:log2.obj
 0002:00074c64       $unwind$fwprintf           00000001800cdc64     libucrt:assert.obj
 0002:00074c70       $unwind$swprintf           00000001800cdc70     libucrt:assert.obj
 0002:00074c80       $unwind$??$common_assert_to_stderr@_W@@YAXQEB_W0I@Z 00000001800cdc80     libucrt:assert.obj
 0002:00074c9c       $unwind$??$common_assert_to_message_box@_W@@YAXQEB_W0IQEAX@Z 00000001800cdc9c     libucrt:assert.obj
 0002:00074cb8       $unwind$??$common_assert_to_message_box_build_string@_W@@YAXQEA_W_KQEB_W2IQEAX@Z 00000001800cdcb8     libucrt:assert.obj
 0002:00074cd8       $unwind$?common_exit@@YAXHW4_crt_exit_cleanup_mode@@W4_crt_exit_return_mode@@@Z 00000001800cdcd8     libucrt:exit.obj
 0002:00074ce4       $unwind$??R<lambda_6e4b09c48022b2350581041d5f6b0c4c>@@QEBA@XZ 00000001800cdce4     libucrt:exit.obj
 0002:00074d04       $unwind$??$?RV<lambda_d80eeec6fff315bfe5c115232f3240e3>@@AEAV<lambda_6e4b09c48022b2350581041d5f6b0c4c>@@V<lambda_2358e3775559c9db80273638284d5e45>@@@?$__crt_seh_guarded_call@X@@QEAAX$$QEAV<lambda_d80eeec6fff315bfe5c115232f3240e3>@@AEAV<lambda_6e4b09c48022b2350581041d5f6b0c4c>@@$$QEAV<lambda_2358e3775559c9db80273638284d5e45>@@@Z 00000001800cdd04     libucrt:exit.obj
 0002:00074d28       $unwind$_invalid_parameter_noinfo 00000001800cdd28     libucrt:invalid_parameter.obj
 0002:00074d28       $unwind$wctomb_s           00000001800cdd28     libucrt:wctomb.obj
 0002:00074d28       $unwind$_invalid_parameter_noinfo_noreturn 00000001800cdd28     libucrt:invalid_parameter.obj
 0002:00074d28       $unwind$wcstol             00000001800cdd28     libucrt:strtox.obj
 0002:00074d28       $unwind$_itow_s            00000001800cdd28     libucrt:xtoa.obj
 0002:00074d28       $unwind$_log10_special     00000001800cdd28     libucrt:log_special.obj
 0002:00074d28       $unwind$fflush             00000001800cdd28     libucrt:fflush.obj
 0002:00074d30       $unwind$__acrt_call_reportfault 00000001800cdd30     libucrt:invalid_parameter.obj
 0002:00074d50       $unwind$_invalid_parameter 00000001800cdd50     libucrt:invalid_parameter.obj
 0002:00074d50       $unwind$__acrt_MessageBoxW 00000001800cdd50     libucrt:winapi_thunks.obj
 0002:00074d64       $unwind$?x_ismbbtype_l@@YAHPEAU__crt_locale_pointers@@IHH@Z 00000001800cdd64     libucrt:ismbbyte.obj
 0002:00074d64       $unwind$_stricmp_l         00000001800cdd64     libucrt:stricmp.obj
 0002:00074d74       $unwind$_query_new_handler 00000001800cdd74     libucrt:new_handler.obj
 0002:00074d94       $unwind$_configure_narrow_argv 00000001800cdd94     libucrt:argv_parsing.obj
 0002:00074da8       $unwind$?write_string_impl@?$output_adapter_common@_WV?$stream_output_adapter@_W@__crt_stdio_output@@@__crt_stdio_output@@IEBAXQEB_WHQEAHAEAV__crt_deferred_errno_cache@@@Z 00000001800cdda8     libucrt:output.obj
 0002:00074da8       $unwind$??$parse_command_line@D@@YAXPEADPEAPEAD0PEA_K2@Z 00000001800cdda8     libucrt:argv_parsing.obj
 0002:00074dc4       $unwind$??$free_environment@_W@@YAXQEAPEA_W@Z 00000001800cddc4     libucrt:environment_initialization.obj
 0002:00074dc4       $unwind$??$free_environment@D@@YAXQEAPEAD@Z 00000001800cddc4     libucrt:environment_initialization.obj
 0002:00074dd0       $unwind$??$create_environment@D@@YAQEAPEADQEAD@Z 00000001800cddd0     libucrt:environment_initialization.obj
 0002:00074de8       $unwind$_register_onexit_function 00000001800cdde8     libucrt:onexit.obj
 0002:00074df0       $unwind$_execute_onexit_table 00000001800cddf0     libucrt:onexit.obj
 0002:00074df8       $unwind$??R<lambda_22ebabd17bc4fa466a2aca6d8deb888d>@@QEBAHXZ 00000001800cddf8     libucrt:onexit.obj
 0002:00074e10       $unwind$??$?RV<lambda_638799b9deba96c50f710eeac98168cd>@@AEAV<lambda_22ebabd17bc4fa466a2aca6d8deb888d>@@V<lambda_a6f7d7db0129f75315ebf26d50c089f1>@@@?$__crt_seh_guarded_call@H@@QEAAH$$QEAV<lambda_638799b9deba96c50f710eeac98168cd>@@AEAV<lambda_22ebabd17bc4fa466a2aca6d8deb888d>@@$$QEAV<lambda_a6f7d7db0129f75315ebf26d50c089f1>@@@Z 00000001800cde10     libucrt:onexit.obj
 0002:00074e34       $unwind$??$?RV<lambda_7777bce6b2f8c936911f934f8298dc43>@@AEAV<lambda_f03950bc5685219e0bcd2087efbe011e>@@V<lambda_3883c3dff614d5e0c5f61bb1ac94921c>@@@?$__crt_seh_guarded_call@H@@QEAAH$$QEAV<lambda_7777bce6b2f8c936911f934f8298dc43>@@AEAV<lambda_f03950bc5685219e0bcd2087efbe011e>@@$$QEAV<lambda_3883c3dff614d5e0c5f61bb1ac94921c>@@@Z 00000001800cde34     libucrt:onexit.obj
 0002:00074e58       $unwind$terminate          00000001800cde58     libucrt:terminate.obj
 0002:00074e78       $unwind$__stdio_common_vfwprintf 00000001800cde78     libucrt:output.obj
 0002:00074e80       $unwind$??$common_vsprintf@Vstandard_base@__crt_stdio_output@@_W@@YAH_KQEA_W0QEB_WQEAU__crt_locale_pointers@@QEAD@Z 00000001800cde80     libucrt:output.obj
 0002:00074ea0       $unwind$?process@?$output_processor@_WV?$string_output_adapter@_W@__crt_stdio_output@@V?$standard_base@_WV?$string_output_adapter@_W@__crt_stdio_output@@@2@@__crt_stdio_output@@QEAAHXZ 00000001800cdea0     libucrt:output.obj
 0002:00074ea0       $unwind$?process@?$output_processor@_WV?$stream_output_adapter@_W@__crt_stdio_output@@V?$standard_base@_WV?$stream_output_adapter@_W@__crt_stdio_output@@@2@@__crt_stdio_output@@QEAAHXZ 00000001800cdea0     libucrt:output.obj
 0002:00074eb4       $unwind$?state_case_type@?$output_processor@_WV?$stream_output_adapter@_W@__crt_stdio_output@@V?$standard_base@_WV?$stream_output_adapter@_W@__crt_stdio_output@@@2@@__crt_stdio_output@@AEAA_NXZ 00000001800cdeb4     libucrt:output.obj
 0002:00074ed4       $unwind$?type_case_a@?$output_processor@_WV?$string_output_adapter@_W@__crt_stdio_output@@V?$standard_base@_WV?$string_output_adapter@_W@__crt_stdio_output@@@2@@__crt_stdio_output@@AEAA_NXZ 00000001800cded4     libucrt:output.obj
 0002:00074ed4       $unwind$?type_case_a@?$output_processor@_WV?$stream_output_adapter@_W@__crt_stdio_output@@V?$standard_base@_WV?$stream_output_adapter@_W@__crt_stdio_output@@@2@@__crt_stdio_output@@AEAA_NXZ 00000001800cded4     libucrt:output.obj
 0002:00074ee4       $unwind$?write_stored_string_tchar@?$output_processor@_WV?$stream_output_adapter@_W@__crt_stdio_output@@V?$standard_base@_WV?$stream_output_adapter@_W@__crt_stdio_output@@@2@@__crt_stdio_output@@AEAA_N_W@Z 00000001800cdee4     libucrt:output.obj
 0002:00074ef8       $unwind$??R<lambda_a775ed57af18ba8e4d5dc780aa9068fe>@@QEBAHXZ 00000001800cdef8     libucrt:output.obj
 0002:00074f18       $unwind$?write_string@?$string_output_adapter@_W@__crt_stdio_output@@QEBAXQEB_WHQEAHAEAV__crt_deferred_errno_cache@@@Z 00000001800cdf18     libucrt:output.obj
 0002:00074f30       $unwind$?state_case_type@?$output_processor@_WV?$string_output_adapter@_W@__crt_stdio_output@@V?$standard_base@_WV?$string_output_adapter@_W@__crt_stdio_output@@@2@@__crt_stdio_output@@AEAA_NXZ 00000001800cdf30     libucrt:output.obj
 0002:00074f54       $unwind$?write_stored_string_tchar@?$output_processor@_WV?$string_output_adapter@_W@__crt_stdio_output@@V?$standard_base@_WV?$string_output_adapter@_W@__crt_stdio_output@@@2@@__crt_stdio_output@@AEAA_N_W@Z 00000001800cdf54     libucrt:output.obj
 0002:00074f68       $unwind$??$write_multiple_characters@V?$string_output_adapter@_W@__crt_stdio_output@@D@__crt_stdio_output@@YAXAEBV?$string_output_adapter@_W@0@DHQEAH@Z 00000001800cdf68     libucrt:output.obj
 0002:00074f74       $unwind$??$write_multiple_characters@V?$stream_output_adapter@_W@__crt_stdio_output@@D@__crt_stdio_output@@YAXAEBV?$stream_output_adapter@_W@0@DHQEAH@Z 00000001800cdf74     libucrt:output.obj
 0002:00074f8c       $unwind$??$?RV<lambda_0d412022a4b28cc8a401ea49574e8ae6>@@AEAV<lambda_a775ed57af18ba8e4d5dc780aa9068fe>@@V<lambda_975a71a6baa488a08f4e15f6b0339b9e>@@@?$__crt_seh_guarded_call@H@@QEAAH$$QEAV<lambda_0d412022a4b28cc8a401ea49574e8ae6>@@AEAV<lambda_a775ed57af18ba8e4d5dc780aa9068fe>@@$$QEAV<lambda_975a71a6baa488a08f4e15f6b0339b9e>@@@Z 00000001800cdf8c     libucrt:output.obj
 0002:00074fb0       $unwind$??$parse_integer@KV?$c_string_character_source@_W@__crt_strtox@@@__crt_strtox@@YAKQEAU__crt_locale_pointers@@V?$c_string_character_source@_W@0@H_N@Z 00000001800cdfb0     libucrt:atox.obj
 0002:00074fc8       $xdatasym                  00000001800cdfc8     libucrt:strncmp.obj
 0002:00074fcc       $unwind$?destroy_fls@@YAXPEAX@Z 00000001800cdfcc     libucrt:per_thread_data.obj
 0002:00074fcc       $unwind$__acrt_locale_free_numeric 00000001800cdfcc     libucrt:initnum.obj
 0002:00074fcc       $unwind$__acrt_locale_free_lc_time_if_unreferenced 00000001800cdfcc     libucrt:locale_refcounting.obj
 0002:00074fcc       $unwind$_free_base         00000001800cdfcc     libucrt:free_base.obj
 0002:00074fd4       $unwind$_call_matherr      00000001800cdfd4     libucrt:libm_error.obj
 0002:00074fdc       $unwind$_handle_error      00000001800cdfdc     libucrt:libm_error.obj
 0002:00074ffc       $unwind$__acrt_GetModuleFileNameA 00000001800cdffc     libucrt:getmodulefilenamea.obj
 0002:00075018       $unwind$__dcrt_write_console 00000001800ce018     libucrt:initcon.obj
 0002:00075018       $unwind$??$__acrt_wcs_to_mbs_cp@U__crt_win32_buffer_no_resizing@@@@YAHQEB_WAEAV?$__crt_win32_buffer@DU__crt_win32_buffer_no_resizing@@@@I@Z 00000001800ce018     libucrt:getmodulefilenamea.obj
 0002:0007502c       $unwind$?initialize_stdio_handles_nolock@@YAXXZ 00000001800ce02c     libucrt:ioinit.obj
 0002:0007502c       $unwind$__acrt_initialize_stdio 00000001800ce02c     libucrt:_file.obj
 0002:00075044       $unwind$?common_flush_all@@YAH_N@Z 00000001800ce044     libucrt:fflush.obj
 0002:0007504c       $unwind$??$?RV<lambda_842d9ff0dc9ef11c61343bbaebe7f885>@@AEAV<lambda_c5860995281e5c4ce005b3de8f5874ee>@@V<lambda_d90129c13df834fdcbf8d2b88dafcf2d>@@@?$__crt_seh_guarded_call@X@@QEAAX$$QEAV<lambda_842d9ff0dc9ef11c61343bbaebe7f885>@@AEAV<lambda_c5860995281e5c4ce005b3de8f5874ee>@@$$QEAV<lambda_d90129c13df834fdcbf8d2b88dafcf2d>@@@Z 00000001800ce04c     libucrt:fflush.obj
 0002:00075070       $unwind$??$?RV<lambda_886d6c58226a84441f68b9f2b8217b83>@@AEAV<lambda_ab61a845afdef5b7c387490eaf3616ee>@@V<lambda_f7f22ab5edc0698d5f6905b0d3f44752>@@@?$__crt_seh_guarded_call@X@@QEAAX$$QEAV<lambda_886d6c58226a84441f68b9f2b8217b83>@@AEAV<lambda_ab61a845afdef5b7c387490eaf3616ee>@@$$QEAV<lambda_f7f22ab5edc0698d5f6905b0d3f44752>@@@Z 00000001800ce070     libucrt:fflush.obj
 0002:00075098       $unwind$??$?RV<lambda_c376a267cfb53b6959b3b692ec76b120>@@AEAV<lambda_9a32fed5bf61b6b509b2d3f6003082a1>@@V<lambda_572fbb9fa0ab338edf41edfd4b5fcc8d>@@@?$__crt_seh_guarded_call@H@@QEAAH$$QEAV<lambda_c376a267cfb53b6959b3b692ec76b120>@@AEAV<lambda_9a32fed5bf61b6b509b2d3f6003082a1>@@$$QEAV<lambda_572fbb9fa0ab338edf41edfd4b5fcc8d>@@@Z 00000001800ce098     libucrt:fflush.obj
 0002:000750bc       $unwind$setvbuf            00000001800ce0bc     libucrt:setvbuf.obj
 0002:000750c4       $unwind$??$?RV<lambda_84ec643ea9557e2f7dc01bb0e9624395>@@AEAV<lambda_ca71763b3c0644891230e4f79ea54fa6>@@V<lambda_439a761618c59b0600e24586724d733b>@@@?$__crt_seh_guarded_call@H@@QEAAH$$QEAV<lambda_84ec643ea9557e2f7dc01bb0e9624395>@@AEAV<lambda_ca71763b3c0644891230e4f79ea54fa6>@@$$QEAV<lambda_439a761618c59b0600e24586724d733b>@@@Z 00000001800ce0c4     libucrt:setvbuf.obj
 0002:000750e8       $unwind$__acrt_uninitialize_locale 00000001800ce0e8     libucrt:wsetlocale.obj
 0002:000750e8       $unwind$__acrt_get_sigabrt_handler 00000001800ce0e8     libucrt:signal.obj
 0002:000750f0       $unwind$raise              00000001800ce0f0     libucrt:signal.obj
 0002:0007512c       $unwind$??$?RV<lambda_450d765d439847d4c735a33c368b5fc0>@@AEAV<lambda_44731a7d0e6d81c3e6aa82d741081786>@@V<lambda_601a2a7da3b7a96e9554ac7215c4b07c>@@@?$__crt_seh_guarded_call@P6AXH@Z@@QEAAP6AXH@Z$$QEAV<lambda_450d765d439847d4c735a33c368b5fc0>@@AEAV<lambda_44731a7d0e6d81c3e6aa82d741081786>@@$$QEAV<lambda_601a2a7da3b7a96e9554ac7215c4b07c>@@@Z 00000001800ce12c     libucrt:signal.obj
 0002:00075150       $unwind$?construct_ptd_array@@YAXQEAU__acrt_ptd@@@Z 00000001800ce150     libucrt:per_thread_data.obj
 0002:00075158       $unwind$?destroy_ptd_array@@YAXQEAU__acrt_ptd@@@Z 00000001800ce158     libucrt:per_thread_data.obj
 0002:00075160       $unwind$??$?RV<lambda_0ae27a3a962d80f24befdcbee591983d>@@AEAV<lambda_8d0ee55de4b1038c4002e0adecdf1839>@@V<lambda_dc504788e8f1664fe9b84e20bfb512f2>@@@?$__crt_seh_guarded_call@X@@QEAAX$$QEAV<lambda_0ae27a3a962d80f24befdcbee591983d>@@AEAV<lambda_8d0ee55de4b1038c4002e0adecdf1839>@@$$QEAV<lambda_dc504788e8f1664fe9b84e20bfb512f2>@@@Z 00000001800ce160     libucrt:per_thread_data.obj
 0002:00075184       $unwind$??$?RV<lambda_aa87e3671a710a21b5dc78c0bdf72e11>@@AEAV<lambda_92619d2358a28f41a33ba319515a20b9>@@V<lambda_6992ecaafeb10aed2b74cb1fae11a551>@@@?$__crt_seh_guarded_call@X@@QEAAX$$QEAV<lambda_aa87e3671a710a21b5dc78c0bdf72e11>@@AEAV<lambda_92619d2358a28f41a33ba319515a20b9>@@$$QEAV<lambda_6992ecaafeb10aed2b74cb1fae11a551>@@@Z 00000001800ce184     libucrt:per_thread_data.obj
 0002:000751a8       $unwind$??$?RV<lambda_f2e299630e499de9f9a165e60fcd3db5>@@AEAV<lambda_2ae9d31cdba2644fcbeaf08da7c24588>@@V<lambda_40d01ff24d0e7b3814fdbdcee8eab3c7>@@@?$__crt_seh_guarded_call@X@@QEAAX$$QEAV<lambda_f2e299630e499de9f9a165e60fcd3db5>@@AEAV<lambda_2ae9d31cdba2644fcbeaf08da7c24588>@@$$QEAV<lambda_40d01ff24d0e7b3814fdbdcee8eab3c7>@@@Z 00000001800ce1a8     libucrt:per_thread_data.obj
 0002:000751cc       $unwind$??$?RV<lambda_2d41944a1d46af3157314b8a01080d33>@@AEAV<lambda_8f455de75cd7d7f24b4096f044d8b9e6>@@V<lambda_aa500f224e6afead328df44964fe2772>@@@?$__crt_seh_guarded_call@X@@QEAAX$$QEAV<lambda_2d41944a1d46af3157314b8a01080d33>@@AEAV<lambda_8f455de75cd7d7f24b4096f044d8b9e6>@@$$QEAV<lambda_aa500f224e6afead328df44964fe2772>@@@Z 00000001800ce1cc     libucrt:per_thread_data.obj
 0002:000751f0       $unwind$_tolower_l         00000001800ce1f0     libucrt:tolower_toupper.obj
 0002:00075200       $unwind$??$?RV<lambda_410d79af7f07d98d83a3f525b3859a53>@@AEAV<lambda_3e16ef9562a7dcce91392c22ab16ea36>@@V<lambda_38119f0e861e05405d8a144b9b982f0a>@@@?$__crt_seh_guarded_call@X@@QEAAX$$QEAV<lambda_410d79af7f07d98d83a3f525b3859a53>@@AEAV<lambda_3e16ef9562a7dcce91392c22ab16ea36>@@$$QEAV<lambda_38119f0e861e05405d8a144b9b982f0a>@@@Z 00000001800ce200     libucrt:wsetlocale.obj
 0002:00075228       $unwind$??$__acrt_mbs_to_wcs_cp@U__crt_win32_buffer_internal_dynamic_resizing@@@@YAHQEBDAEAV?$__crt_win32_buffer@_WU__crt_win32_buffer_internal_dynamic_resizing@@@@I@Z 00000001800ce228     libucrt:argv_wildcards.obj
 0002:00075240       $unwind$__dcrt_get_narrow_environment_from_os 00000001800ce240     libucrt:get_environment_from_os.obj
 0002:00075240       $unwind$?fp_format_f_internal@@YAHQEAD_KHQEAU_strflt@@_NQEAU__crt_locale_pointers@@@Z 00000001800ce240     libucrt:cvt.obj
 0002:00075240       $unwind$??$__acrt_wcs_to_mbs_cp@U__crt_win32_buffer_internal_dynamic_resizing@@@@YAHQEB_WAEAV?$__crt_win32_buffer@DU__crt_win32_buffer_internal_dynamic_resizing@@@@I@Z 00000001800ce240     libucrt:argv_wildcards.obj
 0002:00075258       $unwind$??$common_expand_argv_wildcards@D@@YAHQEAPEADQEAPEAPEAD@Z 00000001800ce258     libucrt:argv_wildcards.obj
 0002:00075270       $unwind$??$copy_and_add_argument_to_buffer@D@@YAHQEBD0_KAEAV?$argument_list@D@?A0x5f5c8891@@@Z 00000001800ce270     libucrt:argv_wildcards.obj
 0002:0007528c       $unwind$??$expand_argument_wildcards@D@@YAHQEAD0AEAV?$argument_list@D@?A0x5f5c8891@@@Z 00000001800ce28c     libucrt:argv_wildcards.obj
 0002:000752b0       $unwind$_setmbcp_nolock    00000001800ce2b0     libucrt:mbctype.obj
 0002:000752d0       $unwind$?update_thread_multibyte_data_internal@@YAPEAU__crt_multibyte_data@@QEAU__acrt_ptd@@QEAPEAU1@@Z 00000001800ce2d0     libucrt:mbctype.obj
 0002:000752f8       $unwind$?setmbcp_internal@@YAHH_NQEAU__acrt_ptd@@QEAPEAU__crt_multibyte_data@@@Z 00000001800ce2f8     libucrt:mbctype.obj
 0002:00075308       $unwind$?setSBUpLow@@YAXPEAU__crt_multibyte_data@@@Z 00000001800ce308     libucrt:mbctype.obj
 0002:00075324       $unwind$??$?RV<lambda_efdfa57d1f175319df784efa44bb7b81>@@AEAV<lambda_5f0a4c1567f8adc6734073e5d1e1b35c>@@V<lambda_2e8a7d3640ea6ccb4c2413664c2db6fd>@@@?$__crt_seh_guarded_call@X@@QEAAX$$QEAV<lambda_efdfa57d1f175319df784efa44bb7b81>@@AEAV<lambda_5f0a4c1567f8adc6734073e5d1e1b35c>@@$$QEAV<lambda_2e8a7d3640ea6ccb4c2413664c2db6fd>@@@Z 00000001800ce324     libucrt:mbctype.obj
 0002:00075348       $unwind$__GSHandlerCheckCommon 00000001800ce348     LIBCMT:gshandler.obj
 0002:00075348       $unwind$__acrt_WideCharToMultiByte 00000001800ce348     libucrt:widechartomultibyte.obj
 0002:00075350       $unwind$__acrt_LCMapStringEx 00000001800ce350     libucrt:winapi_thunks.obj
 0002:00075350       $unwind$_mbtowc_l          00000001800ce350     libucrt:mbtowc.obj
 0002:00075350       $unwind$?fp_format_e@@YAHQEBNQEAD_K12H_NIQEAU__crt_locale_pointers@@@Z 00000001800ce350     libucrt:cvt.obj
 0002:00075364       $unwind$__acrt_is_interactive 00000001800ce364     libucrt:winapi_thunks.obj
 0002:00075378       $unwind$__acrt_initialize_lowio 00000001800ce378     libucrt:ioinit.obj
 0002:00075398       $unwind$?initialize_inherited_file_handles_nolock@@YAXXZ 00000001800ce398     libucrt:ioinit.obj
 0002:000753b4       $unwind$_wctomb_s_l        00000001800ce3b4     libucrt:wctomb.obj
 0002:000753c4       $unwind$__acrt_fp_format   00000001800ce3c4     libucrt:cvt.obj
 0002:000753d8       $unwind$?fp_format_nan_or_infinity@@YAHW4__acrt_fp_class@@_NPEAD_K1@Z 00000001800ce3d8     libucrt:cvt.obj
 0002:000753ec       $unwind$?fp_format_e_internal@@YAHQEAD_KH_NIQEAU_strflt@@2QEAU__crt_locale_pointers@@@Z 00000001800ce3ec     libucrt:cvt.obj
 0002:00075404       $unwind$?fp_format_a@@YAHQEBNPEAD_KQEAD2H_NIQEAU__crt_locale_pointers@@@Z 00000001800ce404     libucrt:cvt.obj
 0002:00075420       $unwind$?fp_format_g@@YAHQEBNQEAD_K12H_NIQEAU__crt_locale_pointers@@@Z 00000001800ce420     libucrt:cvt.obj
 0002:00075434       $unwind$_fputwc_nolock     00000001800ce434     libucrt:fputwc.obj
 0002:00075450       $unwind$_isctype_l         00000001800ce450     libucrt:isctype.obj
 0002:0007546c       $unwind$_raise_exc_ex      00000001800ce46c     libucrt:fpexcept.obj
 0002:00075480       $unwind$_ctrlfp            00000001800ce480     libucrt:fpctrl.obj
 0002:000754a8       $unwind$_fcloseall         00000001800ce4a8     libucrt:closeall.obj
 0002:000754cc       $unwind$_close             00000001800ce4cc     libucrt:close.obj
 0002:000754cc       $unwind$_commit            00000001800ce4cc     libucrt:commit.obj
 0002:000754d4       $unwind$??$?RV<lambda_a37b2b86f63e897a80ea819b0eb08c01>@@AEAV<lambda_38ce7e780aa69e748d6df282ebc68efe>@@V<lambda_99fb1378e971ab6e7edea83e3a7a83a2>@@@?$__crt_seh_guarded_call@H@@QEAAH$$QEAV<lambda_a37b2b86f63e897a80ea819b0eb08c01>@@AEAV<lambda_38ce7e780aa69e748d6df282ebc68efe>@@$$QEAV<lambda_99fb1378e971ab6e7edea83e3a7a83a2>@@@Z 00000001800ce4d4     libucrt:commit.obj
 0002:000754f8       $unwind$_write             00000001800ce4f8     libucrt:write.obj
 0002:00075528       $unwind$_write_nolock      00000001800ce528     libucrt:write.obj
 0002:00075540       $unwind$?write_double_translated_ansi_nolock@@YA?AUwrite_result@?A0x17268360@@HQEBDI@Z 00000001800ce540     libucrt:write.obj
 0002:00075564       $unwind$?write_text_utf16le_nolock@@YA?AUwrite_result@?A0x17268360@@HQEBDI@Z 00000001800ce564     libucrt:write.obj
 0002:00075564       $unwind$?write_text_ansi_nolock@@YA?AUwrite_result@?A0x17268360@@HQEBDI@Z 00000001800ce564     libucrt:write.obj
 0002:00075584       $unwind$?write_text_utf8_nolock@@YA?AUwrite_result@?A0x17268360@@HQEBDI@Z 00000001800ce584     libucrt:write.obj
 0002:000755a8       $unwind$__acrt_update_thread_locale_data 00000001800ce5a8     libucrt:locale_refcounting.obj
 0002:000755cc       $unwind$__acrt_LCMapStringA 00000001800ce5cc     libucrt:lcmapstringa.obj
 0002:000755dc       $unwind$?__acrt_LCMapStringA_stat@@YAHPEAU__crt_locale_pointers@@PEB_WKPEBDHPEADHHH@Z 00000001800ce5dc     libucrt:lcmapstringa.obj
 0002:00075604       $unwind$__acrt_locale_free_time 00000001800ce604     libucrt:inittime.obj
 0002:00075614       $unwind$__acrt_GetStringTypeA 00000001800ce614     libucrt:getstringtypea.obj
 0002:0007563c       $unwind$qsort              00000001800ce63c     libucrt:qsort.obj
 0002:00075654       $chain$4$qsort             00000001800ce654     libucrt:qsort.obj
 0002:00075678       $chain$5$qsort             00000001800ce678     libucrt:qsort.obj
 0002:00075688       $unwind$strpbrk            00000001800ce688     libucrt:strpbrk.obj
 0002:00075698       $unwind$fallbackMethod     00000001800ce698     libucrt:strpbrk.obj
 0002:000756a8       $unwind$?GetTableIndexFromLocaleName@@YAHPEB_W@Z 00000001800ce6a8     libucrt:lcidtoname_downlevel.obj
 0002:000756c0       $unwind$__acrt_lowio_destroy_handle_array 00000001800ce6c0     libucrt:osfinfo.obj
 0002:000756d0       $unwind$__acrt_lowio_ensure_fh_exists 00000001800ce6d0     libucrt:osfinfo.obj
 0002:000756fc       $unwind$?__mbsrtowcs_utf8@__crt_mbstring@@YA_KPEA_WPEAPEBD_KPEAU_Mbstatet@@@Z 00000001800ce6fc     libucrt:mbrtowc.obj
 0002:00075714       $unwind$__acrt_fltout      00000001800ce714     libucrt:cfout.obj
 0002:00075734       $unwind$?divide@__crt_strtox@@YA_KAEAUbig_integer@1@AEBU21@@Z 00000001800ce734     libucrt:cfout.obj
 0002:0007574c       $chain$0$?divide@__crt_strtox@@YA_KAEAUbig_integer@1@AEBU21@@Z 00000001800ce74c     libucrt:cfout.obj
 0002:00075760       $chain$1$?divide@__crt_strtox@@YA_KAEAUbig_integer@1@AEBU21@@Z 00000001800ce760     libucrt:cfout.obj
 0002:00075770       $unwind$??$write_buffer_nolock@D@@YA_NDV__crt_stdio_stream@@@Z 00000001800ce770     libucrt:_flsbuf.obj
 0002:00075780       $unwind$??$write_buffer_nolock@_W@@YA_N_WV__crt_stdio_stream@@@Z 00000001800ce780     libucrt:_flsbuf.obj
 0002:00075790       $xdatasym                  00000001800ce790     libucrt:fpsr.obj
 0002:00075798       $unwind$fclose             00000001800ce798     libucrt:fclose.obj
 0002:000757bc       $unwind$??$common_lseek@_J@@YA_JH_JH@Z 00000001800ce7bc     libucrt:lseek.obj
 0002:000757ec       $unwind$_putwch_nolock     00000001800ce7ec     libucrt:putwch.obj
 0002:000757f4       $unwind$?__mbrtoc32_utf8@__crt_mbstring@@YA_KPEA_UPEBD_KPEAU_Mbstatet@@@Z 00000001800ce7f4     libucrt:mbrtoc32.obj
 0002:00075810       $xdatasym                  00000001800ce810     libucrt:log10.obj
 0002:0007581c       $unwind$??$?RV<lambda_751a882b2c74d4b022dec766aa51a29a>@@AEAV<lambda_628dfdc04ba53c8bfc02c9951375f3f5>@@V<lambda_f6c7be5f7998530c34de24c7437d6b54>@@@?$__crt_seh_guarded_call@H@@QEAAH$$QEAV<lambda_751a882b2c74d4b022dec766aa51a29a>@@AEAV<lambda_628dfdc04ba53c8bfc02c9951375f3f5>@@$$QEAV<lambda_f6c7be5f7998530c34de24c7437d6b54>@@@Z 00000001800ce81c     libucrt:close.obj
 0002:00075840       $unwind$__acrt_initialize_fma3 00000001800ce840     libucrt:fma3_available.obj
 0002:00075848       $unwind$_log_special_common 00000001800ce848     libucrt:log_special.obj
 0002:00075854       $unwind$?DloadMakePermanentImageCommit@@YAXPEAX_K@Z 00000001800ce854     DelayImp:delayhlp.obj
 0002:00075860       $unwind$?DloadProtectSection@@YAXKPEAK@Z 00000001800ce860     DelayImp:delayhlp.obj
 0002:00075870       $unwind$__delayLoadHelper2 00000001800ce870     DelayImp:delayhlp.obj
 0002:00075888       $unwind$_IsNonwritableInCurrentImage 00000001800ce888     LIBCMT:pesect.obj
 0002:000758b0       $xdatasym                  00000001800ce8b0     LIBCMT:chkstk.obj
 0002:000758b8       $xdatasym                  00000001800ce8b8     libvcruntime:memcmp.obj
 0002:000758bc       $unwind$strrchr            00000001800ce8bc     libvcruntime:strrchr.obj
 0002:00076d30       .edata                     00000001800cfd30     iltorb.exp
 0002:00076d58       rgpv                       00000001800cfd58     iltorb.exp
 0002:00076d5c       rgszName                   00000001800cfd5c     iltorb.exp
 0002:00076d60       rgwOrd                     00000001800cfd60     iltorb.exp
 0002:00076d62       szName                     00000001800cfd62     iltorb.exp
 0002:00076d6e       $N00001                    00000001800cfd6e     iltorb.exp
 0002:00077014       .idata$6                   00000001800d0014     kernel32:KERNEL32.dll
 0003:00000030       ?__vcrt_flsindex@@3KA      00000001800d1030     libvcruntime:per_thread_data.obj
 0003:00000050       ?errno_no_memory@@3HA      00000001800d1050     libucrt:errno.obj
 0003:00000054       ?doserrno_no_memory@@3KA   00000001800d1054     libucrt:errno.obj
 0003:00000168       ?__acrt_flsindex@@3KA      00000001800d1168     libucrt:per_thread_data.obj
 0003:000002e0       _mbctypes                  00000001800d12e0     libucrt:mbctype.obj
 0003:000003f0       _mbcasemaps                00000001800d13f0     libucrt:mbctype.obj
 0003:000004f0       ?__rgctypeflag@@3PADA      00000001800d14f0     libucrt:mbctype.obj
 0003:00000500       ?__rgcode_page_info@@3PAUcode_page_info@@A 00000001800d1500     libucrt:mbctype.obj
 0003:00000870       ?dazSupported@?1??_ctrlfp@@9@9 00000001800d1870     libucrt:fpctrl.obj
 0003:00000a20       ?__dcrt_lowio_console_output_handle@@3PEAXEA 00000001800d1a20     libucrt:initcon.obj
 0003:00000a40       kCmdHistoSeed              00000001800d1a40     compress_fragment.obj
 0003:00000c40       _module                    00000001800d1c40     iltorb.obj
 0003:00000f40       GS_ExceptionRecord         00000001800d1f40     LIBCMT:gs_report.obj
 0003:00000fe0       GS_ContextRecord           00000001800d1fe0     LIBCMT:gs_report.obj
 0003:000014c0       ?is_initialized_as_dll@@3_NA 00000001800d24c0     LIBCMT:utility.obj
 0003:000014c1       ?module_local_atexit_table_initialized@@3_NA 00000001800d24c1     LIBCMT:utility.obj
 0003:000014c8       ?module_local_atexit_table@@3U_onexit_table_t@@A 00000001800d24c8     LIBCMT:utility.obj
 0003:000014e0       ?module_local_at_quick_exit_table@@3U_onexit_table_t@@A 00000001800d24e0     LIBCMT:utility.obj
 0003:000014f8       ?__proc_attached@@3HA      00000001800d24f8     LIBCMT:dll_dllmain.obj
 0003:00001540       ?__vcrt_startup_thread_ptd@@3U__vcrt_ptd@@A 00000001800d2540     libvcruntime:per_thread_data.obj
 0003:000015d0       __vcrt_lock_table          00000001800d25d0     libvcruntime:locks.obj
 0003:000015f8       __vcrt_locks_initialized   00000001800d25f8     libvcruntime:locks.obj
 0003:00001600       ?module_handles@@3PAPEAUHINSTANCE__@@A 00000001800d2600     libvcruntime:winapi_downlevel.obj
 0003:00001618       ?encoded_function_pointers@@3PAPEAXA 00000001800d2618     libvcruntime:winapi_downlevel.obj
 0003:00001688       ?heap@@3V_HeapManager@@A   00000001800d2688     libvcruntime:undname.obj
 0003:000016b0       ?c_termination_complete@@3JA 00000001800d26b0     libucrt:exit.obj
 0003:000016b8       ?thread_local_exit_callback_func@@3P6AXPEAXK0@ZEA 00000001800d26b8     libucrt:exit.obj
 0003:000016c8       ?__acrt_invalid_parameter_handler@@3V?$dual_state_global@P6AXPEB_W00I_K@Z@__crt_state_management@@A 00000001800d26c8     libucrt:invalid_parameter.obj
 0003:000016d0       ?__acrt_new_handler@@3V?$dual_state_global@P6AH_K@Z@__crt_state_management@@A 00000001800d26d0     libucrt:new_handler.obj
 0003:000016e0       ?program_name@?1???$common_configure_argv@D@@YAHW4_crt_argv_mode@@@Z@4PADA 00000001800d26e0     libucrt:argv_parsing.obj
 0003:00001838       ?__acrt_app_type@@3W4_crt_app_type@@A 00000001800d2838     libucrt:report_runtime_error.obj
 0003:0000183c       __acrt_error_mode          00000001800d283c     libucrt:set_error_mode.obj
 0003:00001858       ?ctrlc_action@@3V?$dual_state_global@P6AXH@Z@__crt_state_management@@A 00000001800d2858     libucrt:signal.obj
 0003:00001860       ?ctrlbreak_action@@3V?$dual_state_global@P6AXH@Z@__crt_state_management@@A 00000001800d2860     libucrt:signal.obj
 0003:00001868       ?abort_action@@3V?$dual_state_global@P6AXH@Z@__crt_state_management@@A 00000001800d2868     libucrt:signal.obj
 0003:00001870       ?term_action@@3V?$dual_state_global@P6AXH@Z@__crt_state_management@@A 00000001800d2870     libucrt:signal.obj
 0003:00001880       ?__acrt_lock_table@@3PAU_RTL_CRITICAL_SECTION@@A 00000001800d2880     libucrt:locks.obj
 0003:00001ab0       ?__acrt_locks_initialized@@3IA 00000001800d2ab0     libucrt:locks.obj
 0003:00001ab4       ?state_cache@?1???$get_cached_win_policy@Udeveloper_information_policy_properties@?1??__acrt_get_developer_information_policy@@YA?AW4developer_information_policy@@XZ@@@YA?AW4developer_information_policy@@W4AppPolicyShowDeveloperDiagnostic@@@Z@4JA 00000001800d2ab4     libucrt:win_policies.obj
 0003:00001ab8       ?state_cache@?1???$get_cached_win_policy@Uwindowing_model_policy_properties@?1??__acrt_get_windowing_model_policy@@YA?AW4windowing_model_policy@@XZ@@@YA?AW4windowing_model_policy@@W4AppPolicyWindowingModel@@@Z@4JA 00000001800d2ab8     libucrt:win_policies.obj
 0003:00001ae0       ?fSystemSet@@3HA           00000001800d2ae0     libucrt:mbctype.obj
 0003:00001ae4       ?initialized@?1??__acrt_initialize_multibyte@@9@4_NA 00000001800d2ae4     libucrt:mbctype.obj
 0003:00001b20       ?module_handles@@3PAPEAUHINSTANCE__@@A 00000001800d2b20     libucrt:winapi_thunks.obj
 0003:00001bc0       ?encoded_function_pointers@@3PAPEAXA 00000001800d2bc0     libucrt:winapi_thunks.obj
 0003:000020e8       ?user_matherr@@3V?$dual_state_global@P6AHPEAU_exception@@@Z@__crt_state_management@@A 00000001800d30e8     libucrt:matherr.obj
 0003:00002100       ?internal_state@?1??_mbtowc_l@@9@4U_Mbstatet@@A 00000001800d3100     libucrt:mbtowc.obj
 0003:00002108       ?enable_percent_n@@3_KA    00000001800d3108     libucrt:printf_count_output.obj
 0003:00002110       ?__acrt_global_new_mode@@3V?$dual_state_global@J@__crt_state_management@@A 00000001800d3110     libucrt:new_mode.obj
 0003:00002120       ?internal_pst@?1??__mbrtoc32_utf8@__crt_mbstring@@YA_KPEA_UPEBD_KPEAU_Mbstatet@@@Z@4U3@A 00000001800d3120     libucrt:mbrtoc32.obj
 0004:00000000       $pdata$TransformDictionaryWord 00000001800d4000     decode.obj
 0004:0000000c       $pdata$DecodeVarLenUint8   00000001800d400c     decode.obj
 0004:00000018       $pdata$DecodeMetaBlockLength 00000001800d4018     decode.obj
 0004:00000024       $pdata$SafeDecodeSymbol    00000001800d4024     decode.obj
 0004:00000030       $pdata$ReadSymbolCodeLengths 00000001800d4030     decode.obj
 0004:0000003c       $pdata$1$ReadSymbolCodeLengths 00000001800d403c     decode.obj
 0004:00000048       $pdata$2$ReadSymbolCodeLengths 00000001800d4048     decode.obj
 0004:00000054       $pdata$3$ReadSymbolCodeLengths 00000001800d4054     decode.obj
 0004:00000060       $pdata$5$ReadSymbolCodeLengths 00000001800d4060     decode.obj
 0004:0000006c       $pdata$SafeReadSymbolCodeLengths 00000001800d406c     decode.obj
 0004:00000078       $pdata$ReadCodeLengthCodeLengths 00000001800d4078     decode.obj
 0004:00000084       $pdata$ReadHuffmanCode     00000001800d4084     decode.obj
 0004:00000090       $pdata$DecodeContextMap    00000001800d4090     decode.obj
 0004:0000009c       $pdata$DecodeLiteralBlockSwitch 00000001800d409c     decode.obj
 0004:000000a8       $pdata$SafeDecodeLiteralBlockSwitch 00000001800d40a8     decode.obj
 0004:000000b4       $pdata$DecodeCommandBlockSwitch 00000001800d40b4     decode.obj
 0004:000000c0       $pdata$SafeDecodeCommandBlockSwitch 00000001800d40c0     decode.obj
 0004:000000cc       $pdata$DecodeDistanceBlockSwitch 00000001800d40cc     decode.obj
 0004:000000d8       $pdata$SafeDecodeDistanceBlockSwitch 00000001800d40d8     decode.obj
 0004:000000e4       $pdata$WriteRingBuffer     00000001800d40e4     decode.obj
 0004:000000f0       $pdata$BrotliEnsureRingBuffer 00000001800d40f0     decode.obj
 0004:000000fc       $pdata$ProcessCommands     00000001800d40fc     decode.obj
 0004:00000108       $pdata$SafeProcessCommands 00000001800d4108     decode.obj
 0004:00000114       $pdata$BrotliDecoderDecompressStream 00000001800d4114     decode.obj
 0004:00000120       $pdata$1$BrotliDecoderDecompressStream 00000001800d4120     decode.obj
 0004:0000012c       $pdata$2$BrotliDecoderDecompressStream 00000001800d412c     decode.obj
 0004:00000138       $pdata$BrotliBuildCodeLengthsHuffmanTable 00000001800d4138     huffman.obj
 0004:00000144       $pdata$2$BrotliBuildCodeLengthsHuffmanTable 00000001800d4144     huffman.obj
 0004:00000150       $pdata$3$BrotliBuildCodeLengthsHuffmanTable 00000001800d4150     huffman.obj
 0004:0000015c       $pdata$BrotliBuildHuffmanTable 00000001800d415c     huffman.obj
 0004:00000168       $pdata$BrotliBuildSimpleHuffmanTable 00000001800d4168     huffman.obj
 0004:00000174       $pdata$0$BrotliBuildSimpleHuffmanTable 00000001800d4174     huffman.obj
 0004:00000180       $pdata$1$BrotliBuildSimpleHuffmanTable 00000001800d4180     huffman.obj
 0004:0000018c       $pdata$BrotliDecoderStateCleanupAfterMetablock 00000001800d418c     state.obj
 0004:00000198       $pdata$CreateBackwardReferencesH2 00000001800d4198     backward_references.obj
 0004:000001a4       $pdata$2$CreateBackwardReferencesH2 00000001800d41a4     backward_references.obj
 0004:000001b0       $pdata$3$CreateBackwardReferencesH2 00000001800d41b0     backward_references.obj
 0004:000001bc       $pdata$CreateBackwardReferencesH3 00000001800d41bc     backward_references.obj
 0004:000001c8       $pdata$3$CreateBackwardReferencesH3 00000001800d41c8     backward_references.obj
 0004:000001d4       $pdata$4$CreateBackwardReferencesH3 00000001800d41d4     backward_references.obj
 0004:000001e0       $pdata$CreateBackwardReferencesH4 00000001800d41e0     backward_references.obj
 0004:000001ec       $pdata$3$CreateBackwardReferencesH4 00000001800d41ec     backward_references.obj
 0004:000001f8       $pdata$4$CreateBackwardReferencesH4 00000001800d41f8     backward_references.obj
 0004:00000204       $pdata$CreateBackwardReferencesH5 00000001800d4204     backward_references.obj
 0004:00000210       $pdata$2$CreateBackwardReferencesH5 00000001800d4210     backward_references.obj
 0004:0000021c       $pdata$3$CreateBackwardReferencesH5 00000001800d421c     backward_references.obj
 0004:00000228       $pdata$4$CreateBackwardReferencesH5 00000001800d4228     backward_references.obj
 0004:00000234       $pdata$CreateBackwardReferencesH6 00000001800d4234     backward_references.obj
 0004:00000240       $pdata$2$CreateBackwardReferencesH6 00000001800d4240     backward_references.obj
 0004:0000024c       $pdata$3$CreateBackwardReferencesH6 00000001800d424c     backward_references.obj
 0004:00000258       $pdata$4$CreateBackwardReferencesH6 00000001800d4258     backward_references.obj
 0004:00000264       $pdata$CreateBackwardReferencesH40 00000001800d4264     backward_references.obj
 0004:00000270       $pdata$3$CreateBackwardReferencesH40 00000001800d4270     backward_references.obj
 0004:0000027c       $pdata$4$CreateBackwardReferencesH40 00000001800d427c     backward_references.obj
 0004:00000288       $pdata$5$CreateBackwardReferencesH40 00000001800d4288     backward_references.obj
 0004:00000294       $pdata$CreateBackwardReferencesH41 00000001800d4294     backward_references.obj
 0004:000002a0       $pdata$4$CreateBackwardReferencesH41 00000001800d42a0     backward_references.obj
 0004:000002ac       $pdata$5$CreateBackwardReferencesH41 00000001800d42ac     backward_references.obj
 0004:000002b8       $pdata$6$CreateBackwardReferencesH41 00000001800d42b8     backward_references.obj
 0004:000002c4       $pdata$CreateBackwardReferencesH42 00000001800d42c4     backward_references.obj
 0004:000002d0       $pdata$3$CreateBackwardReferencesH42 00000001800d42d0     backward_references.obj
 0004:000002dc       $pdata$4$CreateBackwardReferencesH42 00000001800d42dc     backward_references.obj
 0004:000002e8       $pdata$5$CreateBackwardReferencesH42 00000001800d42e8     backward_references.obj
 0004:000002f4       $pdata$CreateBackwardReferencesH54 00000001800d42f4     backward_references.obj
 0004:00000300       $pdata$4$CreateBackwardReferencesH54 00000001800d4300     backward_references.obj
 0004:0000030c       $pdata$5$CreateBackwardReferencesH54 00000001800d430c     backward_references.obj
 0004:00000318       $pdata$BrotliCreateBackwardReferences 00000001800d4318     backward_references.obj
 0004:00000324       $pdata$0$BrotliCreateBackwardReferences 00000001800d4324     backward_references.obj
 0004:00000330       $pdata$1$BrotliCreateBackwardReferences 00000001800d4330     backward_references.obj
 0004:0000033c       $pdata$SetCost             00000001800d433c     backward_references_hq.obj
 0004:00000348       $pdata$1$SetCost           00000001800d4348     backward_references_hq.obj
 0004:00000354       $pdata$2$SetCost           00000001800d4354     backward_references_hq.obj
 0004:00000360       $pdata$ZopfliCostModelSetFromCommands 00000001800d4360     backward_references_hq.obj
 0004:0000036c       $pdata$ZopfliCostModelSetFromLiteralCosts 00000001800d436c     backward_references_hq.obj
 0004:00000378       $pdata$StartPosQueuePush   00000001800d4378     backward_references_hq.obj
 0004:00000384       $pdata$EvaluateNode        00000001800d4384     backward_references_hq.obj
 0004:00000390       $pdata$UpdateNodes         00000001800d4390     backward_references_hq.obj
 0004:0000039c       $pdata$BrotliZopfliCreateCommands 00000001800d439c     backward_references_hq.obj
 0004:000003a8       $pdata$4$BrotliZopfliCreateCommands 00000001800d43a8     backward_references_hq.obj
 0004:000003b4       $pdata$5$BrotliZopfliCreateCommands 00000001800d43b4     backward_references_hq.obj
 0004:000003c0       $pdata$ZopfliIterate       00000001800d43c0     backward_references_hq.obj
 0004:000003cc       $pdata$2$ZopfliIterate     00000001800d43cc     backward_references_hq.obj
 0004:000003d8       $pdata$4$ZopfliIterate     00000001800d43d8     backward_references_hq.obj
 0004:000003e4       $pdata$5$ZopfliIterate     00000001800d43e4     backward_references_hq.obj
 0004:000003f0       $pdata$6$ZopfliIterate     00000001800d43f0     backward_references_hq.obj
 0004:000003fc       $pdata$BrotliZopfliComputeShortestPath 00000001800d43fc     backward_references_hq.obj
 0004:00000408       $pdata$1$BrotliZopfliComputeShortestPath 00000001800d4408     backward_references_hq.obj
 0004:00000414       $pdata$2$BrotliZopfliComputeShortestPath 00000001800d4414     backward_references_hq.obj
 0004:00000420       $pdata$3$BrotliZopfliComputeShortestPath 00000001800d4420     backward_references_hq.obj
 0004:0000042c       $pdata$4$BrotliZopfliComputeShortestPath 00000001800d442c     backward_references_hq.obj
 0004:00000438       $pdata$BrotliCreateZopfliBackwardReferences 00000001800d4438     backward_references_hq.obj
 0004:00000444       $pdata$BrotliCreateHqZopfliBackwardReferences 00000001800d4444     backward_references_hq.obj
 0004:00000450       $pdata$0$BrotliCreateHqZopfliBackwardReferences 00000001800d4450     backward_references_hq.obj
 0004:0000045c       $pdata$1$BrotliCreateHqZopfliBackwardReferences 00000001800d445c     backward_references_hq.obj
 0004:00000468       $pdata$BrotliPopulationCostLiteral 00000001800d4468     bit_cost.obj
 0004:00000474       $pdata$0$BrotliPopulationCostLiteral 00000001800d4474     bit_cost.obj
 0004:00000480       $pdata$1$BrotliPopulationCostLiteral 00000001800d4480     bit_cost.obj
 0004:0000048c       $pdata$2$BrotliPopulationCostLiteral 00000001800d448c     bit_cost.obj
 0004:00000498       $pdata$3$BrotliPopulationCostLiteral 00000001800d4498     bit_cost.obj
 0004:000004a4       $pdata$11$BrotliPopulationCostLiteral 00000001800d44a4     bit_cost.obj
 0004:000004b0       $pdata$12$BrotliPopulationCostLiteral 00000001800d44b0     bit_cost.obj
 0004:000004bc       $pdata$13$BrotliPopulationCostLiteral 00000001800d44bc     bit_cost.obj
 0004:000004c8       $pdata$15$BrotliPopulationCostLiteral 00000001800d44c8     bit_cost.obj
 0004:000004d4       $pdata$BrotliPopulationCostCommand 00000001800d44d4     bit_cost.obj
 0004:000004e0       $pdata$0$BrotliPopulationCostCommand 00000001800d44e0     bit_cost.obj
 0004:000004ec       $pdata$1$BrotliPopulationCostCommand 00000001800d44ec     bit_cost.obj
 0004:000004f8       $pdata$2$BrotliPopulationCostCommand 00000001800d44f8     bit_cost.obj
 0004:00000504       $pdata$3$BrotliPopulationCostCommand 00000001800d4504     bit_cost.obj
 0004:00000510       $pdata$11$BrotliPopulationCostCommand 00000001800d4510     bit_cost.obj
 0004:0000051c       $pdata$12$BrotliPopulationCostCommand 00000001800d451c     bit_cost.obj
 0004:00000528       $pdata$13$BrotliPopulationCostCommand 00000001800d4528     bit_cost.obj
 0004:00000534       $pdata$15$BrotliPopulationCostCommand 00000001800d4534     bit_cost.obj
 0004:00000540       $pdata$BrotliPopulationCostDistance 00000001800d4540     bit_cost.obj
 0004:0000054c       $pdata$0$BrotliPopulationCostDistance 00000001800d454c     bit_cost.obj
 0004:00000558       $pdata$1$BrotliPopulationCostDistance 00000001800d4558     bit_cost.obj
 0004:00000564       $pdata$2$BrotliPopulationCostDistance 00000001800d4564     bit_cost.obj
 0004:00000570       $pdata$3$BrotliPopulationCostDistance 00000001800d4570     bit_cost.obj
 0004:0000057c       $pdata$11$BrotliPopulationCostDistance 00000001800d457c     bit_cost.obj
 0004:00000588       $pdata$12$BrotliPopulationCostDistance 00000001800d4588     bit_cost.obj
 0004:00000594       $pdata$13$BrotliPopulationCostDistance 00000001800d4594     bit_cost.obj
 0004:000005a0       $pdata$15$BrotliPopulationCostDistance 00000001800d45a0     bit_cost.obj
 0004:000005ac       $pdata$InitialEntropyCodesLiteral 00000001800d45ac     block_splitter.obj
 0004:000005b8       $pdata$1$InitialEntropyCodesLiteral 00000001800d45b8     block_splitter.obj
 0004:000005c4       $pdata$2$InitialEntropyCodesLiteral 00000001800d45c4     block_splitter.obj
 0004:000005d0       $pdata$RefineEntropyCodesLiteral 00000001800d45d0     block_splitter.obj
 0004:000005dc       $pdata$1$RefineEntropyCodesLiteral 00000001800d45dc     block_splitter.obj
 0004:000005e8       $pdata$2$RefineEntropyCodesLiteral 00000001800d45e8     block_splitter.obj
 0004:000005f4       $pdata$FindBlocksLiteral   00000001800d45f4     block_splitter.obj
 0004:00000600       $pdata$6$FindBlocksLiteral 00000001800d4600     block_splitter.obj
 0004:0000060c       $pdata$8$FindBlocksLiteral 00000001800d460c     block_splitter.obj
 0004:00000618       $pdata$13$FindBlocksLiteral 00000001800d4618     block_splitter.obj
 0004:00000624       $pdata$14$FindBlocksLiteral 00000001800d4624     block_splitter.obj
 0004:00000630       $pdata$15$FindBlocksLiteral 00000001800d4630     block_splitter.obj
 0004:0000063c       $pdata$16$FindBlocksLiteral 00000001800d463c     block_splitter.obj
 0004:00000648       $pdata$ClusterBlocksLiteral 00000001800d4648     block_splitter.obj
 0004:00000654       $pdata$1$ClusterBlocksLiteral 00000001800d4654     block_splitter.obj
 0004:00000660       $pdata$2$ClusterBlocksLiteral 00000001800d4660     block_splitter.obj
 0004:0000066c       $pdata$SplitByteVectorLiteral 00000001800d466c     block_splitter.obj
 0004:00000678       $pdata$3$SplitByteVectorLiteral 00000001800d4678     block_splitter.obj
 0004:00000684       $pdata$5$SplitByteVectorLiteral 00000001800d4684     block_splitter.obj
 0004:00000690       $pdata$6$SplitByteVectorLiteral 00000001800d4690     block_splitter.obj
 0004:0000069c       $pdata$7$SplitByteVectorLiteral 00000001800d469c     block_splitter.obj
 0004:000006a8       $pdata$InitialEntropyCodesCommand 00000001800d46a8     block_splitter.obj
 0004:000006b4       $pdata$1$InitialEntropyCodesCommand 00000001800d46b4     block_splitter.obj
 0004:000006c0       $pdata$2$InitialEntropyCodesCommand 00000001800d46c0     block_splitter.obj
 0004:000006cc       $pdata$RefineEntropyCodesCommand 00000001800d46cc     block_splitter.obj
 0004:000006d8       $pdata$1$RefineEntropyCodesCommand 00000001800d46d8     block_splitter.obj
 0004:000006e4       $pdata$2$RefineEntropyCodesCommand 00000001800d46e4     block_splitter.obj
 0004:000006f0       $pdata$FindBlocksCommand   00000001800d46f0     block_splitter.obj
 0004:000006fc       $pdata$6$FindBlocksCommand 00000001800d46fc     block_splitter.obj
 0004:00000708       $pdata$8$FindBlocksCommand 00000001800d4708     block_splitter.obj
 0004:00000714       $pdata$13$FindBlocksCommand 00000001800d4714     block_splitter.obj
 0004:00000720       $pdata$14$FindBlocksCommand 00000001800d4720     block_splitter.obj
 0004:0000072c       $pdata$15$FindBlocksCommand 00000001800d472c     block_splitter.obj
 0004:00000738       $pdata$16$FindBlocksCommand 00000001800d4738     block_splitter.obj
 0004:00000744       $pdata$ClusterBlocksCommand 00000001800d4744     block_splitter.obj
 0004:00000750       $pdata$1$ClusterBlocksCommand 00000001800d4750     block_splitter.obj
 0004:0000075c       $pdata$2$ClusterBlocksCommand 00000001800d475c     block_splitter.obj
 0004:00000768       $pdata$SplitByteVectorCommand 00000001800d4768     block_splitter.obj
 0004:00000774       $pdata$3$SplitByteVectorCommand 00000001800d4774     block_splitter.obj
 0004:00000780       $pdata$5$SplitByteVectorCommand 00000001800d4780     block_splitter.obj
 0004:0000078c       $pdata$6$SplitByteVectorCommand 00000001800d478c     block_splitter.obj
 0004:00000798       $pdata$7$SplitByteVectorCommand 00000001800d4798     block_splitter.obj
 0004:000007a4       $pdata$InitialEntropyCodesDistance 00000001800d47a4     block_splitter.obj
 0004:000007b0       $pdata$1$InitialEntropyCodesDistance 00000001800d47b0     block_splitter.obj
 0004:000007bc       $pdata$2$InitialEntropyCodesDistance 00000001800d47bc     block_splitter.obj
 0004:000007c8       $pdata$RefineEntropyCodesDistance 00000001800d47c8     block_splitter.obj
 0004:000007d4       $pdata$1$RefineEntropyCodesDistance 00000001800d47d4     block_splitter.obj
 0004:000007e0       $pdata$2$RefineEntropyCodesDistance 00000001800d47e0     block_splitter.obj
 0004:000007ec       $pdata$FindBlocksDistance  00000001800d47ec     block_splitter.obj
 0004:000007f8       $pdata$6$FindBlocksDistance 00000001800d47f8     block_splitter.obj
 0004:00000804       $pdata$8$FindBlocksDistance 00000001800d4804     block_splitter.obj
 0004:00000810       $pdata$13$FindBlocksDistance 00000001800d4810     block_splitter.obj
 0004:0000081c       $pdata$14$FindBlocksDistance 00000001800d481c     block_splitter.obj
 0004:00000828       $pdata$15$FindBlocksDistance 00000001800d4828     block_splitter.obj
 0004:00000834       $pdata$16$FindBlocksDistance 00000001800d4834     block_splitter.obj
 0004:00000840       $pdata$ClusterBlocksDistance 00000001800d4840     block_splitter.obj
 0004:0000084c       $pdata$1$ClusterBlocksDistance 00000001800d484c     block_splitter.obj
 0004:00000858       $pdata$2$ClusterBlocksDistance 00000001800d4858     block_splitter.obj
 0004:00000864       $pdata$SplitByteVectorDistance 00000001800d4864     block_splitter.obj
 0004:00000870       $pdata$3$SplitByteVectorDistance 00000001800d4870     block_splitter.obj
 0004:0000087c       $pdata$5$SplitByteVectorDistance 00000001800d487c     block_splitter.obj
 0004:00000888       $pdata$6$SplitByteVectorDistance 00000001800d4888     block_splitter.obj
 0004:00000894       $pdata$7$SplitByteVectorDistance 00000001800d4894     block_splitter.obj
 0004:000008a0       $pdata$BrotliSplitBlock    00000001800d48a0     block_splitter.obj
 0004:000008ac       $pdata$2$BrotliSplitBlock  00000001800d48ac     block_splitter.obj
 0004:000008b8       $pdata$3$BrotliSplitBlock  00000001800d48b8     block_splitter.obj
 0004:000008c4       $pdata$StoreVarLenUint8    00000001800d48c4     brotli_bit_stream.obj
 0004:000008d0       $pdata$2$StoreVarLenUint8  00000001800d48d0     brotli_bit_stream.obj
 0004:000008dc       $pdata$3$StoreVarLenUint8  00000001800d48dc     brotli_bit_stream.obj
 0004:000008e8       $pdata$StoreCompressedMetaBlockHeader 00000001800d48e8     brotli_bit_stream.obj
 0004:000008f4       $pdata$BrotliStoreUncompressedMetaBlockHeader 00000001800d48f4     brotli_bit_stream.obj
 0004:00000900       $pdata$BrotliStoreHuffmanTreeOfHuffmanTreeToBitMask 00000001800d4900     brotli_bit_stream.obj
 0004:0000090c       $pdata$2$BrotliStoreHuffmanTreeOfHuffmanTreeToBitMask 00000001800d490c     brotli_bit_stream.obj
 0004:00000918       $pdata$3$BrotliStoreHuffmanTreeOfHuffmanTreeToBitMask 00000001800d4918     brotli_bit_stream.obj
 0004:00000924       $pdata$StoreSimpleHuffmanTree 00000001800d4924     brotli_bit_stream.obj
 0004:00000930       $pdata$BrotliStoreHuffmanTree 00000001800d4930     brotli_bit_stream.obj
 0004:0000093c       $pdata$BuildAndStoreHuffmanTree 00000001800d493c     brotli_bit_stream.obj
 0004:00000948       $pdata$BrotliBuildAndStoreHuffmanTreeFast 00000001800d4948     brotli_bit_stream.obj
 0004:00000954       $pdata$RunLengthCodeZeros  00000001800d4954     brotli_bit_stream.obj
 0004:00000960       $pdata$EncodeContextMap    00000001800d4960     brotli_bit_stream.obj
 0004:0000096c       $pdata$0$EncodeContextMap  00000001800d496c     brotli_bit_stream.obj
 0004:00000978       $pdata$1$EncodeContextMap  00000001800d4978     brotli_bit_stream.obj
 0004:00000984       $pdata$2$EncodeContextMap  00000001800d4984     brotli_bit_stream.obj
 0004:00000990       $pdata$BuildAndStoreBlockSplitCode 00000001800d4990     brotli_bit_stream.obj
 0004:0000099c       $pdata$StoreTrivialContextMap 00000001800d499c     brotli_bit_stream.obj
 0004:000009a8       $pdata$2$StoreTrivialContextMap 00000001800d49a8     brotli_bit_stream.obj
 0004:000009b4       $pdata$3$StoreTrivialContextMap 00000001800d49b4     brotli_bit_stream.obj
 0004:000009c0       $pdata$StoreSymbol         00000001800d49c0     brotli_bit_stream.obj
 0004:000009cc       $pdata$0$StoreSymbol       00000001800d49cc     brotli_bit_stream.obj
 0004:000009d8       $pdata$2$StoreSymbol       00000001800d49d8     brotli_bit_stream.obj
 0004:000009e4       $pdata$3$StoreSymbol       00000001800d49e4     brotli_bit_stream.obj
 0004:000009f0       $pdata$4$StoreSymbol       00000001800d49f0     brotli_bit_stream.obj
 0004:000009fc       $pdata$5$StoreSymbol       00000001800d49fc     brotli_bit_stream.obj
 0004:00000a08       $pdata$StoreSymbolWithContext 00000001800d4a08     brotli_bit_stream.obj
 0004:00000a14       $pdata$0$StoreSymbolWithContext 00000001800d4a14     brotli_bit_stream.obj
 0004:00000a20       $pdata$2$StoreSymbolWithContext 00000001800d4a20     brotli_bit_stream.obj
 0004:00000a2c       $pdata$3$StoreSymbolWithContext 00000001800d4a2c     brotli_bit_stream.obj
 0004:00000a38       $pdata$4$StoreSymbolWithContext 00000001800d4a38     brotli_bit_stream.obj
 0004:00000a44       $pdata$5$StoreSymbolWithContext 00000001800d4a44     brotli_bit_stream.obj
 0004:00000a50       $pdata$BrotliStoreMetaBlock 00000001800d4a50     brotli_bit_stream.obj
 0004:00000a5c       $pdata$StoreDataWithHuffmanCodes 00000001800d4a5c     brotli_bit_stream.obj
 0004:00000a68       $pdata$6$StoreDataWithHuffmanCodes 00000001800d4a68     brotli_bit_stream.obj
 0004:00000a74       $pdata$7$StoreDataWithHuffmanCodes 00000001800d4a74     brotli_bit_stream.obj
 0004:00000a80       $pdata$BrotliStoreMetaBlockTrivial 00000001800d4a80     brotli_bit_stream.obj
 0004:00000a8c       $pdata$BrotliStoreMetaBlockFast 00000001800d4a8c     brotli_bit_stream.obj
 0004:00000a98       $pdata$4$BrotliStoreMetaBlockFast 00000001800d4a98     brotli_bit_stream.obj
 0004:00000aa4       $pdata$5$BrotliStoreMetaBlockFast 00000001800d4aa4     brotli_bit_stream.obj
 0004:00000ab0       $pdata$6$BrotliStoreMetaBlockFast 00000001800d4ab0     brotli_bit_stream.obj
 0004:00000abc       $pdata$7$BrotliStoreMetaBlockFast 00000001800d4abc     brotli_bit_stream.obj
 0004:00000ac8       $pdata$BrotliStoreUncompressedMetaBlock 00000001800d4ac8     brotli_bit_stream.obj
 0004:00000ad4       $pdata$BrotliCompareAndPushToQueueLiteral 00000001800d4ad4     cluster.obj
 0004:00000ae0       $pdata$0$BrotliCompareAndPushToQueueLiteral 00000001800d4ae0     cluster.obj
 0004:00000aec       $pdata$8$BrotliCompareAndPushToQueueLiteral 00000001800d4aec     cluster.obj
 0004:00000af8       $pdata$9$BrotliCompareAndPushToQueueLiteral 00000001800d4af8     cluster.obj
 0004:00000b04       $pdata$10$BrotliCompareAndPushToQueueLiteral 00000001800d4b04     cluster.obj
 0004:00000b10       $pdata$11$BrotliCompareAndPushToQueueLiteral 00000001800d4b10     cluster.obj
 0004:00000b1c       $pdata$BrotliHistogramCombineLiteral 00000001800d4b1c     cluster.obj
 0004:00000b28       $pdata$0$BrotliHistogramCombineLiteral 00000001800d4b28     cluster.obj
 0004:00000b34       $pdata$1$BrotliHistogramCombineLiteral 00000001800d4b34     cluster.obj
 0004:00000b40       $pdata$BrotliHistogramBitCostDistanceLiteral 00000001800d4b40     cluster.obj
 0004:00000b4c       $pdata$BrotliHistogramRemapLiteral 00000001800d4b4c     cluster.obj
 0004:00000b58       $pdata$4$BrotliHistogramRemapLiteral 00000001800d4b58     cluster.obj
 0004:00000b64       $pdata$5$BrotliHistogramRemapLiteral 00000001800d4b64     cluster.obj
 0004:00000b70       $pdata$6$BrotliHistogramRemapLiteral 00000001800d4b70     cluster.obj
 0004:00000b7c       $pdata$7$BrotliHistogramRemapLiteral 00000001800d4b7c     cluster.obj
 0004:00000b88       $pdata$BrotliHistogramReindexLiteral 00000001800d4b88     cluster.obj
 0004:00000b94       $pdata$BrotliClusterHistogramsLiteral 00000001800d4b94     cluster.obj
 0004:00000ba0       $pdata$BrotliCompareAndPushToQueueCommand 00000001800d4ba0     cluster.obj
 0004:00000bac       $pdata$4$BrotliCompareAndPushToQueueCommand 00000001800d4bac     cluster.obj
 0004:00000bb8       $pdata$8$BrotliCompareAndPushToQueueCommand 00000001800d4bb8     cluster.obj
 0004:00000bc4       $pdata$9$BrotliCompareAndPushToQueueCommand 00000001800d4bc4     cluster.obj
 0004:00000bd0       $pdata$10$BrotliCompareAndPushToQueueCommand 00000001800d4bd0     cluster.obj
 0004:00000bdc       $pdata$BrotliHistogramCombineCommand 00000001800d4bdc     cluster.obj
 0004:00000be8       $pdata$0$BrotliHistogramCombineCommand 00000001800d4be8     cluster.obj
 0004:00000bf4       $pdata$1$BrotliHistogramCombineCommand 00000001800d4bf4     cluster.obj
 0004:00000c00       $pdata$BrotliHistogramBitCostDistanceCommand 00000001800d4c00     cluster.obj
 0004:00000c0c       $pdata$BrotliCompareAndPushToQueueDistance 00000001800d4c0c     cluster.obj
 0004:00000c18       $pdata$1$BrotliCompareAndPushToQueueDistance 00000001800d4c18     cluster.obj
 0004:00000c24       $pdata$8$BrotliCompareAndPushToQueueDistance 00000001800d4c24     cluster.obj
 0004:00000c30       $pdata$9$BrotliCompareAndPushToQueueDistance 00000001800d4c30     cluster.obj
 0004:00000c3c       $pdata$10$BrotliCompareAndPushToQueueDistance 00000001800d4c3c     cluster.obj
 0004:00000c48       $pdata$11$BrotliCompareAndPushToQueueDistance 00000001800d4c48     cluster.obj
 0004:00000c54       $pdata$BrotliHistogramCombineDistance 00000001800d4c54     cluster.obj
 0004:00000c60       $pdata$0$BrotliHistogramCombineDistance 00000001800d4c60     cluster.obj
 0004:00000c6c       $pdata$1$BrotliHistogramCombineDistance 00000001800d4c6c     cluster.obj
 0004:00000c78       $pdata$BrotliHistogramBitCostDistanceDistance 00000001800d4c78     cluster.obj
 0004:00000c84       $pdata$BrotliHistogramRemapDistance 00000001800d4c84     cluster.obj
 0004:00000c90       $pdata$4$BrotliHistogramRemapDistance 00000001800d4c90     cluster.obj
 0004:00000c9c       $pdata$5$BrotliHistogramRemapDistance 00000001800d4c9c     cluster.obj
 0004:00000ca8       $pdata$6$BrotliHistogramRemapDistance 00000001800d4ca8     cluster.obj
 0004:00000cb4       $pdata$7$BrotliHistogramRemapDistance 00000001800d4cb4     cluster.obj
 0004:00000cc0       $pdata$BrotliHistogramReindexDistance 00000001800d4cc0     cluster.obj
 0004:00000ccc       $pdata$BrotliClusterHistogramsDistance 00000001800d4ccc     cluster.obj
 0004:00000cd8       $pdata$BuildAndStoreLiteralPrefixCode 00000001800d4cd8     compress_fragment.obj
 0004:00000ce4       $pdata$4$BuildAndStoreLiteralPrefixCode 00000001800d4ce4     compress_fragment.obj
 0004:00000cf0       $pdata$5$BuildAndStoreLiteralPrefixCode 00000001800d4cf0     compress_fragment.obj
 0004:00000cfc       $pdata$6$BuildAndStoreLiteralPrefixCode 00000001800d4cfc     compress_fragment.obj
 0004:00000d08       $pdata$7$BuildAndStoreLiteralPrefixCode 00000001800d4d08     compress_fragment.obj
 0004:00000d14       $pdata$BuildAndStoreCommandPrefixCode 00000001800d4d14     compress_fragment.obj
 0004:00000d20       $pdata$BrotliStoreMetaBlockHeader 00000001800d4d20     compress_fragment_two_pass.obj
 0004:00000d20       $pdata$BrotliStoreMetaBlockHeader 00000001800d4d20     compress_fragment.obj
 0004:00000d2c       $pdata$UpdateBits          00000001800d4d2c     compress_fragment.obj
 0004:00000d38       $pdata$ShouldMergeBlock    00000001800d4d38     compress_fragment.obj
 0004:00000d44       $pdata$EmitUncompressedMetaBlock 00000001800d4d44     compress_fragment.obj
 0004:00000d50       $pdata$BrotliCompressFragmentFastImpl9 00000001800d4d50     compress_fragment.obj
 0004:00000d5c       $pdata$BrotliCompressFragmentFastImpl11 00000001800d4d5c     compress_fragment.obj
 0004:00000d68       $pdata$BrotliCompressFragmentFastImpl13 00000001800d4d68     compress_fragment.obj
 0004:00000d74       $pdata$BrotliCompressFragmentFastImpl15 00000001800d4d74     compress_fragment.obj
 0004:00000d80       $pdata$BrotliCompressFragmentFast 00000001800d4d80     compress_fragment.obj
 0004:00000d8c       $pdata$0$BrotliCompressFragmentFast 00000001800d4d8c     compress_fragment.obj
 0004:00000d98       $pdata$1$BrotliCompressFragmentFast 00000001800d4d98     compress_fragment.obj
 0004:00000da4       $pdata$BuildAndStoreCommandPrefixCode 00000001800d4da4     compress_fragment_two_pass.obj
 0004:00000db0       $pdata$StoreCommands       00000001800d4db0     compress_fragment_two_pass.obj
 0004:00000dbc       $pdata$ShouldCompress      00000001800d4dbc     compress_fragment_two_pass.obj
 0004:00000dc8       $pdata$2$ShouldCompress    00000001800d4dc8     compress_fragment_two_pass.obj
 0004:00000dd4       $pdata$3$ShouldCompress    00000001800d4dd4     compress_fragment_two_pass.obj
 0004:00000de0       $pdata$BrotliCompressFragmentTwoPassImpl8 00000001800d4de0     compress_fragment_two_pass.obj
 0004:00000dec       $pdata$6$BrotliCompressFragmentTwoPassImpl8 00000001800d4dec     compress_fragment_two_pass.obj
 0004:00000df8       $pdata$7$BrotliCompressFragmentTwoPassImpl8 00000001800d4df8     compress_fragment_two_pass.obj
 0004:00000e04       $pdata$BrotliCompressFragmentTwoPassImpl9 00000001800d4e04     compress_fragment_two_pass.obj
 0004:00000e10       $pdata$6$BrotliCompressFragmentTwoPassImpl9 00000001800d4e10     compress_fragment_two_pass.obj
 0004:00000e1c       $pdata$7$BrotliCompressFragmentTwoPassImpl9 00000001800d4e1c     compress_fragment_two_pass.obj
 0004:00000e28       $pdata$BrotliCompressFragmentTwoPassImpl10 00000001800d4e28     compress_fragment_two_pass.obj
 0004:00000e34       $pdata$6$BrotliCompressFragmentTwoPassImpl10 00000001800d4e34     compress_fragment_two_pass.obj
 0004:00000e40       $pdata$7$BrotliCompressFragmentTwoPassImpl10 00000001800d4e40     compress_fragment_two_pass.obj
 0004:00000e4c       $pdata$BrotliCompressFragmentTwoPassImpl11 00000001800d4e4c     compress_fragment_two_pass.obj
 0004:00000e58       $pdata$6$BrotliCompressFragmentTwoPassImpl11 00000001800d4e58     compress_fragment_two_pass.obj
 0004:00000e64       $pdata$7$BrotliCompressFragmentTwoPassImpl11 00000001800d4e64     compress_fragment_two_pass.obj
 0004:00000e70       $pdata$BrotliCompressFragmentTwoPassImpl12 00000001800d4e70     compress_fragment_two_pass.obj
 0004:00000e7c       $pdata$6$BrotliCompressFragmentTwoPassImpl12 00000001800d4e7c     compress_fragment_two_pass.obj
 0004:00000e88       $pdata$7$BrotliCompressFragmentTwoPassImpl12 00000001800d4e88     compress_fragment_two_pass.obj
 0004:00000e94       $pdata$BrotliCompressFragmentTwoPassImpl13 00000001800d4e94     compress_fragment_two_pass.obj
 0004:00000ea0       $pdata$6$BrotliCompressFragmentTwoPassImpl13 00000001800d4ea0     compress_fragment_two_pass.obj
 0004:00000eac       $pdata$7$BrotliCompressFragmentTwoPassImpl13 00000001800d4eac     compress_fragment_two_pass.obj
 0004:00000eb8       $pdata$BrotliCompressFragmentTwoPassImpl14 00000001800d4eb8     compress_fragment_two_pass.obj
 0004:00000ec4       $pdata$6$BrotliCompressFragmentTwoPassImpl14 00000001800d4ec4     compress_fragment_two_pass.obj
 0004:00000ed0       $pdata$7$BrotliCompressFragmentTwoPassImpl14 00000001800d4ed0     compress_fragment_two_pass.obj
 0004:00000edc       $pdata$BrotliCompressFragmentTwoPassImpl15 00000001800d4edc     compress_fragment_two_pass.obj
 0004:00000ee8       $pdata$6$BrotliCompressFragmentTwoPassImpl15 00000001800d4ee8     compress_fragment_two_pass.obj
 0004:00000ef4       $pdata$7$BrotliCompressFragmentTwoPassImpl15 00000001800d4ef4     compress_fragment_two_pass.obj
 0004:00000f00       $pdata$BrotliCompressFragmentTwoPassImpl16 00000001800d4f00     compress_fragment_two_pass.obj
 0004:00000f0c       $pdata$6$BrotliCompressFragmentTwoPassImpl16 00000001800d4f0c     compress_fragment_two_pass.obj
 0004:00000f18       $pdata$7$BrotliCompressFragmentTwoPassImpl16 00000001800d4f18     compress_fragment_two_pass.obj
 0004:00000f24       $pdata$BrotliCompressFragmentTwoPassImpl17 00000001800d4f24     compress_fragment_two_pass.obj
 0004:00000f30       $pdata$6$BrotliCompressFragmentTwoPassImpl17 00000001800d4f30     compress_fragment_two_pass.obj
 0004:00000f3c       $pdata$7$BrotliCompressFragmentTwoPassImpl17 00000001800d4f3c     compress_fragment_two_pass.obj
 0004:00000f48       $pdata$BrotliCompressFragmentTwoPass 00000001800d4f48     compress_fragment_two_pass.obj
 0004:00000f54       $pdata$PrepareH10          00000001800d4f54     encode.obj
 0004:00000f60       $pdata$PrepareH5           00000001800d4f60     encode.obj
 0004:00000f6c       $pdata$0$PrepareH5         00000001800d4f6c     encode.obj
 0004:00000f78       $pdata$1$PrepareH5         00000001800d4f78     encode.obj
 0004:00000f84       $pdata$PrepareH6           00000001800d4f84     encode.obj
 0004:00000f90       $pdata$0$PrepareH6         00000001800d4f90     encode.obj
 0004:00000f9c       $pdata$1$PrepareH6         00000001800d4f9c     encode.obj
 0004:00000fa8       $pdata$2$PrepareH6         00000001800d4fa8     encode.obj
 0004:00000fb4       $pdata$3$PrepareH6         00000001800d4fb4     encode.obj
 0004:00000fc0       $pdata$PrepareH41          00000001800d4fc0     encode.obj
 0004:00000fc0       $pdata$PrepareH40          00000001800d4fc0     encode.obj
 0004:00000fcc       $pdata$PrepareH42          00000001800d4fcc     encode.obj
 0004:00000fd8       $pdata$GetBrotliStorage    00000001800d4fd8     encode.obj
 0004:00000fe4       $pdata$GetHashTable        00000001800d4fe4     encode.obj
 0004:00000ff0       $pdata$ChooseContextMap    00000001800d4ff0     encode.obj
 0004:00000ffc       $pdata$ShouldUseComplexStaticContextMap 00000001800d4ffc     encode.obj
 0004:00001008       $pdata$7$ShouldUseComplexStaticContextMap 00000001800d5008     encode.obj
 0004:00001014       $pdata$8$ShouldUseComplexStaticContextMap 00000001800d5014     encode.obj
 0004:00001020       $pdata$ShouldCompress      00000001800d5020     encode.obj
 0004:0000102c       $pdata$1$ShouldCompress    00000001800d502c     encode.obj
 0004:00001038       $pdata$2$ShouldCompress    00000001800d5038     encode.obj
 0004:00001044       $pdata$WriteMetaBlockInternal 00000001800d5044     encode.obj
 0004:00001050       $pdata$BrotliEncoderCreateInstance 00000001800d5050     encode.obj
 0004:0000105c       $pdata$BrotliEncoderDestroyInstance 00000001800d505c     encode.obj
 0004:00001068       $pdata$2$BrotliEncoderDestroyInstance 00000001800d5068     encode.obj
 0004:00001074       $pdata$3$BrotliEncoderDestroyInstance 00000001800d5074     encode.obj
 0004:00001080       $pdata$CopyInputToRingBuffer 00000001800d5080     encode.obj
 0004:0000108c       $pdata$1$CopyInputToRingBuffer 00000001800d508c     encode.obj
 0004:00001098       $pdata$2$CopyInputToRingBuffer 00000001800d5098     encode.obj
 0004:000010a4       $pdata$3$CopyInputToRingBuffer 00000001800d50a4     encode.obj
 0004:000010b0       $pdata$BrotliEncoderSetCustomDictionary 00000001800d50b0     encode.obj
 0004:000010bc       $pdata$2$BrotliEncoderSetCustomDictionary 00000001800d50bc     encode.obj
 0004:000010c8       $pdata$3$BrotliEncoderSetCustomDictionary 00000001800d50c8     encode.obj
 0004:000010d4       $pdata$4$BrotliEncoderSetCustomDictionary 00000001800d50d4     encode.obj
 0004:000010e0       $pdata$5$BrotliEncoderSetCustomDictionary 00000001800d50e0     encode.obj
 0004:000010ec       $pdata$6$BrotliEncoderSetCustomDictionary 00000001800d50ec     encode.obj
 0004:000010f8       $pdata$EncodeData          00000001800d50f8     encode.obj
 0004:00001104       $pdata$2$EncodeData        00000001800d5104     encode.obj
 0004:00001110       $pdata$3$EncodeData        00000001800d5110     encode.obj
 0004:0000111c       $pdata$4$EncodeData        00000001800d511c     encode.obj
 0004:00001128       $pdata$5$EncodeData        00000001800d5128     encode.obj
 0004:00001134       $pdata$6$EncodeData        00000001800d5134     encode.obj
 0004:00001140       $pdata$WriteMetadataHeader 00000001800d5140     encode.obj
 0004:0000114c       $pdata$3$WriteMetadataHeader 00000001800d514c     encode.obj
 0004:00001158       $pdata$4$WriteMetadataHeader 00000001800d5158     encode.obj
 0004:00001164       $pdata$InjectFlushOrPushOutput 00000001800d5164     encode.obj
 0004:00001170       $pdata$1$InjectFlushOrPushOutput 00000001800d5170     encode.obj
 0004:0000117c       $pdata$2$InjectFlushOrPushOutput 00000001800d517c     encode.obj
 0004:00001188       $pdata$BrotliEncoderCompressStreamFast 00000001800d5188     encode.obj
 0004:00001194       $pdata$BrotliEncoderCompressStream 00000001800d5194     encode.obj
 0004:000011a0       $pdata$BrotliSetDepth      00000001800d51a0     entropy_encode.obj
 0004:000011ac       $pdata$BrotliCreateHuffmanTree 00000001800d51ac     entropy_encode.obj
 0004:000011b8       $pdata$BrotliOptimizeHuffmanCountsForRle 00000001800d51b8     entropy_encode.obj
 0004:000011c4       $pdata$0$BrotliOptimizeHuffmanCountsForRle 00000001800d51c4     entropy_encode.obj
 0004:000011d0       $pdata$1$BrotliOptimizeHuffmanCountsForRle 00000001800d51d0     entropy_encode.obj
 0004:000011dc       $pdata$BrotliWriteHuffmanTree 00000001800d51dc     entropy_encode.obj
 0004:000011e8       $pdata$2$BrotliWriteHuffmanTree 00000001800d51e8     entropy_encode.obj
 0004:000011f4       $pdata$3$BrotliWriteHuffmanTree 00000001800d51f4     entropy_encode.obj
 0004:00001200       $pdata$4$BrotliWriteHuffmanTree 00000001800d5200     entropy_encode.obj
 0004:0000120c       $pdata$BrotliConvertBitDepthsToSymbols 00000001800d520c     entropy_encode.obj
 0004:00001218       $pdata$0$BrotliConvertBitDepthsToSymbols 00000001800d5218     entropy_encode.obj
 0004:00001224       $pdata$1$BrotliConvertBitDepthsToSymbols 00000001800d5224     entropy_encode.obj
 0004:00001230       $pdata$BrotliBuildHistogramsWithContext 00000001800d5230     histogram.obj
 0004:0000123c       $pdata$2$BrotliBuildHistogramsWithContext 00000001800d523c     histogram.obj
 0004:00001248       $pdata$3$BrotliBuildHistogramsWithContext 00000001800d5248     histogram.obj
 0004:00001254       $pdata$EstimateBitCostsForLiteralsUTF8 00000001800d5254     literal_cost.obj
 0004:00001260       $pdata$7$EstimateBitCostsForLiteralsUTF8 00000001800d5260     literal_cost.obj
 0004:0000126c       $pdata$8$EstimateBitCostsForLiteralsUTF8 00000001800d526c     literal_cost.obj
 0004:00001278       $pdata$BrotliEstimateBitCostsForLiterals 00000001800d5278     literal_cost.obj
 0004:00001284       $pdata$0$BrotliEstimateBitCostsForLiterals 00000001800d5284     literal_cost.obj
 0004:00001290       $pdata$7$BrotliEstimateBitCostsForLiterals 00000001800d5290     literal_cost.obj
 0004:0000129c       $pdata$8$BrotliEstimateBitCostsForLiterals 00000001800d529c     literal_cost.obj
 0004:000012a8       $pdata$9$BrotliEstimateBitCostsForLiterals 00000001800d52a8     literal_cost.obj
 0004:000012b4       $pdata$BrotliBuildMetaBlock 00000001800d52b4     metablock.obj
 0004:000012c0       $pdata$InitBlockSplitterLiteral 00000001800d52c0     metablock.obj
 0004:000012cc       $pdata$BlockSplitterFinishBlockLiteral 00000001800d52cc     metablock.obj
 0004:000012d8       $pdata$8$BlockSplitterFinishBlockLiteral 00000001800d52d8     metablock.obj
 0004:000012e4       $pdata$9$BlockSplitterFinishBlockLiteral 00000001800d52e4     metablock.obj
 0004:000012f0       $pdata$10$BlockSplitterFinishBlockLiteral 00000001800d52f0     metablock.obj
 0004:000012fc       $pdata$11$BlockSplitterFinishBlockLiteral 00000001800d52fc     metablock.obj
 0004:00001308       $pdata$InitBlockSplitterCommand 00000001800d5308     metablock.obj
 0004:00001314       $pdata$BlockSplitterFinishBlockCommand 00000001800d5314     metablock.obj
 0004:00001320       $pdata$8$BlockSplitterFinishBlockCommand 00000001800d5320     metablock.obj
 0004:0000132c       $pdata$9$BlockSplitterFinishBlockCommand 00000001800d532c     metablock.obj
 0004:00001338       $pdata$10$BlockSplitterFinishBlockCommand 00000001800d5338     metablock.obj
 0004:00001344       $pdata$11$BlockSplitterFinishBlockCommand 00000001800d5344     metablock.obj
 0004:00001350       $pdata$InitBlockSplitterDistance 00000001800d5350     metablock.obj
 0004:0000135c       $pdata$BlockSplitterFinishBlockDistance 00000001800d535c     metablock.obj
 0004:00001368       $pdata$8$BlockSplitterFinishBlockDistance 00000001800d5368     metablock.obj
 0004:00001374       $pdata$9$BlockSplitterFinishBlockDistance 00000001800d5374     metablock.obj
 0004:00001380       $pdata$10$BlockSplitterFinishBlockDistance 00000001800d5380     metablock.obj
 0004:0000138c       $pdata$11$BlockSplitterFinishBlockDistance 00000001800d538c     metablock.obj
 0004:00001398       $pdata$InitContextBlockSplitter 00000001800d5398     metablock.obj
 0004:000013a4       $pdata$ContextBlockSplitterFinishBlock 00000001800d53a4     metablock.obj
 0004:000013b0       $pdata$MapStaticContexts   00000001800d53b0     metablock.obj
 0004:000013bc       $pdata$BrotliBuildMetaBlockGreedy 00000001800d53bc     metablock.obj
 0004:000013c8       $pdata$BrotliOptimizeHistograms 00000001800d53c8     metablock.obj
 0004:000013d4       $pdata$1$BrotliOptimizeHistograms 00000001800d53d4     metablock.obj
 0004:000013e0       $pdata$2$BrotliOptimizeHistograms 00000001800d53e0     metablock.obj
 0004:000013ec       $pdata$3$BrotliOptimizeHistograms 00000001800d53ec     metablock.obj
 0004:000013f8       $pdata$4$BrotliOptimizeHistograms 00000001800d53f8     metablock.obj
 0004:00001404       $pdata$BrotliFindAllStaticDictionaryMatches 00000001800d5404     static_dict.obj
 0004:00001410       $pdata$BrotliIsMostlyUTF8  00000001800d5410     utf8_util.obj
 0004:0000141c       $pdata$?AdjustExternalMemory@Nan@@YAHH@Z 00000001800d541c     allocator.obj
 0004:00001428       $pdata$?Alloc@Allocator@@SAPEAXPEAX_K@Z 00000001800d5428     allocator.obj
 0004:00001434       $pdata$?Free@Allocator@@SAXPEAX0@Z 00000001800d5434     allocator.obj
 0004:00001440       $pdata$0$?Free@Allocator@@SAXPEAX0@Z 00000001800d5440     allocator.obj
 0004:0000144c       $pdata$2$?Free@Allocator@@SAXPEAX0@Z 00000001800d544c     allocator.obj
 0004:00001458       $pdata$3$?Free@Allocator@@SAXPEAX0@Z 00000001800d5458     allocator.obj
 0004:00001464       $pdata$?NodeFree@Allocator@@SAXPEADPEAX@Z 00000001800d5464     stream_coder.obj
 0004:00001470       $pdata$0$?NodeFree@Allocator@@SAXPEADPEAX@Z 00000001800d5470     stream_coder.obj
 0004:0000147c       $pdata$2$?NodeFree@Allocator@@SAXPEADPEAX@Z 00000001800d547c     stream_coder.obj
 0004:00001488       $pdata$3$?NodeFree@Allocator@@SAXPEADPEAX@Z 00000001800d5488     stream_coder.obj
 0004:00001494       $pdata$??1ObjectWrap@Nan@@UEAA@XZ 00000001800d5494     stream_coder.obj
 0004:000014a0       $pdata$?Ref@ObjectWrap@Nan@@MEAAXXZ 00000001800d54a0     stream_coder.obj
 0004:000014ac       $pdata$?Unref@ObjectWrap@Nan@@MEAAXXZ 00000001800d54ac     stream_coder.obj
 0004:000014b8       $pdata$?WeakCallback@ObjectWrap@Nan@@CAXAEBV?$WeakCallbackInfo@VObjectWrap@Nan@@@v8@@@Z 00000001800d54b8     stream_coder.obj
 0004:000014c4       $pdata$??_GObjectWrap@Nan@@UEAAPEAXI@Z 00000001800d54c4     stream_coder.obj
 0004:000014d0       $pdata$??_GStreamCoder@@MEAAPEAXI@Z 00000001800d54d0     stream_coder.obj
 0004:000014dc       $pdata$??1StreamCoder@@MEAA@XZ 00000001800d54dc     stream_coder.obj
 0004:000014e8       $pdata$1$??1StreamCoder@@MEAA@XZ 00000001800d54e8     stream_coder.obj
 0004:000014f4       $pdata$3$??1StreamCoder@@MEAA@XZ 00000001800d54f4     stream_coder.obj
 0004:00001500       $pdata$4$??1StreamCoder@@MEAA@XZ 00000001800d5500     stream_coder.obj
 0004:0000150c       $pdata$5$??1StreamCoder@@MEAA@XZ 00000001800d550c     stream_coder.obj
 0004:00001518       $pdata$?PendingChunksAsArray@StreamCoder@@QEAA?AV?$Local@VArray@v8@@@v8@@XZ 00000001800d5518     stream_coder.obj
 0004:00001524       $pdata$2$?PendingChunksAsArray@StreamCoder@@QEAA?AV?$Local@VArray@v8@@@v8@@XZ 00000001800d5524     stream_coder.obj
 0004:00001530       $pdata$3$?PendingChunksAsArray@StreamCoder@@QEAA?AV?$Local@VArray@v8@@@v8@@XZ 00000001800d5530     stream_coder.obj
 0004:0000153c       $pdata$?FunctionCallbackWrapper@imp@Nan@@YAXAEBV?$FunctionCallbackInfo@VValue@v8@@@v8@@@Z 00000001800d553c     stream_decode.obj
 0004:00001548       $pdata$?New@?$Factory@VFunctionTemplate@v8@@@imp@Nan@@SA?AV?$Local@VFunctionTemplate@v8@@@v8@@P6AXAEBV?$FunctionCallbackInfo@VValue@v8@@@3@@ZV?$Local@VValue@v8@@@5@V?$Local@VSignature@v8@@@5@@Z 00000001800d5548     stream_decode.obj
 0004:00001554       $pdata$0$?New@?$Factory@VFunctionTemplate@v8@@@imp@Nan@@SA?AV?$Local@VFunctionTemplate@v8@@@v8@@P6AXAEBV?$FunctionCallbackInfo@VValue@v8@@@3@@ZV?$Local@VValue@v8@@@5@V?$Local@VSignature@v8@@@5@@Z 00000001800d5554     stream_decode.obj
 0004:00001560       $pdata$1$?New@?$Factory@VFunctionTemplate@v8@@@imp@Nan@@SA?AV?$Local@VFunctionTemplate@v8@@@v8@@P6AXAEBV?$FunctionCallbackInfo@VValue@v8@@@3@@ZV?$Local@VValue@v8@@@5@V?$Local@VSignature@v8@@@5@@Z 00000001800d5560     stream_decode.obj
 0004:0000156c       $pdata$2$?New@?$Factory@VFunctionTemplate@v8@@@imp@Nan@@SA?AV?$Local@VFunctionTemplate@v8@@@v8@@P6AXAEBV?$FunctionCallbackInfo@VValue@v8@@@3@@ZV?$Local@VValue@v8@@@5@V?$Local@VSignature@v8@@@5@@Z 00000001800d556c     stream_decode.obj
 0004:00001578       $pdata$3$?New@?$Factory@VFunctionTemplate@v8@@@imp@Nan@@SA?AV?$Local@VFunctionTemplate@v8@@@v8@@P6AXAEBV?$FunctionCallbackInfo@VValue@v8@@@3@@ZV?$Local@VValue@v8@@@5@V?$Local@VSignature@v8@@@5@@Z 00000001800d5578     stream_decode.obj
 0004:00001584       $pdata$?AsyncExecuteComplete@Nan@@YAXPEAUuv_work_s@@@Z 00000001800d5584     stream_decode.obj
 0004:00001590       $pdata$?SetPrototypeMethod@Nan@@YAXV?$Local@VFunctionTemplate@v8@@@v8@@PEBDP6AXAEBV?$FunctionCallbackInfo@VValue@v8@@@1@@Z@Z 00000001800d5590     stream_decode.obj
 0004:0000159c       $pdata$?Wrap@ObjectWrap@Nan@@IEAAXV?$Local@VObject@v8@@@v8@@@Z 00000001800d559c     stream_decode.obj
 0004:000015a8       $pdata$??0StreamDecode@@AEAA@V?$Local@VObject@v8@@@v8@@@Z 00000001800d55a8     stream_decode.obj
 0004:000015b4       $pdata$??_GStreamDecode@@EEAAPEAXI@Z 00000001800d55b4     stream_decode.obj
 0004:000015c0       $pdata$1$??_GStreamDecode@@EEAAPEAXI@Z 00000001800d55c0     stream_decode.obj
 0004:000015cc       $pdata$3$??_GStreamDecode@@EEAAPEAXI@Z 00000001800d55cc     stream_decode.obj
 0004:000015d8       $pdata$4$??_GStreamDecode@@EEAAPEAXI@Z 00000001800d55d8     stream_decode.obj
 0004:000015e4       $pdata$5$??_GStreamDecode@@EEAAPEAXI@Z 00000001800d55e4     stream_decode.obj
 0004:000015f0       $pdata$?Init@StreamDecode@@SAXV?$Local@VObject@v8@@@v8@@@Z 00000001800d55f0     stream_decode.obj
 0004:000015fc       $pdata$?New@StreamDecode@@CAXAEBV?$FunctionCallbackInfo@VValue@v8@@@Nan@@@Z 00000001800d55fc     stream_decode.obj
 0004:00001608       $pdata$?Transform@StreamDecode@@CAXAEBV?$FunctionCallbackInfo@VValue@v8@@@Nan@@@Z 00000001800d5608     stream_decode.obj
 0004:00001614       $pdata$?Flush@StreamDecode@@CAXAEBV?$FunctionCallbackInfo@VValue@v8@@@Nan@@@Z 00000001800d5614     stream_decode.obj
 0004:00001620       $pdata$??$Unwrap@VStreamEncode@@@ObjectWrap@Nan@@SAPEAVStreamEncode@@V?$Local@VObject@v8@@@v8@@@Z 00000001800d5620     stream_encode.obj
 0004:00001620       $pdata$??$Unwrap@VStreamDecode@@@ObjectWrap@Nan@@SAPEAVStreamDecode@@V?$Local@VObject@v8@@@v8@@@Z 00000001800d5620     stream_decode.obj
 0004:0000162c       $pdata$??0AsyncResource@Nan@@QEAA@PEBDV?$Local@VObject@v8@@@v8@@@Z 00000001800d562c     stream_decode_worker.obj
 0004:00001638       $pdata$?Call@Callback@Nan@@QEBA?AV?$Local@VValue@v8@@@v8@@HQEAV34@@Z 00000001800d5638     stream_decode_worker.obj
 0004:00001644       $pdata$?Call_@Callback@Nan@@AEBA?AV?$MaybeLocal@VValue@v8@@@v8@@PEAVIsolate@4@V?$Local@VObject@v8@@@4@HQEAV?$Local@VValue@v8@@@4@PEAVAsyncResource@2@@Z 00000001800d5644     stream_decode_worker.obj
 0004:00001650       $pdata$??0AsyncWorker@Nan@@QEAA@PEAVCallback@1@PEBD@Z 00000001800d5650     stream_decode_worker.obj
 0004:0000165c       $pdata$??1AsyncWorker@Nan@@UEAA@XZ 00000001800d565c     stream_decode_worker.obj
 0004:00001668       $pdata$?WorkComplete@AsyncWorker@Nan@@UEAAXXZ 00000001800d5668     stream_decode_worker.obj
 0004:00001674       $pdata$?HandleOKCallback@AsyncWorker@Nan@@MEAAXXZ 00000001800d5674     stream_decode_worker.obj
 0004:00001680       $pdata$?HandleErrorCallback@AsyncWorker@Nan@@MEAAXXZ 00000001800d5680     stream_decode_worker.obj
 0004:0000168c       $pdata$??_GAsyncWorker@Nan@@UEAAPEAXI@Z 00000001800d568c     stream_decode_worker.obj
 0004:00001698       $pdata$??_GStreamDecodeWorker@@EEAAPEAXI@Z 00000001800d5698     stream_decode_worker.obj
 0004:000016a4       $pdata$?Execute@StreamDecodeWorker@@UEAAXXZ 00000001800d56a4     stream_decode_worker.obj
 0004:000016b0       $pdata$3$?Execute@StreamDecodeWorker@@UEAAXXZ 00000001800d56b0     stream_decode_worker.obj
 0004:000016bc       $pdata$4$?Execute@StreamDecodeWorker@@UEAAXXZ 00000001800d56bc     stream_decode_worker.obj
 0004:000016c8       $pdata$?HandleOKCallback@StreamDecodeWorker@@UEAAXXZ 00000001800d56c8     stream_decode_worker.obj
 0004:000016d4       $pdata$??$_Emplace_reallocate@PEAE@?$vector@PEAEV?$allocator@PEAE@std@@@std@@QEAAPEAPEAEQEAPEAE$$QEAPEAE@Z 00000001800d56d4     stream_decode_worker.obj
 0004:000016e0       $pdata$3$??$_Emplace_reallocate@PEAE@?$vector@PEAEV?$allocator@PEAE@std@@@std@@QEAAPEAPEAEQEAPEAE$$QEAPEAE@Z 00000001800d56e0     stream_decode_worker.obj
 0004:000016ec       $pdata$5$??$_Emplace_reallocate@PEAE@?$vector@PEAEV?$allocator@PEAE@std@@@std@@QEAAPEAPEAEQEAPEAE$$QEAPEAE@Z 00000001800d56ec     stream_decode_worker.obj
 0004:000016f8       $pdata$6$??$_Emplace_reallocate@PEAE@?$vector@PEAEV?$allocator@PEAE@std@@@std@@QEAAPEAPEAEQEAPEAE$$QEAPEAE@Z 00000001800d56f8     stream_decode_worker.obj
 0004:00001704       $pdata$?_Xlength@?$vector@PEAEV?$allocator@PEAE@std@@@std@@CAXXZ 00000001800d5704     stream_decode_worker.obj
 0004:00001710       $pdata$??0StreamEncode@@AEAA@V?$Local@VObject@v8@@@v8@@@Z 00000001800d5710     stream_encode.obj
 0004:0000171c       $pdata$??_GStreamEncode@@EEAAPEAXI@Z 00000001800d571c     stream_encode.obj
 0004:00001728       $pdata$?Init@StreamEncode@@SAXV?$Local@VObject@v8@@@v8@@@Z 00000001800d5728     stream_encode.obj
 0004:00001734       $pdata$?New@StreamEncode@@CAXAEBV?$FunctionCallbackInfo@VValue@v8@@@Nan@@@Z 00000001800d5734     stream_encode.obj
 0004:00001740       $pdata$?Transform@StreamEncode@@CAXAEBV?$FunctionCallbackInfo@VValue@v8@@@Nan@@@Z 00000001800d5740     stream_encode.obj
 0004:0000174c       $pdata$?Flush@StreamEncode@@CAXAEBV?$FunctionCallbackInfo@VValue@v8@@@Nan@@@Z 00000001800d574c     stream_encode.obj
 0004:00001758       $pdata$??_GStreamEncodeWorker@@EEAAPEAXI@Z 00000001800d5758     stream_encode_worker.obj
 0004:00001764       $pdata$?Execute@StreamEncodeWorker@@UEAAXXZ 00000001800d5764     stream_encode_worker.obj
 0004:00001770       $pdata$2$?Execute@StreamEncodeWorker@@UEAAXXZ 00000001800d5770     stream_encode_worker.obj
 0004:0000177c       $pdata$3$?Execute@StreamEncodeWorker@@UEAAXXZ 00000001800d577c     stream_encode_worker.obj
 0004:00001788       $pdata$?HandleOKCallback@StreamEncodeWorker@@UEAAXXZ 00000001800d5788     stream_encode_worker.obj
 0004:00001794       $pdata$?Init@@YAXV?$Local@VObject@v8@@@v8@@@Z 00000001800d5794     iltorb.obj
 0004:000017a0       $pdata$?load_exe_hook@@YAP6A_JXZIPEAUDelayLoadInfo@@@Z 00000001800d57a0     win_delay_load_hook.obj
 0004:000017c4       $pdata$__raise_securityfailure 00000001800d57c4     LIBCMT:gs_report.obj
 0004:000017d0       $pdata$__report_gsfailure  00000001800d57d0     LIBCMT:gs_report.obj
 0004:000017dc       $pdata$__report_rangecheckfailure 00000001800d57dc     LIBCMT:gs_report.obj
 0004:000017e8       $pdata$__report_securityfailure 00000001800d57e8     LIBCMT:gs_report.obj
 0004:000017f4       $pdata$capture_current_context 00000001800d57f4     LIBCMT:gs_report.obj
 0004:00001800       $pdata$capture_previous_context 00000001800d5800     LIBCMT:gs_report.obj
 0004:0000180c       $pdata$??2@YAPEAX_K@Z      00000001800d580c     LIBCMT:new_scalar.obj
 0004:00001818       $pdata$__scrt_acquire_startup_lock 00000001800d5818     LIBCMT:utility.obj
 0004:00001824       $pdata$__scrt_dllmain_after_initialize_c 00000001800d5824     LIBCMT:utility.obj
 0004:00001830       $pdata$__scrt_dllmain_before_initialize_c 00000001800d5830     LIBCMT:utility.obj
 0004:0000183c       $pdata$__scrt_dllmain_crt_thread_attach 00000001800d583c     LIBCMT:utility.obj
 0004:00001848       $pdata$__scrt_dllmain_crt_thread_detach 00000001800d5848     LIBCMT:utility.obj
 0004:00001854       $pdata$__scrt_dllmain_exception_filter 00000001800d5854     LIBCMT:utility.obj
 0004:00001860       $pdata$__scrt_dllmain_uninitialize_c 00000001800d5860     LIBCMT:utility.obj
 0004:0000186c       $pdata$__scrt_dllmain_uninitialize_critical 00000001800d586c     LIBCMT:utility.obj
 0004:00001878       $pdata$__scrt_initialize_crt 00000001800d5878     LIBCMT:utility.obj
 0004:00001884       $pdata$__scrt_initialize_onexit_tables 00000001800d5884     LIBCMT:utility.obj
 0004:00001890       $pdata$__scrt_is_nonwritable_in_current_image 00000001800d5890     LIBCMT:utility.obj
 0004:0000189c       $pdata$__scrt_release_startup_lock 00000001800d589c     LIBCMT:utility.obj
 0004:000018a8       $pdata$__scrt_uninitialize_crt 00000001800d58a8     LIBCMT:utility.obj
 0004:000018b4       $pdata$_onexit             00000001800d58b4     LIBCMT:utility.obj
 0004:000018c0       $pdata$atexit              00000001800d58c0     LIBCMT:utility.obj
 0004:000018cc       $pdata$?dllmain_crt_dispatch@@YAHQEAUHINSTANCE__@@KQEAX@Z 00000001800d58cc     LIBCMT:dll_dllmain.obj
 0004:000018d8       $pdata$?dllmain_crt_process_attach@@YAHQEAUHINSTANCE__@@QEAX@Z 00000001800d58d8     LIBCMT:dll_dllmain.obj
 0004:000018e4       $pdata$?dllmain_crt_process_detach@@YAH_N@Z 00000001800d58e4     LIBCMT:dll_dllmain.obj
 0004:000018f0       $pdata$?dllmain_dispatch@@YAHQEAUHINSTANCE__@@KQEAX@Z 00000001800d58f0     LIBCMT:dll_dllmain.obj
 0004:000018fc       $pdata$_DllMainCRTStartup  00000001800d58fc     LIBCMT:dll_dllmain.obj
 0004:00001908       $pdata$??0bad_alloc@std@@QEAA@AEBV01@@Z 00000001800d5908     LIBCMT:throw_bad_alloc.obj
 0004:00001914       $pdata$??0bad_array_new_length@std@@QEAA@AEBV01@@Z 00000001800d5914     LIBCMT:throw_bad_alloc.obj
 0004:00001920       $pdata$??0exception@std@@QEAA@AEBV01@@Z 00000001800d5920     LIBCMT:throw_bad_alloc.obj
 0004:0000192c       $pdata$??_Gbad_array_new_length@std@@UEAAPEAXI@Z 00000001800d592c     LIBCMT:throw_bad_alloc.obj
 0004:0000192c       $pdata$??_Glength_error@std@@UEAAPEAXI@Z 00000001800d592c     libcpmt:xthrow.obj
 0004:0000192c       $pdata$??_Gexception@std@@UEAAPEAXI@Z 00000001800d592c     LIBCMT:throw_bad_alloc.obj
 0004:0000192c       $pdata$??_Glogic_error@std@@UEAAPEAXI@Z 00000001800d592c     libcpmt:xthrow.obj
 0004:0000192c       $pdata$??_Gbad_alloc@std@@UEAAPEAXI@Z 00000001800d592c     LIBCMT:throw_bad_alloc.obj
 0004:00001938       $pdata$?__scrt_throw_std_bad_alloc@@YAXXZ 00000001800d5938     LIBCMT:throw_bad_alloc.obj
 0004:00001944       $pdata$?__scrt_throw_std_bad_array_new_length@@YAXXZ 00000001800d5944     LIBCMT:throw_bad_alloc.obj
 0004:00001950       $pdata$__isa_available_init 00000001800d5950     LIBCMT:cpu_disp.obj
 0004:0000195c       $pdata$__scrt_fastfail     00000001800d595c     LIBCMT:utility_desktop.obj
 0004:00001968       $pdata$__security_init_cookie 00000001800d5968     LIBCMT:gs_support.obj
 0004:00001974       $pdata$__scrt_initialize_default_local_stdio_options 00000001800d5974     LIBCMT:default_local_stdio_options.obj
 0004:00001980       $pdata$_RTC_Initialize     00000001800d5980     LIBCMT:initsect.obj
 0004:0000198c       $pdata$_RTC_Terminate      00000001800d598c     LIBCMT:initsect.obj
 0004:00001998       $pdata$??_Gtype_info@@UEAAPEAXI@Z 00000001800d5998     LIBCMT:std_type_info_static.obj
 0004:000019a4       $pdata$??0length_error@std@@QEAA@AEBV01@@Z 00000001800d59a4     libcpmt:xthrow.obj
 0004:000019b0       $pdata$??0length_error@std@@QEAA@PEBD@Z 00000001800d59b0     libcpmt:xthrow.obj
 0004:000019bc       $pdata$??0logic_error@std@@QEAA@AEBV01@@Z 00000001800d59bc     libcpmt:xthrow.obj
 0004:000019c8       $pdata$?_Xlength_error@std@@YAXPEBD@Z 00000001800d59c8     libcpmt:xthrow.obj
 0004:000019d4       $pdata$_purecall           00000001800d59d4     libvcruntime:purevirt.obj
 0004:000019e0       $pdata$__vcrt_initialize   00000001800d59e0     libvcruntime:initialization.obj
 0004:000019ec       $pdata$__vcrt_thread_attach 00000001800d59ec     libvcruntime:initialization.obj
 0004:000019f8       $pdata$__vcrt_thread_detach 00000001800d59f8     libvcruntime:initialization.obj
 0004:00001a04       $pdata$__vcrt_uninitialize 00000001800d5a04     libvcruntime:initialization.obj
 0004:00001a10       $pdata$__vcrt_uninitialize_critical 00000001800d5a10     libvcruntime:initialization.obj
 0004:00001a1c       $pdata$__C_specific_handler 00000001800d5a1c     libvcruntime:riscchandler.obj
 0004:00001a28       $pdata$__std_exception_copy 00000001800d5a28     libvcruntime:std_exception.obj
 0004:00001a34       $pdata$__std_exception_destroy 00000001800d5a34     libvcruntime:std_exception.obj
 0004:00001a40       $pdata$_CxxThrowException  00000001800d5a40     libvcruntime:throw.obj
 0004:00001a64       $pdata$__std_type_info_destroy_list 00000001800d5a64     libvcruntime:std_type_info.obj
 0004:00001a70       $pdata$__vcrt_freefls      00000001800d5a70     libvcruntime:per_thread_data.obj
 0004:00001a7c       $pdata$__vcrt_freeptd      00000001800d5a7c     libvcruntime:per_thread_data.obj
 0004:00001a88       $pdata$__vcrt_getptd_noexit 00000001800d5a88     libvcruntime:per_thread_data.obj
 0004:00001a94       $pdata$__vcrt_initialize_ptd 00000001800d5a94     libvcruntime:per_thread_data.obj
 0004:00001aa0       $pdata$__vcrt_uninitialize_ptd 00000001800d5aa0     libvcruntime:per_thread_data.obj
 0004:00001aac       $pdata$__vcrt_initialize_locks 00000001800d5aac     libvcruntime:locks.obj
 0004:00001ab8       $pdata$__vcrt_uninitialize_locks 00000001800d5ab8     libvcruntime:locks.obj
 0004:00001ac4       $pdata$?try_get_function@@YAPEAXW4function_id@?A0x14c33c87@@QEBDQEBW4module_id@2@2@Z 00000001800d5ac4     libvcruntime:winapi_downlevel.obj
 0004:00001ad0       $pdata$__vcrt_FlsAlloc     00000001800d5ad0     libvcruntime:winapi_downlevel.obj
 0004:00001adc       $pdata$__vcrt_FlsFree      00000001800d5adc     libvcruntime:winapi_downlevel.obj
 0004:00001ae8       $pdata$__vcrt_FlsGetValue  00000001800d5ae8     libvcruntime:winapi_downlevel.obj
 0004:00001af4       $pdata$__vcrt_FlsSetValue  00000001800d5af4     libvcruntime:winapi_downlevel.obj
 0004:00001b00       $pdata$__vcrt_InitializeCriticalSectionEx 00000001800d5b00     libvcruntime:winapi_downlevel.obj
 0004:00001b0c       $pdata$__vcrt_initialize_winapi_thunks 00000001800d5b0c     libvcruntime:winapi_downlevel.obj
 0004:00001b18       $pdata$__vcrt_uninitialize_winapi_thunks 00000001800d5b18     libvcruntime:winapi_downlevel.obj
 0004:00001b48       $pdata$__DestructExceptionObject 00000001800d5b48     libvcruntime:ehhelpers.obj
 0004:00001b84       $pdata$log2                00000001800d5b84     libucrt:log2.obj
 0004:00001b90       $pdata$??$common_assert_to_message_box@_W@@YAXQEB_W0IQEAX@Z 00000001800d5b90     libucrt:assert.obj
 0004:00001b9c       $pdata$??$common_assert_to_message_box_build_string@_W@@YAXQEA_W_KQEB_W2IQEAX@Z 00000001800d5b9c     libucrt:assert.obj
 0004:00001ba8       $pdata$??$common_assert_to_stderr@_W@@YAXQEB_W0I@Z 00000001800d5ba8     libucrt:assert.obj
 0004:00001bb4       $pdata$_wassert            00000001800d5bb4     libucrt:assert.obj
 0004:00001bc0       $pdata$fwprintf            00000001800d5bc0     libucrt:assert.obj
 0004:00001bcc       $pdata$swprintf            00000001800d5bcc     libucrt:assert.obj
 0004:00001bd8       $pdata$??$?RV<lambda_d80eeec6fff315bfe5c115232f3240e3>@@AEAV<lambda_6e4b09c48022b2350581041d5f6b0c4c>@@V<lambda_2358e3775559c9db80273638284d5e45>@@@?$__crt_seh_guarded_call@X@@QEAAX$$QEAV<lambda_d80eeec6fff315bfe5c115232f3240e3>@@AEAV<lambda_6e4b09c48022b2350581041d5f6b0c4c>@@$$QEAV<lambda_2358e3775559c9db80273638284d5e45>@@@Z 00000001800d5bd8     libucrt:exit.obj
 0004:00001be4       $pdata$??R<lambda_6e4b09c48022b2350581041d5f6b0c4c>@@QEBA@XZ 00000001800d5be4     libucrt:exit.obj
 0004:00001bf0       $pdata$?common_exit@@YAXHW4_crt_exit_cleanup_mode@@W4_crt_exit_return_mode@@@Z 00000001800d5bf0     libucrt:exit.obj
 0004:00001bfc       $pdata$?exit_or_terminate_process@@YAXI@Z 00000001800d5bfc     libucrt:exit.obj
 0004:00001c08       $pdata$?try_cor_exit_process@@YAXI@Z 00000001800d5c08     libucrt:exit.obj
 0004:00001c14       $pdata$__acrt_call_reportfault 00000001800d5c14     libucrt:invalid_parameter.obj
 0004:00001c20       $pdata$_invalid_parameter  00000001800d5c20     libucrt:invalid_parameter.obj
 0004:00001c2c       $pdata$_invalid_parameter_noinfo 00000001800d5c2c     libucrt:invalid_parameter.obj
 0004:00001c38       $pdata$_invalid_parameter_noinfo_noreturn 00000001800d5c38     libucrt:invalid_parameter.obj
 0004:00001c44       $pdata$_invoke_watson      00000001800d5c44     libucrt:invalid_parameter.obj
 0004:00001c50       $pdata$??0_LocaleUpdate@@QEAA@QEAU__crt_locale_pointers@@@Z 00000001800d5c50     libucrt:stricmp.obj
 0004:00001c5c       $pdata$_stricmp            00000001800d5c5c     libucrt:stricmp.obj
 0004:00001c68       $pdata$_stricmp_l          00000001800d5c68     libucrt:stricmp.obj
 0004:00001c74       $pdata$_callnewh           00000001800d5c74     libucrt:new_handler.obj
 0004:00001c80       $pdata$_query_new_handler  00000001800d5c80     libucrt:new_handler.obj
 0004:00001c8c       $pdata$_seh_filter_exe     00000001800d5c8c     libucrt:exception_filter.obj
 0004:00001c98       $pdata$??$parse_command_line@D@@YAXPEADPEAPEAD0PEA_K2@Z 00000001800d5c98     libucrt:argv_parsing.obj
 0004:00001ca4       $pdata$__acrt_allocate_buffer_for_argv 00000001800d5ca4     libucrt:argv_parsing.obj
 0004:00001cb0       $pdata$_configure_narrow_argv 00000001800d5cb0     libucrt:argv_parsing.obj
 0004:00001cbc       $pdata$??$common_initialize_environment_nolock@D@@YAHXZ 00000001800d5cbc     libucrt:environment_initialization.obj
 0004:00001cc8       $pdata$??$create_environment@D@@YAQEAPEADQEAD@Z 00000001800d5cc8     libucrt:environment_initialization.obj
 0004:00001cd4       $pdata$??$free_environment@D@@YAXQEAPEAD@Z 00000001800d5cd4     libucrt:environment_initialization.obj
 0004:00001cd4       $pdata$??$free_environment@_W@@YAXQEAPEA_W@Z 00000001800d5cd4     libucrt:environment_initialization.obj
 0004:00001ce0       $pdata$??$uninitialize_environment_internal@D@@YAXAEAPEAPEAD@Z 00000001800d5ce0     libucrt:environment_initialization.obj
 0004:00001cec       $pdata$??$uninitialize_environment_internal@_W@@YAXAEAPEAPEA_W@Z 00000001800d5cec     libucrt:environment_initialization.obj
 0004:00001cf8       $pdata$__dcrt_uninitialize_environments_nolock 00000001800d5cf8     libucrt:environment_initialization.obj
 0004:00001d04       $pdata$??$?RV<lambda_638799b9deba96c50f710eeac98168cd>@@AEAV<lambda_22ebabd17bc4fa466a2aca6d8deb888d>@@V<lambda_a6f7d7db0129f75315ebf26d50c089f1>@@@?$__crt_seh_guarded_call@H@@QEAAH$$QEAV<lambda_638799b9deba96c50f710eeac98168cd>@@AEAV<lambda_22ebabd17bc4fa466a2aca6d8deb888d>@@$$QEAV<lambda_a6f7d7db0129f75315ebf26d50c089f1>@@@Z 00000001800d5d04     libucrt:onexit.obj
 0004:00001d10       $pdata$??$?RV<lambda_7777bce6b2f8c936911f934f8298dc43>@@AEAV<lambda_f03950bc5685219e0bcd2087efbe011e>@@V<lambda_3883c3dff614d5e0c5f61bb1ac94921c>@@@?$__crt_seh_guarded_call@H@@QEAAH$$QEAV<lambda_7777bce6b2f8c936911f934f8298dc43>@@AEAV<lambda_f03950bc5685219e0bcd2087efbe011e>@@$$QEAV<lambda_3883c3dff614d5e0c5f61bb1ac94921c>@@@Z 00000001800d5d10     libucrt:onexit.obj
 0004:00001d1c       $pdata$??R<lambda_22ebabd17bc4fa466a2aca6d8deb888d>@@QEBAHXZ 00000001800d5d1c     libucrt:onexit.obj
 0004:00001d28       $pdata$??R<lambda_f03950bc5685219e0bcd2087efbe011e>@@QEBAHXZ 00000001800d5d28     libucrt:onexit.obj
 0004:00001d34       $pdata$_execute_onexit_table 00000001800d5d34     libucrt:onexit.obj
 0004:00001d40       $pdata$_register_onexit_function 00000001800d5d40     libucrt:onexit.obj
 0004:00001d4c       $pdata$initialize_c        00000001800d5d4c     libucrt:initialization.obj
 0004:00001d58       $pdata$uninitialize_environment 00000001800d5d58     libucrt:initialization.obj
 0004:00001d64       $pdata$initialize_pointers 00000001800d5d64     libucrt:initialization.obj
 0004:00001d70       $pdata$uninitialize_allocated_memory 00000001800d5d70     libucrt:initialization.obj
 0004:00001d7c       $pdata$uninitialize_allocated_io_buffers 00000001800d5d7c     libucrt:initialization.obj
 0004:00001d88       $pdata$__acrt_thread_attach 00000001800d5d88     libucrt:initialization.obj
 0004:00001d94       $pdata$__acrt_thread_detach 00000001800d5d94     libucrt:initialization.obj
 0004:00001da0       $pdata$__acrt_uninitialize 00000001800d5da0     libucrt:initialization.obj
 0004:00001dac       $pdata$__acrt_uninitialize_critical 00000001800d5dac     libucrt:initialization.obj
 0004:00001db8       $pdata$_initterm           00000001800d5db8     libucrt:initterm.obj
 0004:00001dc4       $pdata$_initterm_e         00000001800d5dc4     libucrt:initterm.obj
 0004:00001dd0       $pdata$terminate           00000001800d5dd0     libucrt:terminate.obj
 0004:00001ddc       $pdata$abort               00000001800d5ddc     libucrt:abort.obj
 0004:00001de8       $pdata$strcpy_s            00000001800d5de8     libucrt:strcpy_s.obj
 0004:00001df4       $pdata$??$?RV<lambda_0d412022a4b28cc8a401ea49574e8ae6>@@AEAV<lambda_a775ed57af18ba8e4d5dc780aa9068fe>@@V<lambda_975a71a6baa488a08f4e15f6b0339b9e>@@@?$__crt_seh_guarded_call@H@@QEAAH$$QEAV<lambda_0d412022a4b28cc8a401ea49574e8ae6>@@AEAV<lambda_a775ed57af18ba8e4d5dc780aa9068fe>@@$$QEAV<lambda_975a71a6baa488a08f4e15f6b0339b9e>@@@Z 00000001800d5df4     libucrt:output.obj
 0004:00001e00       $pdata$??$common_vsprintf@Vstandard_base@__crt_stdio_output@@_W@@YAH_KQEA_W0QEB_WQEAU__crt_locale_pointers@@QEAD@Z 00000001800d5e00     libucrt:output.obj
 0004:00001e0c       $pdata$??$ensure_buffer_is_big_enough@D@formatting_buffer@__crt_stdio_output@@QEAA_N_K@Z 00000001800d5e0c     libucrt:output.obj
 0004:00001e18       $pdata$??$ensure_buffer_is_big_enough@_W@formatting_buffer@__crt_stdio_output@@QEAA_N_K@Z 00000001800d5e18     libucrt:output.obj
 0004:00001e24       $pdata$??$type_case_integer_parse_into_buffer@I@?$output_processor@_WV?$string_output_adapter@_W@__crt_stdio_output@@V?$standard_base@_WV?$string_output_adapter@_W@__crt_stdio_output@@@2@@__crt_stdio_output@@AEAAXII_N@Z 00000001800d5e24     libucrt:output.obj
 0004:00001e24       $pdata$??$type_case_integer_parse_into_buffer@I@?$output_processor@_WV?$stream_output_adapter@_W@__crt_stdio_output@@V?$standard_base@_WV?$stream_output_adapter@_W@__crt_stdio_output@@@2@@__crt_stdio_output@@AEAAXII_N@Z 00000001800d5e24     libucrt:output.obj
 0004:00001e30       $pdata$??$type_case_integer_parse_into_buffer@_K@?$output_processor@_WV?$stream_output_adapter@_W@__crt_stdio_output@@V?$standard_base@_WV?$stream_output_adapter@_W@__crt_stdio_output@@@2@@__crt_stdio_output@@AEAAX_KI_N@Z 00000001800d5e30     libucrt:output.obj
 0004:00001e30       $pdata$??$type_case_integer_parse_into_buffer@_K@?$output_processor@_WV?$string_output_adapter@_W@__crt_stdio_output@@V?$standard_base@_WV?$string_output_adapter@_W@__crt_stdio_output@@@2@@__crt_stdio_output@@AEAAX_KI_N@Z 00000001800d5e30     libucrt:output.obj
 0004:00001e3c       $pdata$??$write_multiple_characters@V?$stream_output_adapter@_W@__crt_stdio_output@@D@__crt_stdio_output@@YAXAEBV?$stream_output_adapter@_W@0@DHQEAH@Z 00000001800d5e3c     libucrt:output.obj
 0004:00001e48       $pdata$??$write_multiple_characters@V?$string_output_adapter@_W@__crt_stdio_output@@D@__crt_stdio_output@@YAXAEBV?$string_output_adapter@_W@0@DHQEAH@Z 00000001800d5e48     libucrt:output.obj
 0004:00001e54       $pdata$??R<lambda_a775ed57af18ba8e4d5dc780aa9068fe>@@QEBAHXZ 00000001800d5e54     libucrt:output.obj
 0004:00001e60       $pdata$?force_decimal_point@__crt_stdio_output@@YAXPEADQEAU__crt_locale_pointers@@@Z 00000001800d5e60     libucrt:output.obj
 0004:00001e6c       $pdata$?parse_int_from_format_string@?$output_processor@_WV?$string_output_adapter@_W@__crt_stdio_output@@V?$standard_base@_WV?$string_output_adapter@_W@__crt_stdio_output@@@2@@__crt_stdio_output@@AEAA_NQEAH@Z 00000001800d5e6c     libucrt:output.obj
 0004:00001e6c       $pdata$?parse_int_from_format_string@?$output_processor@_WV?$stream_output_adapter@_W@__crt_stdio_output@@V?$standard_base@_WV?$stream_output_adapter@_W@__crt_stdio_output@@@2@@__crt_stdio_output@@AEAA_NQEAH@Z 00000001800d5e6c     libucrt:output.obj
 0004:00001e78       $pdata$?process@?$output_processor@_WV?$stream_output_adapter@_W@__crt_stdio_output@@V?$standard_base@_WV?$stream_output_adapter@_W@__crt_stdio_output@@@2@@__crt_stdio_output@@QEAAHXZ 00000001800d5e78     libucrt:output.obj
 0004:00001e84       $pdata$?process@?$output_processor@_WV?$string_output_adapter@_W@__crt_stdio_output@@V?$standard_base@_WV?$string_output_adapter@_W@__crt_stdio_output@@@2@@__crt_stdio_output@@QEAAHXZ 00000001800d5e84     libucrt:output.obj
 0004:00001e90       $pdata$?state_case_size@?$output_processor@_WV?$stream_output_adapter@_W@__crt_stdio_output@@V?$standard_base@_WV?$stream_output_adapter@_W@__crt_stdio_output@@@2@@__crt_stdio_output@@AEAA_NXZ 00000001800d5e90     libucrt:output.obj
 0004:00001e9c       $pdata$?state_case_size@?$output_processor@_WV?$string_output_adapter@_W@__crt_stdio_output@@V?$standard_base@_WV?$string_output_adapter@_W@__crt_stdio_output@@@2@@__crt_stdio_output@@AEAA_NXZ 00000001800d5e9c     libucrt:output.obj
 0004:00001ea8       $pdata$?state_case_type@?$output_processor@_WV?$stream_output_adapter@_W@__crt_stdio_output@@V?$standard_base@_WV?$stream_output_adapter@_W@__crt_stdio_output@@@2@@__crt_stdio_output@@AEAA_NXZ 00000001800d5ea8     libucrt:output.obj
 0004:00001eb4       $pdata$?state_case_type@?$output_processor@_WV?$string_output_adapter@_W@__crt_stdio_output@@V?$standard_base@_WV?$string_output_adapter@_W@__crt_stdio_output@@@2@@__crt_stdio_output@@AEAA_NXZ 00000001800d5eb4     libucrt:output.obj
 0004:00001ec0       $pdata$?type_case_Z@?$output_processor@_WV?$string_output_adapter@_W@__crt_stdio_output@@V?$standard_base@_WV?$string_output_adapter@_W@__crt_stdio_output@@@2@@__crt_stdio_output@@AEAA_NXZ 00000001800d5ec0     libucrt:output.obj
 0004:00001ec0       $pdata$?type_case_Z@?$output_processor@_WV?$stream_output_adapter@_W@__crt_stdio_output@@V?$standard_base@_WV?$stream_output_adapter@_W@__crt_stdio_output@@@2@@__crt_stdio_output@@AEAA_NXZ 00000001800d5ec0     libucrt:output.obj
 0004:00001ecc       $pdata$?type_case_a@?$output_processor@_WV?$string_output_adapter@_W@__crt_stdio_output@@V?$standard_base@_WV?$string_output_adapter@_W@__crt_stdio_output@@@2@@__crt_stdio_output@@AEAA_NXZ 00000001800d5ecc     libucrt:output.obj
 0004:00001ecc       $pdata$?type_case_a@?$output_processor@_WV?$stream_output_adapter@_W@__crt_stdio_output@@V?$standard_base@_WV?$stream_output_adapter@_W@__crt_stdio_output@@@2@@__crt_stdio_output@@AEAA_NXZ 00000001800d5ecc     libucrt:output.obj
 0004:00001ed8       $pdata$?type_case_c_tchar@?$output_processor@_WV?$string_output_adapter@_W@__crt_stdio_output@@V?$standard_base@_WV?$string_output_adapter@_W@__crt_stdio_output@@@2@@__crt_stdio_output@@AEAA_N_W@Z 00000001800d5ed8     libucrt:output.obj
 0004:00001ed8       $pdata$?type_case_c_tchar@?$output_processor@_WV?$stream_output_adapter@_W@__crt_stdio_output@@V?$standard_base@_WV?$stream_output_adapter@_W@__crt_stdio_output@@@2@@__crt_stdio_output@@AEAA_N_W@Z 00000001800d5ed8     libucrt:output.obj
 0004:00001ee4       $pdata$?type_case_integer@?$output_processor@_WV?$string_output_adapter@_W@__crt_stdio_output@@V?$standard_base@_WV?$string_output_adapter@_W@__crt_stdio_output@@@2@@__crt_stdio_output@@AEAA_NI_N@Z 00000001800d5ee4     libucrt:output.obj
 0004:00001ee4       $pdata$?type_case_integer@?$output_processor@_WV?$stream_output_adapter@_W@__crt_stdio_output@@V?$standard_base@_WV?$stream_output_adapter@_W@__crt_stdio_output@@@2@@__crt_stdio_output@@AEAA_NI_N@Z 00000001800d5ee4     libucrt:output.obj
 0004:00001ef0       $pdata$?type_case_n@?$output_processor@_WV?$stream_output_adapter@_W@__crt_stdio_output@@V?$standard_base@_WV?$stream_output_adapter@_W@__crt_stdio_output@@@2@@__crt_stdio_output@@AEAA_NXZ 00000001800d5ef0     libucrt:output.obj
 0004:00001ef0       $pdata$?type_case_n@?$output_processor@_WV?$string_output_adapter@_W@__crt_stdio_output@@V?$standard_base@_WV?$string_output_adapter@_W@__crt_stdio_output@@@2@@__crt_stdio_output@@AEAA_NXZ 00000001800d5ef0     libucrt:output.obj
 0004:00001efc       $pdata$?type_case_s@?$output_processor@_WV?$string_output_adapter@_W@__crt_stdio_output@@V?$standard_base@_WV?$string_output_adapter@_W@__crt_stdio_output@@@2@@__crt_stdio_output@@AEAA_NXZ 00000001800d5efc     libucrt:output.obj
 0004:00001efc       $pdata$?type_case_s@?$output_processor@_WV?$stream_output_adapter@_W@__crt_stdio_output@@V?$standard_base@_WV?$stream_output_adapter@_W@__crt_stdio_output@@@2@@__crt_stdio_output@@AEAA_NXZ 00000001800d5efc     libucrt:output.obj
 0004:00001f08       $pdata$?write_stored_string_tchar@?$output_processor@_WV?$stream_output_adapter@_W@__crt_stdio_output@@V?$standard_base@_WV?$stream_output_adapter@_W@__crt_stdio_output@@@2@@__crt_stdio_output@@AEAA_N_W@Z 00000001800d5f08     libucrt:output.obj
 0004:00001f14       $pdata$?write_stored_string_tchar@?$output_processor@_WV?$string_output_adapter@_W@__crt_stdio_output@@V?$standard_base@_WV?$string_output_adapter@_W@__crt_stdio_output@@@2@@__crt_stdio_output@@AEAA_N_W@Z 00000001800d5f14     libucrt:output.obj
 0004:00001f20       $pdata$?write_string@?$string_output_adapter@_W@__crt_stdio_output@@QEBAXQEB_WHQEAHAEAV__crt_deferred_errno_cache@@@Z 00000001800d5f20     libucrt:output.obj
 0004:00001f2c       $pdata$?write_string_impl@?$output_adapter_common@_WV?$stream_output_adapter@_W@__crt_stdio_output@@@__crt_stdio_output@@IEBAXQEB_WHQEAHAEAV__crt_deferred_errno_cache@@@Z 00000001800d5f2c     libucrt:output.obj
 0004:00001f38       $pdata$__stdio_common_vfwprintf 00000001800d5f38     libucrt:output.obj
 0004:00001f44       $pdata$??$parse_integer@KV?$c_string_character_source@_W@__crt_strtox@@@__crt_strtox@@YAKQEAU__crt_locale_pointers@@V?$c_string_character_source@_W@0@H_N@Z 00000001800d5f44     libucrt:atox.obj
 0004:00001f5c       $pdata$_malloc_base        00000001800d5f5c     libucrt:malloc_base.obj
 0004:00001f68       $pdata$_free_base          00000001800d5f68     libucrt:free_base.obj
 0004:00001f74       $pdata$_call_matherr       00000001800d5f74     libucrt:libm_error.obj
 0004:00001f80       $pdata$_exception_enabled  00000001800d5f80     libucrt:libm_error.obj
 0004:00001f8c       $pdata$_handle_error       00000001800d5f8c     libucrt:libm_error.obj
 0004:00001f98       $pdata$__acrt_errno_map_os_error 00000001800d5f98     libucrt:errno.obj
 0004:00001fa4       $pdata$__doserrno          00000001800d5fa4     libucrt:errno.obj
 0004:00001fb0       $pdata$_errno              00000001800d5fb0     libucrt:errno.obj
 0004:00001fbc       $pdata$??$common_xtox@K_W@@YAHKQEA_W_KI_N@Z 00000001800d5fbc     libucrt:xtoa.obj
 0004:00001fc8       $pdata$??$common_xtox_s@K_W@@YAHKQEA_W_KI_N@Z 00000001800d5fc8     libucrt:xtoa.obj
 0004:00001fd4       $pdata$_itow_s             00000001800d5fd4     libucrt:xtoa.obj
 0004:00001fe0       $pdata$_set_error_mode     00000001800d5fe0     libucrt:set_error_mode.obj
 0004:00001fec       $pdata$wcscat_s            00000001800d5fec     libucrt:wcscat_s.obj
 0004:00001ff8       $pdata$wcscpy_s            00000001800d5ff8     libucrt:wcscpy_s.obj
 0004:00002004       $pdata$wcsncat_s           00000001800d6004     libucrt:wcsncat_s.obj
 0004:00002010       $pdata$??$__acrt_wcs_to_mbs_cp@U__crt_win32_buffer_no_resizing@@@@YAHQEB_WAEAV?$__crt_win32_buffer@DU__crt_win32_buffer_no_resizing@@@@I@Z 00000001800d6010     libucrt:getmodulefilenamea.obj
 0004:0000201c       $pdata$__acrt_GetModuleFileNameA 00000001800d601c     libucrt:getmodulefilenamea.obj
 0004:00002028       $pdata$__acrt_show_wide_message_box 00000001800d6028     libucrt:crtmbox.obj
 0004:00002034       $pdata$__acrt_initialize_stdio 00000001800d6034     libucrt:_file.obj
 0004:00002040       $pdata$__acrt_uninitialize_stdio 00000001800d6040     libucrt:_file.obj
 0004:0000204c       $pdata$??$?RV<lambda_842d9ff0dc9ef11c61343bbaebe7f885>@@AEAV<lambda_c5860995281e5c4ce005b3de8f5874ee>@@V<lambda_d90129c13df834fdcbf8d2b88dafcf2d>@@@?$__crt_seh_guarded_call@X@@QEAAX$$QEAV<lambda_842d9ff0dc9ef11c61343bbaebe7f885>@@AEAV<lambda_c5860995281e5c4ce005b3de8f5874ee>@@$$QEAV<lambda_d90129c13df834fdcbf8d2b88dafcf2d>@@@Z 00000001800d604c     libucrt:fflush.obj
 0004:00002058       $pdata$??$?RV<lambda_886d6c58226a84441f68b9f2b8217b83>@@AEAV<lambda_ab61a845afdef5b7c387490eaf3616ee>@@V<lambda_f7f22ab5edc0698d5f6905b0d3f44752>@@@?$__crt_seh_guarded_call@X@@QEAAX$$QEAV<lambda_886d6c58226a84441f68b9f2b8217b83>@@AEAV<lambda_ab61a845afdef5b7c387490eaf3616ee>@@$$QEAV<lambda_f7f22ab5edc0698d5f6905b0d3f44752>@@@Z 00000001800d6058     libucrt:fflush.obj
 0004:00002064       $pdata$??$?RV<lambda_c376a267cfb53b6959b3b692ec76b120>@@AEAV<lambda_9a32fed5bf61b6b509b2d3f6003082a1>@@V<lambda_572fbb9fa0ab338edf41edfd4b5fcc8d>@@@?$__crt_seh_guarded_call@H@@QEAAH$$QEAV<lambda_c376a267cfb53b6959b3b692ec76b120>@@AEAV<lambda_9a32fed5bf61b6b509b2d3f6003082a1>@@$$QEAV<lambda_572fbb9fa0ab338edf41edfd4b5fcc8d>@@@Z 00000001800d6064     libucrt:fflush.obj
 0004:00002070       $pdata$?common_flush_all@@YAH_N@Z 00000001800d6070     libucrt:fflush.obj
 0004:0000207c       $pdata$__acrt_stdio_flush_nolock 00000001800d607c     libucrt:fflush.obj
 0004:00002088       $pdata$_fflush_nolock      00000001800d6088     libucrt:fflush.obj
 0004:00002094       $pdata$fflush              00000001800d6094     libucrt:fflush.obj
 0004:000020a0       $pdata$??$?RV<lambda_84ec643ea9557e2f7dc01bb0e9624395>@@AEAV<lambda_ca71763b3c0644891230e4f79ea54fa6>@@V<lambda_439a761618c59b0600e24586724d733b>@@@?$__crt_seh_guarded_call@H@@QEAAH$$QEAV<lambda_84ec643ea9557e2f7dc01bb0e9624395>@@AEAV<lambda_ca71763b3c0644891230e4f79ea54fa6>@@$$QEAV<lambda_439a761618c59b0600e24586724d733b>@@@Z 00000001800d60a0     libucrt:setvbuf.obj
 0004:000020ac       $pdata$??R<lambda_ca71763b3c0644891230e4f79ea54fa6>@@QEBAHXZ 00000001800d60ac     libucrt:setvbuf.obj
 0004:000020b8       $pdata$setvbuf             00000001800d60b8     libucrt:setvbuf.obj
 0004:000020c4       $pdata$??$?RV<lambda_450d765d439847d4c735a33c368b5fc0>@@AEAV<lambda_44731a7d0e6d81c3e6aa82d741081786>@@V<lambda_601a2a7da3b7a96e9554ac7215c4b07c>@@@?$__crt_seh_guarded_call@P6AXH@Z@@QEAAP6AXH@Z$$QEAV<lambda_450d765d439847d4c735a33c368b5fc0>@@AEAV<lambda_44731a7d0e6d81c3e6aa82d741081786>@@$$QEAV<lambda_601a2a7da3b7a96e9554ac7215c4b07c>@@@Z 00000001800d60c4     libucrt:signal.obj
 0004:000020d0       $pdata$__acrt_get_sigabrt_handler 00000001800d60d0     libucrt:signal.obj
 0004:000020dc       $pdata$raise               00000001800d60dc     libucrt:signal.obj
 0004:000020e8       $pdata$__acrt_initialize_locks 00000001800d60e8     libucrt:locks.obj
 0004:000020f4       $pdata$__acrt_uninitialize_locks 00000001800d60f4     libucrt:locks.obj
 0004:00002100       $pdata$__acrt_get_developer_information_policy 00000001800d6100     libucrt:win_policies.obj
 0004:0000210c       $pdata$__acrt_get_process_end_policy 00000001800d610c     libucrt:win_policies.obj
 0004:00002118       $pdata$__acrt_get_windowing_model_policy 00000001800d6118     libucrt:win_policies.obj
 0004:00002124       $pdata$??$?RV<lambda_0ae27a3a962d80f24befdcbee591983d>@@AEAV<lambda_8d0ee55de4b1038c4002e0adecdf1839>@@V<lambda_dc504788e8f1664fe9b84e20bfb512f2>@@@?$__crt_seh_guarded_call@X@@QEAAX$$QEAV<lambda_0ae27a3a962d80f24befdcbee591983d>@@AEAV<lambda_8d0ee55de4b1038c4002e0adecdf1839>@@$$QEAV<lambda_dc504788e8f1664fe9b84e20bfb512f2>@@@Z 00000001800d6124     libucrt:per_thread_data.obj
 0004:00002130       $pdata$??$?RV<lambda_2d41944a1d46af3157314b8a01080d33>@@AEAV<lambda_8f455de75cd7d7f24b4096f044d8b9e6>@@V<lambda_aa500f224e6afead328df44964fe2772>@@@?$__crt_seh_guarded_call@X@@QEAAX$$QEAV<lambda_2d41944a1d46af3157314b8a01080d33>@@AEAV<lambda_8f455de75cd7d7f24b4096f044d8b9e6>@@$$QEAV<lambda_aa500f224e6afead328df44964fe2772>@@@Z 00000001800d6130     libucrt:per_thread_data.obj
 0004:0000213c       $pdata$??$?RV<lambda_aa87e3671a710a21b5dc78c0bdf72e11>@@AEAV<lambda_92619d2358a28f41a33ba319515a20b9>@@V<lambda_6992ecaafeb10aed2b74cb1fae11a551>@@@?$__crt_seh_guarded_call@X@@QEAAX$$QEAV<lambda_aa87e3671a710a21b5dc78c0bdf72e11>@@AEAV<lambda_92619d2358a28f41a33ba319515a20b9>@@$$QEAV<lambda_6992ecaafeb10aed2b74cb1fae11a551>@@@Z 00000001800d613c     libucrt:per_thread_data.obj
 0004:00002148       $pdata$??$?RV<lambda_f2e299630e499de9f9a165e60fcd3db5>@@AEAV<lambda_2ae9d31cdba2644fcbeaf08da7c24588>@@V<lambda_40d01ff24d0e7b3814fdbdcee8eab3c7>@@@?$__crt_seh_guarded_call@X@@QEAAX$$QEAV<lambda_f2e299630e499de9f9a165e60fcd3db5>@@AEAV<lambda_2ae9d31cdba2644fcbeaf08da7c24588>@@$$QEAV<lambda_40d01ff24d0e7b3814fdbdcee8eab3c7>@@@Z 00000001800d6148     libucrt:per_thread_data.obj
 0004:00002154       $pdata$?construct_ptd_array@@YAXQEAU__acrt_ptd@@@Z 00000001800d6154     libucrt:per_thread_data.obj
 0004:00002160       $pdata$?destroy_fls@@YAXPEAX@Z 00000001800d6160     libucrt:per_thread_data.obj
 0004:0000216c       $pdata$?destroy_ptd_array@@YAXQEAU__acrt_ptd@@@Z 00000001800d616c     libucrt:per_thread_data.obj
 0004:00002178       $pdata$?replace_current_thread_locale_nolock@@YAXQEAU__acrt_ptd@@QEAU__crt_locale_data@@@Z 00000001800d6178     libucrt:per_thread_data.obj
 0004:00002184       $pdata$__acrt_freeptd      00000001800d6184     libucrt:per_thread_data.obj
 0004:00002190       $pdata$__acrt_getptd       00000001800d6190     libucrt:per_thread_data.obj
 0004:0000219c       $pdata$__acrt_getptd_head  00000001800d619c     libucrt:per_thread_data.obj
 0004:000021a8       $pdata$__acrt_getptd_noexit 00000001800d61a8     libucrt:per_thread_data.obj
 0004:000021b4       $pdata$__acrt_initialize_ptd 00000001800d61b4     libucrt:per_thread_data.obj
 0004:000021c0       $pdata$__acrt_uninitialize_ptd 00000001800d61c0     libucrt:per_thread_data.obj
 0004:000021cc       $pdata$?internal_isupper_l@@YA_NHQEAU__crt_locale_pointers@@@Z 00000001800d61cc     libucrt:tolower_toupper.obj
 0004:000021d8       $pdata$_tolower_l          00000001800d61d8     libucrt:tolower_toupper.obj
 0004:000021e4       $pdata$tolower             00000001800d61e4     libucrt:tolower_toupper.obj
 0004:000021f0       $pdata$__acrt_update_locale_info 00000001800d61f0     libucrt:locale_update.obj
 0004:000021fc       $pdata$__acrt_update_multibyte_info 00000001800d61fc     libucrt:locale_update.obj
 0004:00002208       $pdata$??$?RV<lambda_410d79af7f07d98d83a3f525b3859a53>@@AEAV<lambda_3e16ef9562a7dcce91392c22ab16ea36>@@V<lambda_38119f0e861e05405d8a144b9b982f0a>@@@?$__crt_seh_guarded_call@X@@QEAAX$$QEAV<lambda_410d79af7f07d98d83a3f525b3859a53>@@AEAV<lambda_3e16ef9562a7dcce91392c22ab16ea36>@@$$QEAV<lambda_38119f0e861e05405d8a144b9b982f0a>@@@Z 00000001800d6208     libucrt:wsetlocale.obj
 0004:00002214       $pdata$__acrt_uninitialize_locale 00000001800d6214     libucrt:wsetlocale.obj
 0004:00002220       $pdata$_calloc_base        00000001800d6220     libucrt:calloc_base.obj
 0004:0000222c       $pdata$??$__acrt_mbs_to_wcs_cp@U__crt_win32_buffer_internal_dynamic_resizing@@@@YAHQEBDAEAV?$__crt_win32_buffer@_WU__crt_win32_buffer_internal_dynamic_resizing@@@@I@Z 00000001800d622c     libucrt:argv_wildcards.obj
 0004:00002238       $pdata$??$__acrt_wcs_to_mbs_cp@U__crt_win32_buffer_internal_dynamic_resizing@@@@YAHQEB_WAEAV?$__crt_win32_buffer@DU__crt_win32_buffer_internal_dynamic_resizing@@@@I@Z 00000001800d6238     libucrt:argv_wildcards.obj
 0004:00002244       $pdata$??$common_expand_argv_wildcards@D@@YAHQEAPEADQEAPEAPEAD@Z 00000001800d6244     libucrt:argv_wildcards.obj
 0004:00002250       $pdata$??$copy_and_add_argument_to_buffer@D@@YAHQEBD0_KAEAV?$argument_list@D@?A0x5f5c8891@@@Z 00000001800d6250     libucrt:argv_wildcards.obj
 0004:0000225c       $pdata$??$expand_argument_wildcards@D@@YAHQEAD0AEAV?$argument_list@D@?A0x5f5c8891@@@Z 00000001800d625c     libucrt:argv_wildcards.obj
 0004:00002268       $pdata$??$?RV<lambda_efdfa57d1f175319df784efa44bb7b81>@@AEAV<lambda_5f0a4c1567f8adc6734073e5d1e1b35c>@@V<lambda_2e8a7d3640ea6ccb4c2413664c2db6fd>@@@?$__crt_seh_guarded_call@X@@QEAAX$$QEAV<lambda_efdfa57d1f175319df784efa44bb7b81>@@AEAV<lambda_5f0a4c1567f8adc6734073e5d1e1b35c>@@$$QEAV<lambda_2e8a7d3640ea6ccb4c2413664c2db6fd>@@@Z 00000001800d6268     libucrt:mbctype.obj
 0004:00002274       $pdata$?getSystemCP@@YAHH@Z 00000001800d6274     libucrt:mbctype.obj
 0004:00002280       $pdata$?setSBCS@@YAXPEAU__crt_multibyte_data@@@Z 00000001800d6280     libucrt:mbctype.obj
 0004:0000228c       $pdata$?setSBUpLow@@YAXPEAU__crt_multibyte_data@@@Z 00000001800d628c     libucrt:mbctype.obj
 0004:00002298       $pdata$?setmbcp_internal@@YAHH_NQEAU__acrt_ptd@@QEAPEAU__crt_multibyte_data@@@Z 00000001800d6298     libucrt:mbctype.obj
 0004:000022a4       $pdata$?update_thread_multibyte_data_internal@@YAPEAU__crt_multibyte_data@@QEAU__acrt_ptd@@QEAPEAU1@@Z 00000001800d62a4     libucrt:mbctype.obj
 0004:000022b0       $pdata$__acrt_initialize_multibyte 00000001800d62b0     libucrt:mbctype.obj
 0004:000022bc       $pdata$__acrt_update_thread_multibyte_data 00000001800d62bc     libucrt:mbctype.obj
 0004:000022c8       $pdata$_setmbcp_nolock     00000001800d62c8     libucrt:mbctype.obj
 0004:000022d4       $pdata$?x_ismbbtype_l@@YAHPEAU__crt_locale_pointers@@IHH@Z 00000001800d62d4     libucrt:ismbbyte.obj
 0004:000022e0       $pdata$__acrt_initialize_command_line 00000001800d62e0     libucrt:argv_data.obj
 0004:000022ec       $pdata$__acrt_WideCharToMultiByte 00000001800d62ec     libucrt:widechartomultibyte.obj
 0004:000022f8       $pdata$__dcrt_get_narrow_environment_from_os 00000001800d62f8     libucrt:get_environment_from_os.obj
 0004:00002304       $pdata$_recalloc_base      00000001800d6304     libucrt:recalloc.obj
 0004:00002310       $pdata$?try_get_function@@YAPEAXW4function_id@?A0x391cf84c@@QEBDQEBW4module_id@2@2@Z 00000001800d6310     libucrt:winapi_thunks.obj
 0004:0000231c       $pdata$__acrt_AppPolicyGetProcessTerminationMethodInternal 00000001800d631c     libucrt:winapi_thunks.obj
 0004:00002328       $pdata$__acrt_AppPolicyGetShowDeveloperDiagnosticInternal 00000001800d6328     libucrt:winapi_thunks.obj
 0004:00002334       $pdata$__acrt_AppPolicyGetWindowingModelInternal 00000001800d6334     libucrt:winapi_thunks.obj
 0004:00002340       $pdata$__acrt_AreFileApisANSI 00000001800d6340     libucrt:winapi_thunks.obj
 0004:0000234c       $pdata$__acrt_FlsAlloc     00000001800d634c     libucrt:winapi_thunks.obj
 0004:00002358       $pdata$__acrt_FlsFree      00000001800d6358     libucrt:winapi_thunks.obj
 0004:00002364       $pdata$__acrt_FlsGetValue  00000001800d6364     libucrt:winapi_thunks.obj
 0004:00002370       $pdata$__acrt_FlsSetValue  00000001800d6370     libucrt:winapi_thunks.obj
 0004:0000237c       $pdata$__acrt_InitializeCriticalSectionEx 00000001800d637c     libucrt:winapi_thunks.obj
 0004:00002388       $pdata$__acrt_LCMapStringEx 00000001800d6388     libucrt:winapi_thunks.obj
 0004:00002394       $pdata$__acrt_LocaleNameToLCID 00000001800d6394     libucrt:winapi_thunks.obj
 0004:000023a0       $pdata$__acrt_MessageBoxW  00000001800d63a0     libucrt:winapi_thunks.obj
 0004:000023ac       $pdata$__acrt_can_show_message_box 00000001800d63ac     libucrt:winapi_thunks.obj
 0004:000023b8       $pdata$__acrt_get_parent_window 00000001800d63b8     libucrt:winapi_thunks.obj
 0004:000023c4       $pdata$__acrt_initialize_winapi_thunks 00000001800d63c4     libucrt:winapi_thunks.obj
 0004:000023d0       $pdata$__acrt_is_interactive 00000001800d63d0     libucrt:winapi_thunks.obj
 0004:000023dc       $pdata$__acrt_uninitialize_winapi_thunks 00000001800d63dc     libucrt:winapi_thunks.obj
 0004:000023e8       $pdata$__acrt_initialize_heap 00000001800d63e8     libucrt:heap_handle.obj
 0004:000023f4       $pdata$?initialize_inherited_file_handles_nolock@@YAXXZ 00000001800d63f4     libucrt:ioinit.obj
 0004:00002400       $pdata$?initialize_stdio_handles_nolock@@YAXXZ 00000001800d6400     libucrt:ioinit.obj
 0004:0000240c       $pdata$__acrt_initialize_lowio 00000001800d640c     libucrt:ioinit.obj
 0004:00002418       $pdata$__acrt_uninitialize_lowio 00000001800d6418     libucrt:ioinit.obj
 0004:00002424       $pdata$__acrt_execute_initializers 00000001800d6424     libucrt:shared_initialization.obj
 0004:00002430       $pdata$__acrt_execute_uninitializers 00000001800d6430     libucrt:shared_initialization.obj
 0004:0000243c       $pdata$__acrt_stdio_begin_temporary_buffering_nolock 00000001800d643c     libucrt:_sftbuf.obj
 0004:00002448       $pdata$__acrt_stdio_end_temporary_buffering_nolock 00000001800d6448     libucrt:_sftbuf.obj
 0004:00002454       $pdata$isdigit             00000001800d6454     libucrt:_ctype.obj
 0004:00002460       $pdata$wcstol              00000001800d6460     libucrt:strtox.obj
 0004:0000246c       $pdata$_mbtowc_l           00000001800d646c     libucrt:mbtowc.obj
 0004:00002478       $pdata$_wctomb_s_l         00000001800d6478     libucrt:wctomb.obj
 0004:00002484       $pdata$wctomb_s            00000001800d6484     libucrt:wctomb.obj
 0004:00002490       $pdata$?fp_format_a@@YAHQEBNPEAD_KQEAD2H_NIQEAU__crt_locale_pointers@@@Z 00000001800d6490     libucrt:cvt.obj
 0004:0000249c       $pdata$?fp_format_e@@YAHQEBNQEAD_K12H_NIQEAU__crt_locale_pointers@@@Z 00000001800d649c     libucrt:cvt.obj
 0004:000024a8       $pdata$?fp_format_e_internal@@YAHQEAD_KH_NIQEAU_strflt@@2QEAU__crt_locale_pointers@@@Z 00000001800d64a8     libucrt:cvt.obj
 0004:000024b4       $pdata$?fp_format_f_internal@@YAHQEAD_KHQEAU_strflt@@_NQEAU__crt_locale_pointers@@@Z 00000001800d64b4     libucrt:cvt.obj
 0004:000024c0       $pdata$?fp_format_g@@YAHQEBNQEAD_K12H_NIQEAU__crt_locale_pointers@@@Z 00000001800d64c0     libucrt:cvt.obj
 0004:000024cc       $pdata$?fp_format_nan_or_infinity@@YAHW4__acrt_fp_class@@_NPEAD_K1@Z 00000001800d64cc     libucrt:cvt.obj
 0004:000024d8       $pdata$__acrt_fp_format    00000001800d64d8     libucrt:cvt.obj
 0004:000024e4       $pdata$_fputwc_nolock      00000001800d64e4     libucrt:fputwc.obj
 0004:000024f0       $pdata$_fileno             00000001800d64f0     libucrt:fileno.obj
 0004:000024fc       $pdata$__pctype_func       00000001800d64fc     libucrt:ctype.obj
 0004:00002508       $pdata$iswctype            00000001800d6508     libucrt:iswctype.obj
 0004:00002514       $pdata$_isctype_l          00000001800d6514     libucrt:isctype.obj
 0004:00002520       $pdata$_raise_exc          00000001800d6520     libucrt:fpexcept.obj
 0004:0000252c       $pdata$_raise_exc_ex       00000001800d652c     libucrt:fpexcept.obj
 0004:00002538       $pdata$_set_errno_from_matherr 00000001800d6538     libucrt:fpexcept.obj
 0004:00002544       $pdata$_clrfp              00000001800d6544     libucrt:fpctrl.obj
 0004:00002550       $pdata$_ctrlfp             00000001800d6550     libucrt:fpctrl.obj
 0004:0000255c       $pdata$_set_statfp         00000001800d655c     libucrt:fpctrl.obj
 0004:00002568       $pdata$_statfp             00000001800d6568     libucrt:fpctrl.obj
 0004:00002574       $pdata$_fcloseall          00000001800d6574     libucrt:closeall.obj
 0004:00002580       $pdata$__acrt_stdio_free_buffer_nolock 00000001800d6580     libucrt:_freebuf.obj
 0004:0000258c       $pdata$??$?RV<lambda_a37b2b86f63e897a80ea819b0eb08c01>@@AEAV<lambda_38ce7e780aa69e748d6df282ebc68efe>@@V<lambda_99fb1378e971ab6e7edea83e3a7a83a2>@@@?$__crt_seh_guarded_call@H@@QEAAH$$QEAV<lambda_a37b2b86f63e897a80ea819b0eb08c01>@@AEAV<lambda_38ce7e780aa69e748d6df282ebc68efe>@@$$QEAV<lambda_99fb1378e971ab6e7edea83e3a7a83a2>@@@Z 00000001800d658c     libucrt:commit.obj
 0004:00002598       $pdata$_commit             00000001800d6598     libucrt:commit.obj
 0004:000025a4       $pdata$?write_double_translated_ansi_nolock@@YA?AUwrite_result@?A0x17268360@@HQEBDI@Z 00000001800d65a4     libucrt:write.obj
 0004:000025b0       $pdata$?write_text_ansi_nolock@@YA?AUwrite_result@?A0x17268360@@HQEBDI@Z 00000001800d65b0     libucrt:write.obj
 0004:000025bc       $pdata$?write_text_utf16le_nolock@@YA?AUwrite_result@?A0x17268360@@HQEBDI@Z 00000001800d65bc     libucrt:write.obj
 0004:000025c8       $pdata$?write_text_utf8_nolock@@YA?AUwrite_result@?A0x17268360@@HQEBDI@Z 00000001800d65c8     libucrt:write.obj
 0004:000025d4       $pdata$_write              00000001800d65d4     libucrt:write.obj
 0004:000025e0       $pdata$_write_nolock       00000001800d65e0     libucrt:write.obj
 0004:000025ec       $pdata$__acrt_free_locale  00000001800d65ec     libucrt:locale_refcounting.obj
 0004:000025f8       $pdata$__acrt_locale_free_lc_time_if_unreferenced 00000001800d65f8     libucrt:locale_refcounting.obj
 0004:00002604       $pdata$__acrt_release_locale_ref 00000001800d6604     libucrt:locale_refcounting.obj
 0004:00002610       $pdata$__acrt_update_thread_locale_data 00000001800d6610     libucrt:locale_refcounting.obj
 0004:0000261c       $pdata$_updatetlocinfoEx_nolock 00000001800d661c     libucrt:locale_refcounting.obj
 0004:00002628       $pdata$_isleadbyte_l       00000001800d6628     libucrt:_wctype.obj
 0004:00002634       $pdata$?__acrt_LCMapStringA_stat@@YAHPEAU__crt_locale_pointers@@PEB_WKPEBDHPEADHHH@Z 00000001800d6634     libucrt:lcmapstringa.obj
 0004:00002640       $pdata$__acrt_LCMapStringA 00000001800d6640     libucrt:lcmapstringa.obj
 0004:0000264c       $pdata$__acrt_locale_free_monetary 00000001800d664c     libucrt:initmon.obj
 0004:00002658       $pdata$__acrt_locale_free_numeric 00000001800d6658     libucrt:initnum.obj
 0004:00002664       $pdata$?free_crt_array_internal@@YAXQEAPEBX_K@Z 00000001800d6664     libucrt:inittime.obj
 0004:00002670       $pdata$__acrt_locale_free_time 00000001800d6670     libucrt:inittime.obj
 0004:0000267c       $pdata$__acrt_GetStringTypeA 00000001800d667c     libucrt:getstringtypea.obj
 0004:00002688       $pdata$qsort               00000001800d6688     libucrt:qsort.obj
 0004:00002694       $pdata$4$qsort             00000001800d6694     libucrt:qsort.obj
 0004:000026a0       $pdata$5$qsort             00000001800d66a0     libucrt:qsort.obj
 0004:000026ac       $pdata$strncpy_s           00000001800d66ac     libucrt:strncpy_s.obj
 0004:000026b8       $pdata$fallbackMethod      00000001800d66b8     libucrt:strpbrk.obj
 0004:000026c4       $pdata$strpbrk             00000001800d66c4     libucrt:strpbrk.obj
 0004:000026d0       $pdata$_mbsdec_l           00000001800d66d0     libucrt:mbsdec.obj
 0004:000026dc       $pdata$?initialize_multibyte@@YAHXZ 00000001800d66dc     libucrt:multibyte_initializer.obj
 0004:000026e8       $pdata$_msize_base         00000001800d66e8     libucrt:msize.obj
 0004:000026f4       $pdata$_realloc_base       00000001800d66f4     libucrt:realloc_base.obj
 0004:00002700       $pdata$?GetTableIndexFromLocaleName@@YAHPEB_W@Z 00000001800d6700     libucrt:lcidtoname_downlevel.obj
 0004:0000270c       $pdata$__acrt_DownlevelLocaleNameToLCID 00000001800d670c     libucrt:lcidtoname_downlevel.obj
 0004:00002718       $pdata$__acrt_lowio_create_handle_array 00000001800d6718     libucrt:osfinfo.obj
 0004:00002724       $pdata$__acrt_lowio_destroy_handle_array 00000001800d6724     libucrt:osfinfo.obj
 0004:00002730       $pdata$__acrt_lowio_ensure_fh_exists 00000001800d6730     libucrt:osfinfo.obj
 0004:0000273c       $pdata$_free_osfhnd        00000001800d673c     libucrt:osfinfo.obj
 0004:00002748       $pdata$_get_osfhandle      00000001800d6748     libucrt:osfinfo.obj
 0004:00002754       $pdata$_isatty             00000001800d6754     libucrt:isatty.obj
 0004:00002760       $pdata$?__mbrtowc_utf8@__crt_mbstring@@YA_KPEA_WPEBD_KPEAU_Mbstatet@@@Z 00000001800d6760     libucrt:mbrtowc.obj
 0004:0000276c       $pdata$?__mbsrtowcs_utf8@__crt_mbstring@@YA_KPEA_WPEAPEBD_KPEAU_Mbstatet@@@Z 00000001800d676c     libucrt:mbrtowc.obj
 0004:00002778       $pdata$?__c32rtomb_utf8@__crt_mbstring@@YA_KPEAD_UPEAU_Mbstatet@@@Z 00000001800d6778     libucrt:c32rtomb.obj
 0004:00002784       $pdata$__acrt_fp_strflt_to_string 00000001800d6784     libucrt:_fptostr.obj
 0004:00002790       $pdata$?divide@__crt_strtox@@YA_KAEAUbig_integer@1@AEBU21@@Z 00000001800d6790     libucrt:cfout.obj
 0004:0000279c       $pdata$0$?divide@__crt_strtox@@YA_KAEAUbig_integer@1@AEBU21@@Z 00000001800d679c     libucrt:cfout.obj
 0004:000027a8       $pdata$1$?divide@__crt_strtox@@YA_KAEAUbig_integer@1@AEBU21@@Z 00000001800d67a8     libucrt:cfout.obj
 0004:000027b4       $pdata$__acrt_fltout       00000001800d67b4     libucrt:cfout.obj
 0004:000027c0       $pdata$memcpy_s            00000001800d67c0     libucrt:cfout.obj
 0004:000027cc       $pdata$??$write_buffer_nolock@D@@YA_NDV__crt_stdio_stream@@@Z 00000001800d67cc     libucrt:_flsbuf.obj
 0004:000027d8       $pdata$??$write_buffer_nolock@_W@@YA_N_WV__crt_stdio_stream@@@Z 00000001800d67d8     libucrt:_flsbuf.obj
 0004:000027e4       $pdata$?stream_is_at_end_of_file_nolock@@YA_NV__crt_stdio_stream@@@Z 00000001800d67e4     libucrt:_flsbuf.obj
 0004:000027f0       $pdata$__acrt_stdio_flush_and_write_narrow_nolock 00000001800d67f0     libucrt:_flsbuf.obj
 0004:000027fc       $pdata$__acrt_stdio_flush_and_write_wide_nolock 00000001800d67fc     libucrt:_flsbuf.obj
 0004:00002814       $pdata$_fclose_nolock      00000001800d6814     libucrt:fclose.obj
 0004:00002820       $pdata$fclose              00000001800d6820     libucrt:fclose.obj
 0004:0000282c       $pdata$??$common_lseek@_J@@YA_JH_JH@Z 00000001800d682c     libucrt:lseek.obj
 0004:00002838       $pdata$??$common_lseek_nolock@_J@@YA_JH_JH@Z 00000001800d6838     libucrt:lseek.obj
 0004:00002844       $pdata$_putwch_nolock      00000001800d6844     libucrt:putwch.obj
 0004:00002850       $pdata$?__mbrtoc32_utf8@__crt_mbstring@@YA_KPEA_UPEBD_KPEAU_Mbstatet@@@Z 00000001800d6850     libucrt:mbrtoc32.obj
 0004:0000285c       $pdata$fegetenv            00000001800d685c     libucrt:fegetenv.obj
 0004:00002868       $pdata$fesetenv            00000001800d6868     libucrt:fesetenv.obj
 0004:00002874       $pdata$feholdexcept        00000001800d6874     libucrt:feholdexcept.obj
 0004:0000288c       $pdata$__acrt_stdio_allocate_buffer_nolock 00000001800d688c     libucrt:_getbuf.obj
 0004:00002898       $pdata$??$?RV<lambda_751a882b2c74d4b022dec766aa51a29a>@@AEAV<lambda_628dfdc04ba53c8bfc02c9951375f3f5>@@V<lambda_f6c7be5f7998530c34de24c7437d6b54>@@@?$__crt_seh_guarded_call@H@@QEAAH$$QEAV<lambda_751a882b2c74d4b022dec766aa51a29a>@@AEAV<lambda_628dfdc04ba53c8bfc02c9951375f3f5>@@$$QEAV<lambda_f6c7be5f7998530c34de24c7437d6b54>@@@Z 00000001800d6898     libucrt:close.obj
 0004:000028a4       $pdata$_close              00000001800d68a4     libucrt:close.obj
 0004:000028b0       $pdata$_close_nolock       00000001800d68b0     libucrt:close.obj
 0004:000028bc       $pdata$__dcrt_lowio_ensure_console_output_initialized 00000001800d68bc     libucrt:initcon.obj
 0004:000028c8       $pdata$__dcrt_terminate_console_output 00000001800d68c8     libucrt:initcon.obj
 0004:000028d4       $pdata$__dcrt_write_console 00000001800d68d4     libucrt:initcon.obj
 0004:000028e0       $pdata$__acrt_fenv_set_control 00000001800d68e0     libucrt:_fenvutils.obj
 0004:000028ec       $pdata$_clearfp            00000001800d68ec     libucrt:ieee.obj
 0004:000028f8       $pdata$__acrt_initialize_fma3 00000001800d68f8     libucrt:fma3_available.obj
 0004:00002904       $pdata$_log10_special      00000001800d6904     libucrt:log_special.obj
 0004:00002910       $pdata$_log_special_common 00000001800d6910     libucrt:log_special.obj
 0004:0000291c       $pdata$?DloadAcquireSectionWriteAccess@@YAXXZ 00000001800d691c     DelayImp:delayhlp.obj
 0004:00002928       $pdata$?DloadGetSRWLockFunctionPointers@@YAEXZ 00000001800d6928     DelayImp:delayhlp.obj
 0004:00002934       $pdata$?DloadMakePermanentImageCommit@@YAXPEAX_K@Z 00000001800d6934     DelayImp:delayhlp.obj
 0004:00002940       $pdata$?DloadObtainSection@@YAPEAXPEAK0@Z 00000001800d6940     DelayImp:delayhlp.obj
 0004:0000294c       $pdata$?DloadProtectSection@@YAXKPEAK@Z 00000001800d694c     DelayImp:delayhlp.obj
 0004:00002958       $pdata$?DloadReleaseSectionWriteAccess@@YAXXZ 00000001800d6958     DelayImp:delayhlp.obj
 0004:00002964       $pdata$__delayLoadHelper2  00000001800d6964     DelayImp:delayhlp.obj
 0004:00002970       $pdata$_IsNonwritableInCurrentImage 00000001800d6970     LIBCMT:pesect.obj
 0004:0000297c       $pdata$__GSHandlerCheck    00000001800d697c     LIBCMT:gshandler.obj
 0004:00002988       $pdata$__GSHandlerCheckCommon 00000001800d6988     LIBCMT:gshandler.obj
 0004:000029ac       $pdata$strrchr             00000001800d69ac     libvcruntime:strrchr.obj
 0004:000029c4       $pdata$__scrt_is_nonwritable_in_current_image$filt$0 00000001800d69c4     LIBCMT:utility.obj
 0004:000029d0       $pdata$?fin$0@?0??dllmain_crt_process_attach@@YAHQEAUHINSTANCE__@@QEAX@Z@4HA 00000001800d69d0     LIBCMT:dll_dllmain.obj
 0004:000029dc       $pdata$?fin$0@?0??dllmain_crt_process_detach@@YAH_N@Z@4HA 00000001800d69dc     LIBCMT:dll_dllmain.obj
 0004:000029e8       $pdata$?filt$0@?0??dllmain_dispatch@@YAHQEAUHINSTANCE__@@KQEAX@Z@4HA 00000001800d69e8     LIBCMT:dll_dllmain.obj
 0004:000029f4       $pdata$__DestructExceptionObject$filt$0 00000001800d69f4     libvcruntime:ehhelpers.obj
 0004:00002a00       $pdata$?fin$0@?0???$?RV<lambda_638799b9deba96c50f710eeac98168cd>@@AEAV<lambda_22ebabd17bc4fa466a2aca6d8deb888d>@@V<lambda_a6f7d7db0129f75315ebf26d50c089f1>@@@?$__crt_seh_guarded_call@H@@QEAAH$$QEAV<lambda_638799b9deba96c50f710eeac98168cd>@@AEAV<lambda_22ebabd17bc4fa466a2aca6d8deb888d>@@$$QEAV<lambda_a6f7d7db0129f75315ebf26d50c089f1>@@@Z@4HA 00000001800d6a00     libucrt:onexit.obj
 0004:00002a00       $pdata$?fin$0@?0???$?RV<lambda_f2e299630e499de9f9a165e60fcd3db5>@@AEAV<lambda_2ae9d31cdba2644fcbeaf08da7c24588>@@V<lambda_40d01ff24d0e7b3814fdbdcee8eab3c7>@@@?$__crt_seh_guarded_call@X@@QEAAX$$QEAV<lambda_f2e299630e499de9f9a165e60fcd3db5>@@AEAV<lambda_2ae9d31cdba2644fcbeaf08da7c24588>@@$$QEAV<lambda_40d01ff24d0e7b3814fdbdcee8eab3c7>@@@Z@4HA 00000001800d6a00     libucrt:per_thread_data.obj
 0004:00002a00       $pdata$?fin$0@?0???$?RV<lambda_efdfa57d1f175319df784efa44bb7b81>@@AEAV<lambda_5f0a4c1567f8adc6734073e5d1e1b35c>@@V<lambda_2e8a7d3640ea6ccb4c2413664c2db6fd>@@@?$__crt_seh_guarded_call@X@@QEAAX$$QEAV<lambda_efdfa57d1f175319df784efa44bb7b81>@@AEAV<lambda_5f0a4c1567f8adc6734073e5d1e1b35c>@@$$QEAV<lambda_2e8a7d3640ea6ccb4c2413664c2db6fd>@@@Z@4HA 00000001800d6a00     libucrt:mbctype.obj
 0004:00002a00       $pdata$?fin$0@?0???$?RV<lambda_0ae27a3a962d80f24befdcbee591983d>@@AEAV<lambda_8d0ee55de4b1038c4002e0adecdf1839>@@V<lambda_dc504788e8f1664fe9b84e20bfb512f2>@@@?$__crt_seh_guarded_call@X@@QEAAX$$QEAV<lambda_0ae27a3a962d80f24befdcbee591983d>@@AEAV<lambda_8d0ee55de4b1038c4002e0adecdf1839>@@$$QEAV<lambda_dc504788e8f1664fe9b84e20bfb512f2>@@@Z@4HA 00000001800d6a00     libucrt:per_thread_data.obj
 0004:00002a00       $pdata$?fin$0@?0???$?RV<lambda_d80eeec6fff315bfe5c115232f3240e3>@@AEAV<lambda_6e4b09c48022b2350581041d5f6b0c4c>@@V<lambda_2358e3775559c9db80273638284d5e45>@@@?$__crt_seh_guarded_call@X@@QEAAX$$QEAV<lambda_d80eeec6fff315bfe5c115232f3240e3>@@AEAV<lambda_6e4b09c48022b2350581041d5f6b0c4c>@@$$QEAV<lambda_2358e3775559c9db80273638284d5e45>@@@Z@4HA 00000001800d6a00     libucrt:exit.obj
 0004:00002a00       $pdata$?fin$0@?0???$?RV<lambda_450d765d439847d4c735a33c368b5fc0>@@AEAV<lambda_44731a7d0e6d81c3e6aa82d741081786>@@V<lambda_601a2a7da3b7a96e9554ac7215c4b07c>@@@?$__crt_seh_guarded_call@P6AXH@Z@@QEAAP6AXH@Z$$QEAV<lambda_450d765d439847d4c735a33c368b5fc0>@@AEAV<lambda_44731a7d0e6d81c3e6aa82d741081786>@@$$QEAV<lambda_601a2a7da3b7a96e9554ac7215c4b07c>@@@Z@4HA 00000001800d6a00     libucrt:signal.obj
 0004:00002a00       $pdata$?fin$0@?0???$?RV<lambda_7777bce6b2f8c936911f934f8298dc43>@@AEAV<lambda_f03950bc5685219e0bcd2087efbe011e>@@V<lambda_3883c3dff614d5e0c5f61bb1ac94921c>@@@?$__crt_seh_guarded_call@H@@QEAAH$$QEAV<lambda_7777bce6b2f8c936911f934f8298dc43>@@AEAV<lambda_f03950bc5685219e0bcd2087efbe011e>@@$$QEAV<lambda_3883c3dff614d5e0c5f61bb1ac94921c>@@@Z@4HA 00000001800d6a00     libucrt:onexit.obj
 0004:00002a00       $pdata$?fin$0@?0???$?RV<lambda_2d41944a1d46af3157314b8a01080d33>@@AEAV<lambda_8f455de75cd7d7f24b4096f044d8b9e6>@@V<lambda_aa500f224e6afead328df44964fe2772>@@@?$__crt_seh_guarded_call@X@@QEAAX$$QEAV<lambda_2d41944a1d46af3157314b8a01080d33>@@AEAV<lambda_8f455de75cd7d7f24b4096f044d8b9e6>@@$$QEAV<lambda_aa500f224e6afead328df44964fe2772>@@@Z@4HA 00000001800d6a00     libucrt:per_thread_data.obj
 0004:00002a00       $pdata$?fin$0@?0???$?RV<lambda_aa87e3671a710a21b5dc78c0bdf72e11>@@AEAV<lambda_92619d2358a28f41a33ba319515a20b9>@@V<lambda_6992ecaafeb10aed2b74cb1fae11a551>@@@?$__crt_seh_guarded_call@X@@QEAAX$$QEAV<lambda_aa87e3671a710a21b5dc78c0bdf72e11>@@AEAV<lambda_92619d2358a28f41a33ba319515a20b9>@@$$QEAV<lambda_6992ecaafeb10aed2b74cb1fae11a551>@@@Z@4HA 00000001800d6a00     libucrt:per_thread_data.obj
 0004:00002a0c       $pdata$?filt$0@?0???R<lambda_6e4b09c48022b2350581041d5f6b0c4c>@@QEBA@XZ@4HA 00000001800d6a0c     libucrt:exit.obj
 0004:00002a18       $pdata$_query_new_handler$fin$0 00000001800d6a18     libucrt:new_handler.obj
 0004:00002a24       $pdata$?fin$0@?0???$?RV<lambda_84ec643ea9557e2f7dc01bb0e9624395>@@AEAV<lambda_ca71763b3c0644891230e4f79ea54fa6>@@V<lambda_439a761618c59b0600e24586724d733b>@@@?$__crt_seh_guarded_call@H@@QEAAH$$QEAV<lambda_84ec643ea9557e2f7dc01bb0e9624395>@@AEAV<lambda_ca71763b3c0644891230e4f79ea54fa6>@@$$QEAV<lambda_439a761618c59b0600e24586724d733b>@@@Z@4HA 00000001800d6a24     libucrt:setvbuf.obj
 0004:00002a24       $pdata$?fin$0@?0???$?RV<lambda_842d9ff0dc9ef11c61343bbaebe7f885>@@AEAV<lambda_c5860995281e5c4ce005b3de8f5874ee>@@V<lambda_d90129c13df834fdcbf8d2b88dafcf2d>@@@?$__crt_seh_guarded_call@X@@QEAAX$$QEAV<lambda_842d9ff0dc9ef11c61343bbaebe7f885>@@AEAV<lambda_c5860995281e5c4ce005b3de8f5874ee>@@$$QEAV<lambda_d90129c13df834fdcbf8d2b88dafcf2d>@@@Z@4HA 00000001800d6a24     libucrt:fflush.obj
 0004:00002a24       $pdata$?fin$0@?0???$?RV<lambda_c376a267cfb53b6959b3b692ec76b120>@@AEAV<lambda_9a32fed5bf61b6b509b2d3f6003082a1>@@V<lambda_572fbb9fa0ab338edf41edfd4b5fcc8d>@@@?$__crt_seh_guarded_call@H@@QEAAH$$QEAV<lambda_c376a267cfb53b6959b3b692ec76b120>@@AEAV<lambda_9a32fed5bf61b6b509b2d3f6003082a1>@@$$QEAV<lambda_572fbb9fa0ab338edf41edfd4b5fcc8d>@@@Z@4HA 00000001800d6a24     libucrt:fflush.obj
 0004:00002a24       $pdata$?fin$0@?0???$?RV<lambda_0d412022a4b28cc8a401ea49574e8ae6>@@AEAV<lambda_a775ed57af18ba8e4d5dc780aa9068fe>@@V<lambda_975a71a6baa488a08f4e15f6b0339b9e>@@@?$__crt_seh_guarded_call@H@@QEAAH$$QEAV<lambda_0d412022a4b28cc8a401ea49574e8ae6>@@AEAV<lambda_a775ed57af18ba8e4d5dc780aa9068fe>@@$$QEAV<lambda_975a71a6baa488a08f4e15f6b0339b9e>@@@Z@4HA 00000001800d6a24     libucrt:output.obj
 0004:00002a30       $pdata$?fin$0@?0???$?RV<lambda_886d6c58226a84441f68b9f2b8217b83>@@AEAV<lambda_ab61a845afdef5b7c387490eaf3616ee>@@V<lambda_f7f22ab5edc0698d5f6905b0d3f44752>@@@?$__crt_seh_guarded_call@X@@QEAAX$$QEAV<lambda_886d6c58226a84441f68b9f2b8217b83>@@AEAV<lambda_ab61a845afdef5b7c387490eaf3616ee>@@$$QEAV<lambda_f7f22ab5edc0698d5f6905b0d3f44752>@@@Z@4HA 00000001800d6a30     libucrt:fflush.obj
 0004:00002a3c       $pdata$raise$fin$0         00000001800d6a3c     libucrt:signal.obj
 0004:00002a48       $pdata$?fin$0@?0???$?RV<lambda_410d79af7f07d98d83a3f525b3859a53>@@AEAV<lambda_3e16ef9562a7dcce91392c22ab16ea36>@@V<lambda_38119f0e861e05405d8a144b9b982f0a>@@@?$__crt_seh_guarded_call@X@@QEAAX$$QEAV<lambda_410d79af7f07d98d83a3f525b3859a53>@@AEAV<lambda_3e16ef9562a7dcce91392c22ab16ea36>@@$$QEAV<lambda_38119f0e861e05405d8a144b9b982f0a>@@@Z@4HA 00000001800d6a48     libucrt:wsetlocale.obj
 0004:00002a54       $pdata$?fin$0@?0??update_thread_multibyte_data_internal@@YAPEAU__crt_multibyte_data@@QEAU__acrt_ptd@@QEAPEAU1@@Z@4HA 00000001800d6a54     libucrt:mbctype.obj
 0004:00002a60       $pdata$__acrt_lowio_ensure_fh_exists$fin$0 00000001800d6a60     libucrt:osfinfo.obj
 0004:00002a60       $pdata$__acrt_initialize_lowio$fin$0 00000001800d6a60     libucrt:ioinit.obj
 0004:00002a6c       $pdata$_ctrlfp$filt$0      00000001800d6a6c     libucrt:fpctrl.obj
 0004:00002a78       $pdata$_fcloseall$fin$0    00000001800d6a78     libucrt:closeall.obj
 0004:00002a84       $pdata$?fin$0@?0???$?RV<lambda_751a882b2c74d4b022dec766aa51a29a>@@AEAV<lambda_628dfdc04ba53c8bfc02c9951375f3f5>@@V<lambda_f6c7be5f7998530c34de24c7437d6b54>@@@?$__crt_seh_guarded_call@H@@QEAAH$$QEAV<lambda_751a882b2c74d4b022dec766aa51a29a>@@AEAV<lambda_628dfdc04ba53c8bfc02c9951375f3f5>@@$$QEAV<lambda_f6c7be5f7998530c34de24c7437d6b54>@@@Z@4HA 00000001800d6a84     libucrt:close.obj
 0004:00002a84       $pdata$?fin$0@?0???$?RV<lambda_a37b2b86f63e897a80ea819b0eb08c01>@@AEAV<lambda_38ce7e780aa69e748d6df282ebc68efe>@@V<lambda_99fb1378e971ab6e7edea83e3a7a83a2>@@@?$__crt_seh_guarded_call@H@@QEAAH$$QEAV<lambda_a37b2b86f63e897a80ea819b0eb08c01>@@AEAV<lambda_38ce7e780aa69e748d6df282ebc68efe>@@$$QEAV<lambda_99fb1378e971ab6e7edea83e3a7a83a2>@@@Z@4HA 00000001800d6a84     libucrt:commit.obj
 0004:00002a90       $pdata$?fin$0@?0???$common_lseek@_J@@YA_JH_JH@Z@4HA 00000001800d6a90     libucrt:lseek.obj
 0004:00002a90       $pdata$_write$fin$0        00000001800d6a90     libucrt:write.obj
 0004:00002a9c       $pdata$__acrt_update_thread_locale_data$fin$0 00000001800d6a9c     libucrt:locale_refcounting.obj
 0004:00002aa8       $pdata$fclose$fin$0        00000001800d6aa8     libucrt:fclose.obj
 0004:00002ab4       $pdata$_IsNonwritableInCurrentImage$filt$0 00000001800d6ab4     LIBCMT:pesect.obj
 0005:00000060       $R000000                   00000001800d7060     * linker generated manifest res *

 Exports

  ordinal    name

        1    _register_iltorb_
